 InterAPO

 Timestamp is 65394037 (Thu Oct 26 01:20:07 2023)

 Preferred load address is 0000000180000000

 Start         Length     Name                   Class
 0001:00000000 000010b0H .text$di                CODE
 0001:000010b0 000767f0H .text$mn                CODE
 0001:000778a0 00000040H .text$mn$00             CODE
 0001:000778e0 00000ac0H .text$x                 CODE
 0001:000783a0 000000dcH .text$yd                CODE
 0002:00000000 00001134H RT_CODE                 CODE
 0003:00000000 00000008H RT_BSS                  DATA
 0004:00000000 00000448H .idata$5                DATA
 0004:00000448 00000038H .00cfg                  DATA
 0004:00000480 00000008H .CRT$XCA                DATA
 0004:00000488 00000008H .CRT$XCL                DATA
 0004:00000490 000000e0H .CRT$XCU                DATA
 0004:00000570 00000008H .CRT$XCZ                DATA
 0004:00000578 00000008H .CRT$XIA                DATA
 0004:00000580 00000018H .CRT$XIC                DATA
 0004:00000598 00000008H .CRT$XIZ                DATA
 0004:000005a0 00000008H .CRT$XPA                DATA
 0004:000005a8 00000010H .CRT$XPX                DATA
 0004:000005b8 00000008H .CRT$XPXA               DATA
 0004:000005c0 00000008H .CRT$XPZ                DATA
 0004:000005c8 00000008H .CRT$XTA                DATA
 0004:000005d0 00000008H .CRT$XTZ                DATA
 0004:000005d8 00000000H .gehcont$y              DATA
 0004:000005d8 000005f8H .gfids                  DATA
 0004:00000bd0 00000000H .gfids$y                DATA
 0004:00000bd0 00000010H .giats                  DATA
 0004:00000bdc 00000000H .giats$y                DATA
 0004:00000be0 00016320H .rdata                  DATA
 0004:00016f00 00000080H .rdata$CastGuardVftablesA DATA
 0004:00016f80 00000080H .rdata$CastGuardVftablesC DATA
 0004:00017000 00002094H .rdata$r                DATA
 0004:00019094 0000070cH .rdata$voltmd           DATA
 0004:000197a0 000004a8H .rdata$zzzdbg           DATA
 0004:00019c48 00000008H .rtc$IAA                DATA
 0004:00019c50 00000028H .rtc$IMZ                DATA
 0004:00019c78 00000008H .rtc$IZZ                DATA
 0004:00019c80 00000008H .rtc$TAA                DATA
 0004:00019c88 00000028H .rtc$TMZ                DATA
 0004:00019cb0 00000008H .rtc$TZZ                DATA
 0004:00019cb8 00007730H .xdata                  DATA
 0004:000213e8 00000150H .xdata$x                DATA
 0004:00021538 00000008H ATL$__a                 DATA
 0004:00021540 00000010H ATL$__m                 DATA
 0004:00021550 00000010H ATL$__z                 DATA
 0004:00021560 000000a8H .edata                  DATA
 0004:00021608 00000078H .idata$2                DATA
 0004:00021680 00000018H .idata$3                DATA
 0004:00021698 00000448H .idata$4                DATA
 0004:00021ae0 00000954H .idata$6                DATA
 0005:00000000 00000b20H .data                   DATA
 0005:00000b20 000000b0H .data$r                 DATA
 0005:00000bd0 000008c0H .data$rs                DATA
 0005:00001490 00001c50H .bss                    DATA
 0006:00000000 00006a50H .pdata                  DATA
 0007:00000000 00000540H RT_CONST                DATA
 0008:00000000 000008b0H RT_DATA                 DATA
 0009:00000000 00000200H _RDATA                  DATA
 000a:00000000 00000200H .rsrc$01                DATA
 000a:00000200 00003860H .rsrc$02                DATA

  Address         Publics by Value              Rva+Base               Lib:Object

 0000:00000000       __AbsoluteZero             0000000000000000     <absolute>
 0000:00000000       ___safe_se_handler_count   0000000000000000     <absolute>
 0000:00000000       ___safe_se_handler_table   0000000000000000     <absolute>
 0000:00000000       __arm64x_extra_rfe_table   0000000000000000     <absolute>
 0000:00000000       __arm64x_extra_rfe_table_size 0000000000000000     <absolute>
 0000:00000000       __arm64x_native_entrypoint 0000000000000000     <absolute>
 0000:00000000       __arm64x_redirection_metadata 0000000000000000     <absolute>
 0000:00000000       __arm64x_redirection_metadata_count 0000000000000000     <absolute>
 0000:00000000       __dynamic_value_reloc_table 0000000000000000     <absolute>
 0000:00000000       __enclave_config           0000000000000000     <absolute>
 0000:00000000       __guard_check_icall_a64n_fptr 0000000000000000     <absolute>
 0000:00000000       __guard_eh_cont_count      0000000000000000     <absolute>
 0000:00000000       __guard_eh_cont_table      0000000000000000     <absolute>
 0000:00000000       __guard_longjmp_count      0000000000000000     <absolute>
 0000:00000000       __guard_longjmp_table      0000000000000000     <absolute>
 0000:00000000       __hybrid_auxiliary_delayload_iat 0000000000000000     <absolute>
 0000:00000000       __hybrid_auxiliary_delayload_iat_copy 0000000000000000     <absolute>
 0000:00000000       __hybrid_auxiliary_iat     0000000000000000     <absolute>
 0000:00000000       __hybrid_auxiliary_iat_copy 0000000000000000     <absolute>
 0000:00000000       __hybrid_code_map          0000000000000000     <absolute>
 0000:00000000       __hybrid_code_map_count    0000000000000000     <absolute>
 0000:00000000       __hybrid_image_info_bitfield 0000000000000000     <absolute>
 0000:00000000       __x64_code_ranges_to_entry_points 0000000000000000     <absolute>
 0000:00000000       __x64_code_ranges_to_entry_points_count 0000000000000000     <absolute>
 0000:00000002       __guard_iat_count          0000000000000002     <absolute>
 0000:00000131       __guard_fids_count         0000000000000131     <absolute>
 0000:10017500       __guard_flags              0000000010017500     <absolute>
 0000:00000000       __ImageBase                0000000180000000     <linker-defined>
 0001:000010b0       ?CreateInstance@?$CComCreator@V?$CComObjectCached@VCComClassFactory@ATL@@@ATL@@@ATL@@SAJPEAXAEBU_GUID@@PEAPEAX@Z 00000001800020b0 f i BiQuadFilter.obj
 0001:00001270       ?CreateInstance@?$CComCreator2@V?$CComCreator@V?$CComObject@VCInterAPOMFX@@@ATL@@@ATL@@V?$CComCreator@V?$CComAggObject@VCInterAPOMFX@@@ATL@@@2@@ATL@@SAJPEAXAEBU_GUID@@PEAPEAX@Z 0000000180002270 f i BiQuadFilter.obj
 0001:000012d0       ?CreateInstance@?$CComCreator2@V?$CComCreator@V?$CComObject@VCInterAPOSFX@@@ATL@@@ATL@@V?$CComCreator@V?$CComAggObject@VCInterAPOSFX@@@ATL@@@2@@ATL@@SAJPEAXAEBU_GUID@@PEAPEAX@Z 00000001800022d0 f i BiQuadFilter.obj
 0001:00001330       ?ObjectMain@CComObjectRootBase@ATL@@SAX_N@Z 0000000180002330 f i BiQuadFilter.obj
 0001:00001340       ?GetCategoryMap@CComObjectRootBase@ATL@@SAPEBU_ATL_CATMAP_ENTRY@2@XZ 0000000180002340 f i BiQuadFilter.obj
 0001:00001350       ?GetObjectDescription@?$CComCoClass@VCInterAPOMFX@@$1?CLSID_InterAPOMFX@@3U_GUID@@B@ATL@@SAPEBGXZ 0000000180002350 f i BiQuadFilter.obj
 0001:00001360       ?UpdateRegistry@CInterAPOMFX@@SAJH@Z 0000000180002360 f i BiQuadFilter.obj
 0001:00001390       ?GetObjectDescription@?$CComCoClass@VCInterAPOSFX@@$1?CLSID_InterAPOSFX@@3U_GUID@@B@ATL@@SAPEBGXZ 0000000180002390 f i BiQuadFilter.obj
 0001:000013a0       ?UpdateRegistry@CInterAPOSFX@@SAJH@Z 00000001800023a0 f i BiQuadFilter.obj
 0001:00001520       ?Prepare@BiQuadFilter@@QEAAXMMMMH@Z 0000000180002520 f   BiQuadFilter.obj
 0001:000015a0       ?Prepare@BiQuadFilter@@QEAAXJ@Z 00000001800025a0 f   BiQuadFilter.obj
 0001:000017f0       ?Process@BiQuadFilter@@QEAAMMMMMMH@Z 00000001800027f0 f   BiQuadFilter.obj
 0001:00001950       ?Process@BiQuadFilter@@QEAAMM@Z 0000000180002950 f   BiQuadFilter.obj
 0001:00001a70       ??$?2PEAG@?$Wrapper@PEAG@?$CSimpleMap@PEAGPEAGVCExpansionVectorEqualHelper@ATL@@@ATL@@SAPEAX_KPEAPEAG@Z 0000000180002a70 f i BiQuadFilter.obj
 0001:00001a90       ??$AtlMultiply@K@ATL@@YAJPEAKKK@Z 0000000180002a90 f i BiQuadFilter.obj
 0001:00001ae0       ??$AtlMultiply@_K@ATL@@YAJPEA_K_K1@Z 0000000180002ae0 f i BiQuadFilter.obj
 0001:00001b50       ??$AtlMultiplyThrow@_K@ATL@@YA_K_K0@Z 0000000180002b50 f i BiQuadFilter.obj
 0001:00001bc0       ??0?$CAtlSafeAllocBufferManager@VCCRTAllocator@ATL@@@_ATL_SAFE_ALLOCA_IMPL@ATL@@QEAA@XZ 0000000180002bc0 f i BiQuadFilter.obj
 0001:00001be0       ??0?$CAutoVectorPtr@G@ATL@@QEAA@XZ 0000000180002be0 f i BiQuadFilter.obj
 0001:00001c00       ??0?$CComAggObject@VCInterAPOMFX@@@ATL@@QEAA@PEAX@Z 0000000180002c00 f i BiQuadFilter.obj
 0001:00001c80       ??0?$CComAggObject@VCInterAPOSFX@@@ATL@@QEAA@PEAX@Z 0000000180002c80 f i BiQuadFilter.obj
 0001:00001d00       ??0?$CComContainedObject@VCInterAPOMFX@@@ATL@@QEAA@PEAX@Z 0000000180002d00 f i BiQuadFilter.obj
 0001:00001db0       ??0?$CComContainedObject@VCInterAPOSFX@@@ATL@@QEAA@PEAX@Z 0000000180002db0 f i BiQuadFilter.obj
 0001:00001e50       ??0?$CComHeapPtr@M@ATL@@QEAA@XZ 0000000180002e50 f i BiQuadFilter.obj
 0001:00001e70       ??0?$CComObject@VCInterAPOMFX@@@ATL@@QEAA@PEAX@Z 0000000180002e70 f i BiQuadFilter.obj
 0001:00001f30       ??0?$CComObject@VCInterAPOSFX@@@ATL@@QEAA@PEAX@Z 0000000180002f30 f i BiQuadFilter.obj
 0001:00001fe0       ??0?$CComObjectCached@VCComClassFactory@ATL@@@ATL@@QEAA@PEAX@Z 0000000180002fe0 f i BiQuadFilter.obj
 0001:00002020       ??0?$CComObjectRootEx@VCComMultiThreadModel@ATL@@@ATL@@QEAA@XZ 0000000180003020 f i BiQuadFilter.obj
 0001:00002050       ??0?$CComObjectRootEx@VCComMultiThreadModelNoCS@ATL@@@ATL@@QEAA@XZ 0000000180003050 f i BiQuadFilter.obj
 0001:00002070       ??0?$CComPtr@UIMMDeviceEnumerator@@@ATL@@QEAA@XZ 0000000180003070 f i BiQuadFilter.obj
 0001:00002090       ??0?$CComPtr@UIPropertyStore@@@ATL@@QEAA@XZ 0000000180003090 f i BiQuadFilter.obj
 0001:000020b0       ??0?$CComPtrBase@UIMMDeviceEnumerator@@@ATL@@IEAA@XZ 00000001800030b0 f i BiQuadFilter.obj
 0001:000020d0       ??0?$CComPtrBase@UIPropertyStore@@@ATL@@IEAA@XZ 00000001800030d0 f i BiQuadFilter.obj
 0001:000020f0       ??0?$CHeapPtr@MVCComAllocator@ATL@@@ATL@@QEAA@XZ 00000001800030f0 f i BiQuadFilter.obj
 0001:00002110       ??0?$CHeapPtrBase@MVCComAllocator@ATL@@@ATL@@IEAA@XZ 0000000180003110 f i BiQuadFilter.obj
 0001:00002130       ??0?$CSimpleMap@PEAGPEAGVCExpansionVectorEqualHelper@ATL@@@ATL@@QEAA@XZ 0000000180003130 f i BiQuadFilter.obj
 0001:00002170       ??0?$CTempBuffer@E$0BAA@VCCRTAllocator@ATL@@@ATL@@QEAA@XZ 0000000180003170 f i BiQuadFilter.obj
 0001:00002190       ??0?$CTempBuffer@G$0BAA@VCCRTAllocator@ATL@@@ATL@@QEAA@XZ 0000000180003190 f i BiQuadFilter.obj
 0001:000021b0       ??0?$CTempBuffer@G$0EAA@VCCRTAllocator@ATL@@@ATL@@QEAA@XZ 00000001800031b0 f i BiQuadFilter.obj
 0001:000021d0       ??0?$CTraceCategoryEx@$00$0A@@ATL@@QEAA@PEBG@Z 00000001800031d0 f i BiQuadFilter.obj
 0001:000021f0       ??0?$CTraceCategoryEx@$01$0A@@ATL@@QEAA@PEBG@Z 00000001800031f0 f i BiQuadFilter.obj
 0001:00002210       ??0?$CTraceCategoryEx@$03$0A@@ATL@@QEAA@PEBG@Z 0000000180003210 f i BiQuadFilter.obj
 0001:00002230       ??0?$CTraceCategoryEx@$07$0A@@ATL@@QEAA@PEBG@Z 0000000180003230 f i BiQuadFilter.obj
 0001:00002250       ??0?$CTraceCategoryEx@$0BA@$0A@@ATL@@QEAA@PEBG@Z 0000000180003250 f i BiQuadFilter.obj
 0001:00002270       ??0?$CTraceCategoryEx@$0BAA@$0A@@ATL@@QEAA@PEBG@Z 0000000180003270 f i BiQuadFilter.obj
 0001:00002290       ??0?$CTraceCategoryEx@$0BAAA@$0A@@ATL@@QEAA@PEBG@Z 0000000180003290 f i BiQuadFilter.obj
 0001:000022b0       ??0?$CTraceCategoryEx@$0BAAAA@$0A@@ATL@@QEAA@PEBG@Z 00000001800032b0 f i BiQuadFilter.obj
 0001:000022d0       ??0?$CTraceCategoryEx@$0BAAAAA@$0A@@ATL@@QEAA@PEBG@Z 00000001800032d0 f i BiQuadFilter.obj
 0001:000022f0       ??0?$CTraceCategoryEx@$0CA@$0A@@ATL@@QEAA@PEBG@Z 00000001800032f0 f i BiQuadFilter.obj
 0001:00002310       ??0?$CTraceCategoryEx@$0CAA@$0A@@ATL@@QEAA@PEBG@Z 0000000180003310 f i BiQuadFilter.obj
 0001:00002330       ??0?$CTraceCategoryEx@$0CAAA@$0A@@ATL@@QEAA@PEBG@Z 0000000180003330 f i BiQuadFilter.obj
 0001:00002350       ??0?$CTraceCategoryEx@$0CAAAA@$0A@@ATL@@QEAA@PEBG@Z 0000000180003350 f i BiQuadFilter.obj
 0001:00002370       ??0?$CTraceCategoryEx@$0CAAAAA@$0A@@ATL@@QEAA@PEBG@Z 0000000180003370 f i BiQuadFilter.obj
 0001:00002390       ??0?$CTraceCategoryEx@$0EA@$0A@@ATL@@QEAA@PEBG@Z 0000000180003390 f i BiQuadFilter.obj
 0001:000023b0       ??0?$CTraceCategoryEx@$0EAA@$0A@@ATL@@QEAA@PEBG@Z 00000001800033b0 f i BiQuadFilter.obj
 0001:000023d0       ??0?$CTraceCategoryEx@$0EAAA@$0A@@ATL@@QEAA@PEBG@Z 00000001800033d0 f i BiQuadFilter.obj
 0001:000023f0       ??0?$CTraceCategoryEx@$0EAAAA@$0A@@ATL@@QEAA@PEBG@Z 00000001800033f0 f i BiQuadFilter.obj
 0001:00002410       ??0?$CTraceCategoryEx@$0EAAAAA@$0A@@ATL@@QEAA@PEBG@Z 0000000180003410 f i BiQuadFilter.obj
 0001:00002430       ??0?$CTraceCategoryEx@$0IA@$0A@@ATL@@QEAA@PEBG@Z 0000000180003430 f i BiQuadFilter.obj
 0001:00002450       ??0?$CTraceCategoryEx@$0IAA@$0A@@ATL@@QEAA@PEBG@Z 0000000180003450 f i BiQuadFilter.obj
 0001:00002470       ??0?$CTraceCategoryEx@$0IAAA@$0A@@ATL@@QEAA@PEBG@Z 0000000180003470 f i BiQuadFilter.obj
 0001:00002490       ??0?$CTraceCategoryEx@$0IAAAA@$0A@@ATL@@QEAA@PEBG@Z 0000000180003490 f i BiQuadFilter.obj
 0001:000024b0       ??0?$Wrapper@PEAG@?$CSimpleMap@PEAGPEAGVCExpansionVectorEqualHelper@ATL@@@ATL@@QEAA@AEBQEAG@Z 00000001800034b0 f i BiQuadFilter.obj
 0001:000024e0       ??0BiQuadFilter@@QEAA@XZ   00000001800034e0 f i BiQuadFilter.obj
 0001:000025e0       ??0CAtlComModule@ATL@@QEAA@XZ 00000001800035e0 f i BiQuadFilter.obj
 0001:00002670       ??0CComAutoDeleteCriticalSection@ATL@@QEAA@XZ 0000000180003670 f i BiQuadFilter.obj
 0001:00002690       ??0CComClassFactory@ATL@@QEAA@XZ 0000000180003690 f i BiQuadFilter.obj
 0001:000026d0       ??0CComCriticalSection@ATL@@QEAA@XZ 00000001800036d0 f i BiQuadFilter.obj
 0001:00002700       ??0CComObjectRootBase@ATL@@QEAA@XZ 0000000180003700 f i BiQuadFilter.obj
 0001:00002720       ??0CComSafeDeleteCriticalSection@ATL@@QEAA@XZ 0000000180003720 f i BiQuadFilter.obj
 0001:00002750       ??0CCriticalSection@ATL@@QEAA@XZ 0000000180003750 f i BiQuadFilter.obj
 0001:00002790       ??0CExpansionVector@ATL@@QEAA@XZ 0000000180003790 f i BiQuadFilter.obj
 0001:000027b0       ??0CInterAPOMFX@@QEAA@XZ   00000001800037b0 f i BiQuadFilter.obj
 0001:000029b0       ??0CInterAPOSFX@@QEAA@XZ   00000001800039b0 f i BiQuadFilter.obj
 0001:00002b80       ??0CParseBuffer@CRegParser@ATL@@QEAA@H@Z 0000000180003b80 f i BiQuadFilter.obj
 0001:00002c00       ??0CRegKey@ATL@@QEAA@PEAVCAtlTransactionManager@1@@Z 0000000180003c00 f i BiQuadFilter.obj
 0001:00002c40       ??0CRegObject@ATL@@QEAA@XZ 0000000180003c40 f i BiQuadFilter.obj
 0001:00002c90       ??0CRegParser@ATL@@QEAA@PEAVCRegObject@1@@Z 0000000180003c90 f i BiQuadFilter.obj
 0001:00002cc0       ??0GraphicEqualizer@@QEAA@XZ 0000000180003cc0 f i BiQuadFilter.obj
 0001:00002dc0       ??0IAudioSystemEffects2@@QEAA@XZ 0000000180003dc0 f i BiQuadFilter.obj
 0001:00002de0       ??0IAudioSystemEffects@@QEAA@XZ 0000000180003de0 f i BiQuadFilter.obj
 0001:00002e00       ??0IAudioSystemEffectsCustomFormats@@QEAA@XZ 0000000180003e00 f i BiQuadFilter.obj
 0001:00002e20       ??0IClassFactory@@QEAA@XZ  0000000180003e20 f i BiQuadFilter.obj
 0001:00002e40       ??0IInterAPOMFX@@QEAA@XZ   0000000180003e40 f i BiQuadFilter.obj
 0001:00002e60       ??0IInterAPOSFX@@QEAA@XZ   0000000180003e60 f i BiQuadFilter.obj
 0001:00002e80       ??0IMMNotificationClient@@QEAA@XZ 0000000180003e80 f i BiQuadFilter.obj
 0001:00002ea0       ??0IRegistrarBase@@QEAA@XZ 0000000180003ea0 f i BiQuadFilter.obj
 0001:00002ec0       ??0IUnknown@@QEAA@XZ       0000000180003ec0 f i BiQuadFilter.obj
 0001:00002ed0       ??0ModuleLockHelper@ATL@@QEAA@XZ 0000000180003ed0 f i BiQuadFilter.obj
 0001:00002f10       ??0_ATL_COM_MODULE70@ATL@@QEAA@XZ 0000000180003f10 f i BiQuadFilter.obj
 0001:00002f40       ??1?$CAtlSafeAllocBufferManager@VCCRTAllocator@ATL@@@_ATL_SAFE_ALLOCA_IMPL@ATL@@QEAA@XZ 0000000180003f40 f i BiQuadFilter.obj
 0001:00002f90       ??1?$CAutoVectorPtr@G@ATL@@QEAA@XZ 0000000180003f90 f i BiQuadFilter.obj
 0001:00002fb0       ??1?$CComAggObject@VCInterAPOMFX@@@ATL@@UEAA@XZ 0000000180003fb0 f i BiQuadFilter.obj
 0001:00003030       ??1?$CComAggObject@VCInterAPOSFX@@@ATL@@UEAA@XZ 0000000180004030 f i BiQuadFilter.obj
 0001:000030b0       ??1?$CComContainedObject@VCInterAPOMFX@@@ATL@@UEAA@XZ 00000001800040b0 f i BiQuadFilter.obj
 0001:000030d0       ??1?$CComContainedObject@VCInterAPOSFX@@@ATL@@UEAA@XZ 00000001800040d0 f i BiQuadFilter.obj
 0001:000030f0       ??1?$CComObject@VCInterAPOMFX@@@ATL@@UEAA@XZ 00000001800040f0 f i BiQuadFilter.obj
 0001:000031c0       ??1?$CComObject@VCInterAPOSFX@@@ATL@@UEAA@XZ 00000001800041c0 f i BiQuadFilter.obj
 0001:00003280       ??1?$CComObjectCached@VCComClassFactory@ATL@@@ATL@@UEAA@XZ 0000000180004280 f i BiQuadFilter.obj
 0001:000032d0       ??1?$CComObjectRootEx@VCComMultiThreadModel@ATL@@@ATL@@QEAA@XZ 00000001800042d0 f i BiQuadFilter.obj
 0001:00003300       ??1?$CComObjectRootEx@VCComMultiThreadModelNoCS@ATL@@@ATL@@QEAA@XZ 0000000180004300 f i BiQuadFilter.obj
 0001:00003320       ??1?$CSimpleMap@PEAGPEAGVCExpansionVectorEqualHelper@ATL@@@ATL@@QEAA@XZ 0000000180004320 f i BiQuadFilter.obj
 0001:00003340       ??1?$CTempBuffer@E$0BAA@VCCRTAllocator@ATL@@@ATL@@QEAA@XZ 0000000180004340 f i BiQuadFilter.obj
 0001:00003370       ??1?$CTempBuffer@G$0BAA@VCCRTAllocator@ATL@@@ATL@@QEAA@XZ 0000000180004370 f i BiQuadFilter.obj
 0001:000033a0       ??1?$CTempBuffer@G$0EAA@VCCRTAllocator@ATL@@@ATL@@QEAA@XZ 00000001800043a0 f i BiQuadFilter.obj
 0001:000033d0       ??1CAtlComModule@ATL@@QEAA@XZ 00000001800043d0 f i BiQuadFilter.obj
 0001:00003400       ??1CComAutoDeleteCriticalSection@ATL@@QEAA@XZ 0000000180004400 f i BiQuadFilter.obj
 0001:00003420       ??1CComBSTR@ATL@@QEAA@XZ   0000000180004420 f i BiQuadFilter.obj
 0001:00003440       ??1CComClassFactory@ATL@@UEAA@XZ 0000000180004440 f i BiQuadFilter.obj
 0001:00003470       ??1CComCriticalSection@ATL@@QEAA@XZ 0000000180004470 f i BiQuadFilter.obj
 0001:00003480       ??1CComObjectRootBase@ATL@@QEAA@XZ 0000000180004480 f i BiQuadFilter.obj
 0001:00003490       ??1CComSafeDeleteCriticalSection@ATL@@QEAA@XZ 0000000180004490 f i BiQuadFilter.obj
 0001:000034d0       ??1CExpansionVector@ATL@@QEAA@XZ 00000001800044d0 f i BiQuadFilter.obj
 0001:00003500       ??1CParseBuffer@CRegParser@ATL@@QEAA@XZ 0000000180004500 f i BiQuadFilter.obj
 0001:00003520       ??1CRegKey@ATL@@QEAA@XZ    0000000180004520 f i BiQuadFilter.obj
 0001:00003540       ??1CRegObject@ATL@@UEAA@XZ 0000000180004540 f i BiQuadFilter.obj
 0001:00003590       ??1ModuleLockHelper@ATL@@QEAA@XZ 0000000180004590 f i BiQuadFilter.obj
 0001:000035d0       ??1_ATL_COM_MODULE70@ATL@@QEAA@XZ 00000001800045d0 f i BiQuadFilter.obj
 0001:00003600       ??1stringdispid@CComTypeInfoHolder@ATL@@QEAA@XZ 0000000180004600 f i BiQuadFilter.obj
 0001:00003620       ??B?$CRegAPOProperties@$00@@QEBAPEBUAPO_REG_PROPERTIES@@XZ 0000000180004620 f i BiQuadFilter.obj
 0001:00003630       ??B?$CTempBuffer@E$0BAA@VCCRTAllocator@ATL@@@ATL@@QEBAPEAEXZ 0000000180004630 f i BiQuadFilter.obj
 0001:00003640       ??B?$CTempBuffer@G$0BAA@VCCRTAllocator@ATL@@@ATL@@QEBAPEAGXZ 0000000180004640 f i BiQuadFilter.obj
 0001:00003650       ??B?$CTempBuffer@G$0EAA@VCCRTAllocator@ATL@@@ATL@@QEBAPEAGXZ 0000000180004650 f i BiQuadFilter.obj
 0001:00003660       ??BCRegKey@ATL@@QEBAPEAUHKEY__@@XZ 0000000180004660 f i BiQuadFilter.obj
 0001:00003670       ??_Estringdispid@CComTypeInfoHolder@ATL@@QEAAPEAXI@Z 0000000180004670 f i BiQuadFilter.obj
 0001:00003710       ??_E?$CComAggObject@VCInterAPOMFX@@@ATL@@UEAAPEAXI@Z 0000000180004710 f i BiQuadFilter.obj
 0001:00003710       ??_G?$CComAggObject@VCInterAPOMFX@@@ATL@@UEAAPEAXI@Z 0000000180004710 f i BiQuadFilter.obj
 0001:00003750       ??_E?$CComAggObject@VCInterAPOSFX@@@ATL@@UEAAPEAXI@Z 0000000180004750 f i BiQuadFilter.obj
 0001:00003750       ??_G?$CComAggObject@VCInterAPOSFX@@@ATL@@UEAAPEAXI@Z 0000000180004750 f i BiQuadFilter.obj
 0001:00003790       ??_E?$CComContainedObject@VCInterAPOMFX@@@ATL@@UEAAPEAXI@Z 0000000180004790 f i BiQuadFilter.obj
 0001:00003790       ??_G?$CComContainedObject@VCInterAPOMFX@@@ATL@@UEAAPEAXI@Z 0000000180004790 f i BiQuadFilter.obj
 0001:000037d0       ??_E?$CComContainedObject@VCInterAPOSFX@@@ATL@@UEAAPEAXI@Z 00000001800047d0 f i BiQuadFilter.obj
 0001:000037d0       ??_G?$CComContainedObject@VCInterAPOSFX@@@ATL@@UEAAPEAXI@Z 00000001800047d0 f i BiQuadFilter.obj
 0001:00003810       ??_E?$CComObject@VCInterAPOMFX@@@ATL@@UEAAPEAXI@Z 0000000180004810 f i BiQuadFilter.obj
 0001:00003810       ??_G?$CComObject@VCInterAPOMFX@@@ATL@@UEAAPEAXI@Z 0000000180004810 f i BiQuadFilter.obj
 0001:00003850       ??_E?$CComObject@VCInterAPOSFX@@@ATL@@UEAAPEAXI@Z 0000000180004850 f i BiQuadFilter.obj
 0001:00003850       ??_G?$CComObject@VCInterAPOSFX@@@ATL@@UEAAPEAXI@Z 0000000180004850 f i BiQuadFilter.obj
 0001:00003890       ??_E?$CComObjectCached@VCComClassFactory@ATL@@@ATL@@UEAAPEAXI@Z 0000000180004890 f i BiQuadFilter.obj
 0001:00003890       ??_G?$CComObjectCached@VCComClassFactory@ATL@@@ATL@@UEAAPEAXI@Z 0000000180004890 f i BiQuadFilter.obj
 0001:000038d0       ??_ECComClassFactory@ATL@@UEAAPEAXI@Z 00000001800048d0 f i BiQuadFilter.obj
 0001:000038d0       ??_GCComClassFactory@ATL@@UEAAPEAXI@Z 00000001800048d0 f i BiQuadFilter.obj
 0001:00003910       ??_ECInterAPOMFX@@UEAAPEAXI@Z 0000000180004910 f i BiQuadFilter.obj
 0001:00003910       ??_GCInterAPOMFX@@UEAAPEAXI@Z 0000000180004910 f i BiQuadFilter.obj
 0001:00003950       ??_ECInterAPOSFX@@UEAAPEAXI@Z 0000000180004950 f i BiQuadFilter.obj
 0001:00003950       ??_GCInterAPOSFX@@UEAAPEAXI@Z 0000000180004950 f i BiQuadFilter.obj
 0001:00003990       ??_ECRegObject@ATL@@UEAAPEAXI@Z 0000000180004990 f i BiQuadFilter.obj
 0001:00003990       ??_GCRegObject@ATL@@UEAAPEAXI@Z 0000000180004990 f i BiQuadFilter.obj
 0001:000039d0       ??_H@YAXPEAX_K1P6APEAX0@Z@Z 00000001800049d0 f i BiQuadFilter.obj
 0001:00003a60       ??_I@YAXPEAX_K1P6AX0@Z@Z   0000000180004a60 f i BiQuadFilter.obj
 0001:00003b10       ?Add@?$CSimpleMap@PEAGPEAGVCExpansionVectorEqualHelper@ATL@@@ATL@@QEAAHAEBQEAG0@Z 0000000180004b10 f i BiQuadFilter.obj
 0001:00003bf0       ?Add@CExpansionVector@ATL@@QEAAHPEBG0@Z 0000000180004bf0 f i BiQuadFilter.obj
 0001:00003e40       ?AddChar@CParseBuffer@CRegParser@ATL@@QEAAHPEBG@Z 0000000180004e40 f i BiQuadFilter.obj
 0001:00003e80       ?AddRef@?$CComAggObject@VCInterAPOMFX@@@ATL@@UEAAKXZ 0000000180004e80 f i BiQuadFilter.obj
 0001:00003eb0       ?AddRef@?$CComAggObject@VCInterAPOSFX@@@ATL@@UEAAKXZ 0000000180004eb0 f i BiQuadFilter.obj
 0001:00003ee0       ?AddRef@?$CComContainedObject@VCInterAPOMFX@@@ATL@@UEAAKXZ 0000000180004ee0 f i BiQuadFilter.obj
 0001:00003f10       ?AddRef@?$CComContainedObject@VCInterAPOMFX@@@ATL@@W7EAAKXZ 0000000180004f10 f i BiQuadFilter.obj
 0001:00003f20       ?AddRef@?$CComContainedObject@VCInterAPOMFX@@@ATL@@WBA@EAAKXZ 0000000180004f20 f i BiQuadFilter.obj
 0001:00003f30       ?AddRef@?$CComContainedObject@VCInterAPOMFX@@@ATL@@WGA@EAAKXZ 0000000180004f30 f i BiQuadFilter.obj
 0001:00003f40       ?AddRef@?$CComContainedObject@VCInterAPOMFX@@@ATL@@WGI@EAAKXZ 0000000180004f40 f i BiQuadFilter.obj
 0001:00003f50       ?AddRef@?$CComContainedObject@VCInterAPOMFX@@@ATL@@WHA@EAAKXZ 0000000180004f50 f i BiQuadFilter.obj
 0001:00003f60       ?AddRef@?$CComContainedObject@VCInterAPOMFX@@@ATL@@WHI@EAAKXZ 0000000180004f60 f i BiQuadFilter.obj
 0001:00003f70       ?AddRef@?$CComContainedObject@VCInterAPOSFX@@@ATL@@UEAAKXZ 0000000180004f70 f i BiQuadFilter.obj
 0001:00003fa0       ?AddRef@?$CComContainedObject@VCInterAPOSFX@@@ATL@@W7EAAKXZ 0000000180004fa0 f i BiQuadFilter.obj
 0001:00003fb0       ?AddRef@?$CComContainedObject@VCInterAPOSFX@@@ATL@@WBA@EAAKXZ 0000000180004fb0 f i BiQuadFilter.obj
 0001:00003fc0       ?AddRef@?$CComContainedObject@VCInterAPOSFX@@@ATL@@WGA@EAAKXZ 0000000180004fc0 f i BiQuadFilter.obj
 0001:00003fd0       ?AddRef@?$CComContainedObject@VCInterAPOSFX@@@ATL@@WGI@EAAKXZ 0000000180004fd0 f i BiQuadFilter.obj
 0001:00003fe0       ?AddRef@?$CComContainedObject@VCInterAPOSFX@@@ATL@@WHA@EAAKXZ 0000000180004fe0 f i BiQuadFilter.obj
 0001:00003ff0       ?AddRef@?$CComObject@VCInterAPOMFX@@@ATL@@UEAAKXZ 0000000180004ff0 f i BiQuadFilter.obj
 0001:00004020       ?AddRef@?$CComObject@VCInterAPOMFX@@@ATL@@W7EAAKXZ 0000000180005020 f i BiQuadFilter.obj
 0001:00004030       ?AddRef@?$CComObject@VCInterAPOMFX@@@ATL@@WBA@EAAKXZ 0000000180005030 f i BiQuadFilter.obj
 0001:00004040       ?AddRef@?$CComObject@VCInterAPOMFX@@@ATL@@WGA@EAAKXZ 0000000180005040 f i BiQuadFilter.obj
 0001:00004050       ?AddRef@?$CComObject@VCInterAPOMFX@@@ATL@@WGI@EAAKXZ 0000000180005050 f i BiQuadFilter.obj
 0001:00004060       ?AddRef@?$CComObject@VCInterAPOMFX@@@ATL@@WHA@EAAKXZ 0000000180005060 f i BiQuadFilter.obj
 0001:00004070       ?AddRef@?$CComObject@VCInterAPOMFX@@@ATL@@WHI@EAAKXZ 0000000180005070 f i BiQuadFilter.obj
 0001:00004080       ?AddRef@?$CComObject@VCInterAPOSFX@@@ATL@@UEAAKXZ 0000000180005080 f i BiQuadFilter.obj
 0001:000040b0       ?AddRef@?$CComObject@VCInterAPOSFX@@@ATL@@W7EAAKXZ 00000001800050b0 f i BiQuadFilter.obj
 0001:000040c0       ?AddRef@?$CComObject@VCInterAPOSFX@@@ATL@@WBA@EAAKXZ 00000001800050c0 f i BiQuadFilter.obj
 0001:000040d0       ?AddRef@?$CComObject@VCInterAPOSFX@@@ATL@@WGA@EAAKXZ 00000001800050d0 f i BiQuadFilter.obj
 0001:000040e0       ?AddRef@?$CComObject@VCInterAPOSFX@@@ATL@@WGI@EAAKXZ 00000001800050e0 f i BiQuadFilter.obj
 0001:000040f0       ?AddRef@?$CComObject@VCInterAPOSFX@@@ATL@@WHA@EAAKXZ 00000001800050f0 f i BiQuadFilter.obj
 0001:00004100       ?AddRef@?$CComObjectCached@VCComClassFactory@ATL@@@ATL@@UEAAKXZ 0000000180005100 f i BiQuadFilter.obj
 0001:00004160       ?AddRef@CRegObject@ATL@@UEAAKXZ 0000000180005160 f i BiQuadFilter.obj
 0001:00004170       ?AddReplacement@CRegObject@ATL@@UEAAJPEBG0@Z 0000000180005170 f i BiQuadFilter.obj
 0001:00004280       ?AddString@CParseBuffer@CRegParser@ATL@@QEAAHPEBG@Z 0000000180005280 f i BiQuadFilter.obj
 0001:00004350       ?AddValue@CRegParser@ATL@@IEAAJAEAVCRegKey@2@PEBGPEAG@Z 0000000180005350 f i BiQuadFilter.obj
 0001:000049c0       ?Allocate@?$CTempBuffer@E$0BAA@VCCRTAllocator@ATL@@@ATL@@QEAAPEAE_K@Z 00000001800059c0 f i BiQuadFilter.obj
 0001:00004a00       ?Allocate@?$CTempBuffer@G$0BAA@VCCRTAllocator@ATL@@@ATL@@QEAAPEAG_K@Z 0000000180005a00 f i BiQuadFilter.obj
 0001:00004a40       ?Allocate@?$CTempBuffer@G$0EAA@VCCRTAllocator@ATL@@@ATL@@QEAAPEAG_K@Z 0000000180005a40 f i BiQuadFilter.obj
 0001:00004a80       ?Allocate@CCRTAllocator@ATL@@SAPEAX_K@Z 0000000180005a80 f i BiQuadFilter.obj
 0001:00004aa0       ?AllocateBytes@?$CTempBuffer@E$0BAA@VCCRTAllocator@ATL@@@ATL@@QEAAPEAE_K@Z 0000000180005aa0 f i BiQuadFilter.obj
 0001:00004af0       ?AllocateBytes@?$CTempBuffer@G$0BAA@VCCRTAllocator@ATL@@@ATL@@QEAAPEAG_K@Z 0000000180005af0 f i BiQuadFilter.obj
 0001:00004b40       ?AllocateBytes@?$CTempBuffer@G$0EAA@VCCRTAllocator@ATL@@@ATL@@QEAAPEAG_K@Z 0000000180005b40 f i BiQuadFilter.obj
 0001:00004b90       ?AllocateHeap@?$CTempBuffer@E$0BAA@VCCRTAllocator@ATL@@@ATL@@AEAAX_K@Z 0000000180005b90 f i BiQuadFilter.obj
 0001:00004be0       ?AllocateHeap@?$CTempBuffer@G$0BAA@VCCRTAllocator@ATL@@@ATL@@AEAAX_K@Z 0000000180005be0 f i BiQuadFilter.obj
 0001:00004c30       ?AllocateHeap@?$CTempBuffer@G$0EAA@VCCRTAllocator@ATL@@@ATL@@AEAAX_K@Z 0000000180005c30 f i BiQuadFilter.obj
 0001:00004c80       ?Append@CParseBuffer@CRegParser@ATL@@QEAAHPEBGH@Z 0000000180005c80 f i BiQuadFilter.obj
 0001:00004e10       ?AtlCoTaskMemCAlloc@ATL@@YAPEAXKK@Z 0000000180005e10 f i BiQuadFilter.obj
 0001:00004e90       ?AtlCoTaskMemRecalloc@ATL@@YAPEAXPEAXKK@Z 0000000180005e90 f i BiQuadFilter.obj
 0001:00004f10       ?AtlCrtErrorCheck@ATL@@YAHH@Z 0000000180005f10 f i BiQuadFilter.obj
 0001:00004f80       ?AtlGetPerUserRegistration@ATL@@YAJPEA_N@Z 0000000180005f80 f i BiQuadFilter.obj
 0001:00004fb0       ?AtlHresultFromLastError@ATL@@YAJXZ 0000000180005fb0 f i BiQuadFilter.obj
 0001:00004fd0       ?AtlHresultFromWin32@ATL@@YAJK@Z 0000000180005fd0 f i BiQuadFilter.obj
 0001:00004ff0       ?AtlInternalQueryInterface@ATL@@YAJPEAXPEBU_ATL_INTMAP_ENTRY@1@AEBU_GUID@@PEAPEAX@Z 0000000180005ff0 f i BiQuadFilter.obj
 0001:00005210       ?AtlThrowImpl@ATL@@YAXJ@Z  0000000180006210 f i BiQuadFilter.obj
 0001:00005270       ?Attach@?$CAutoVectorPtr@G@ATL@@QEAAXPEAG@Z 0000000180006270 f i BiQuadFilter.obj
 0001:00005290       ?Attach@CRegKey@ATL@@QEAAXPEAUHKEY__@@@Z 0000000180006290 f i BiQuadFilter.obj
 0001:000052d0       ?CanForceRemoveKey@CRegParser@ATL@@IEAAHPEBG@Z 00000001800062d0 f i BiQuadFilter.obj
 0001:00005330       ?ChToByte@CRegParser@ATL@@KAEG@Z 0000000180006330 f i BiQuadFilter.obj
 0001:00005430       ?ClearReplacements@CExpansionVector@ATL@@QEAAJXZ 0000000180006430 f i BiQuadFilter.obj
 0001:000054c0       ?ClearReplacements@CRegObject@ATL@@UEAAJXZ 00000001800064c0 f i BiQuadFilter.obj
 0001:00005510       ?Close@CRegKey@ATL@@QEAAJXZ 0000000180006510 f i BiQuadFilter.obj
 0001:00005570       ?Create@CRegKey@ATL@@QEAAJPEAUHKEY__@@PEBGPEAGKKPEAU_SECURITY_ATTRIBUTES@@PEAK@Z 0000000180006570 f i BiQuadFilter.obj
 0001:00005720       ?CreateInstance@?$CComCreator@V?$CComAggObject@VCInterAPOMFX@@@ATL@@@ATL@@SAJPEAXAEBU_GUID@@PEAPEAX@Z 0000000180006720 f i BiQuadFilter.obj
 0001:000058d0       ?CreateInstance@?$CComCreator@V?$CComAggObject@VCInterAPOSFX@@@ATL@@@ATL@@SAJPEAXAEBU_GUID@@PEAPEAX@Z 00000001800068d0 f i BiQuadFilter.obj
 0001:00005a80       ?CreateInstance@?$CComCreator@V?$CComObject@VCInterAPOMFX@@@ATL@@@ATL@@SAJPEAXAEBU_GUID@@PEAPEAX@Z 0000000180006a80 f i BiQuadFilter.obj
 0001:00005c40       ?CreateInstance@?$CComCreator@V?$CComObject@VCInterAPOSFX@@@ATL@@@ATL@@SAJPEAXAEBU_GUID@@PEAPEAX@Z 0000000180006c40 f i BiQuadFilter.obj
 0001:00005df0       ?CreateInstance@CComClassFactory@ATL@@UEAAJPEAUIUnknown@@AEBU_GUID@@PEAPEAX@Z 0000000180006df0 f i BiQuadFilter.obj
 0001:00005e90       ?Decrement@CComMultiThreadModel@ATL@@SAKPEAJ@Z 0000000180006e90 f i BiQuadFilter.obj
 0001:00005eb0       ?Decrement@CComMultiThreadModelNoCS@ATL@@SAKPEAJ@Z 0000000180006eb0 f i BiQuadFilter.obj
 0001:00005ed0       ?DeleteSubKey@CRegKey@ATL@@QEAAJPEBG@Z 0000000180006ed0 f i BiQuadFilter.obj
 0001:00005fb0       ?DeleteValue@CRegKey@ATL@@QEAAJPEBG@Z 0000000180006fb0 f i BiQuadFilter.obj
 0001:00005fe0       ?Detach@?$CAutoVectorPtr@G@ATL@@QEAAPEAGXZ 0000000180006fe0 f i BiQuadFilter.obj
 0001:00006010       ?Detach@CParseBuffer@CRegParser@ATL@@QEAAPEAGXZ 0000000180007010 f i BiQuadFilter.obj
 0001:00006060       ?Detach@CRegKey@ATL@@QEAAPEAUHKEY__@@XZ 0000000180007060 f i BiQuadFilter.obj
 0001:000060b0       ?EndOfVar@CRegParser@ATL@@IEAAHXZ 00000001800070b0 f i BiQuadFilter.obj
 0001:00006100       ?EscapeSingleQuote@CAtlModule@ATL@@SAXPEAG_KPEBG@Z 0000000180007100 f i BiQuadFilter.obj
 0001:000061e0       ?FinalConstruct@?$CComAggObject@VCInterAPOMFX@@@ATL@@QEAAJXZ 00000001800071e0 f i BiQuadFilter.obj
 0001:00006220       ?FinalConstruct@?$CComAggObject@VCInterAPOSFX@@@ATL@@QEAAJXZ 0000000180007220 f i BiQuadFilter.obj
 0001:00006260       ?FinalConstruct@CComObjectRootBase@ATL@@QEAAJXZ 0000000180007260 f i BiQuadFilter.obj
 0001:00006270       ?FinalConstruct@CRegObject@ATL@@QEAAJXZ 0000000180007270 f i BiQuadFilter.obj
 0001:000062a0       ?FinalRelease@?$CComAggObject@VCInterAPOMFX@@@ATL@@QEAAXXZ 00000001800072a0 f i BiQuadFilter.obj
 0001:000062e0       ?FinalRelease@?$CComAggObject@VCInterAPOSFX@@@ATL@@QEAAXXZ 00000001800072e0 f i BiQuadFilter.obj
 0001:00006320       ?FinalRelease@CComObjectRootBase@ATL@@QEAAXXZ 0000000180007320 f i BiQuadFilter.obj
 0001:00006330       ?FindKey@?$CSimpleMap@PEAGPEAGVCExpansionVectorEqualHelper@ATL@@@ATL@@QEBAHAEBQEAG@Z 0000000180007330 f i BiQuadFilter.obj
 0001:000063a0       ?Free@?$CAutoVectorPtr@G@ATL@@QEAAXXZ 00000001800073a0 f i BiQuadFilter.obj
 0001:000063e0       ?Free@CCRTAllocator@ATL@@SAXPEAX@Z 00000001800073e0 f i BiQuadFilter.obj
 0001:00006400       ?FreeHeap@?$CTempBuffer@E$0BAA@VCCRTAllocator@ATL@@@ATL@@AEAAXXZ 0000000180007400 f i BiQuadFilter.obj
 0001:00006420       ?FreeHeap@?$CTempBuffer@G$0BAA@VCCRTAllocator@ATL@@@ATL@@AEAAXXZ 0000000180007420 f i BiQuadFilter.obj
 0001:00006440       ?FreeHeap@?$CTempBuffer@G$0EAA@VCCRTAllocator@ATL@@@ATL@@AEAAXXZ 0000000180007440 f i BiQuadFilter.obj
 0001:00006460       ?GenerateError@CRegParser@ATL@@IEAAJI@Z 0000000180007460 f i BiQuadFilter.obj
 0001:00006480       ?GetKeyAt@?$CSimpleMap@PEAGPEAGVCExpansionVectorEqualHelper@ATL@@@ATL@@QEBAAEAPEAGH@Z 0000000180007480 f i BiQuadFilter.obj
 0001:000064d0       ?GetModuleInstance@CAtlBaseModule@ATL@@QEAAPEAUHINSTANCE__@@XZ 00000001800074d0 f i BiQuadFilter.obj
 0001:000064f0       ?GetSize@?$CSimpleMap@PEAGPEAGVCExpansionVectorEqualHelper@ATL@@@ATL@@QEBAHXZ 00000001800074f0 f i BiQuadFilter.obj
 0001:00006500       ?GetValueAt@?$CSimpleMap@PEAGPEAGVCExpansionVectorEqualHelper@ATL@@@ATL@@QEBAAEAPEAGH@Z 0000000180007500 f i BiQuadFilter.obj
 0001:00006550       ?HKeyFromString@CRegParser@ATL@@KAPEAUHKEY__@@PEAG@Z 0000000180007550 f i BiQuadFilter.obj
 0001:000065d0       ?HasSubKeys@CRegParser@ATL@@IEAAHPEAUHKEY__@@@Z 00000001800075d0 f i BiQuadFilter.obj
 0001:000066b0       ?Increment@CComMultiThreadModel@ATL@@SAKPEAJ@Z 00000001800076b0 f i BiQuadFilter.obj
 0001:000066d0       ?Increment@CComMultiThreadModelNoCS@ATL@@SAKPEAJ@Z 00000001800076d0 f i BiQuadFilter.obj
 0001:000066f0       ?Init@CComCriticalSection@ATL@@QEAAJXZ 00000001800076f0 f i BiQuadFilter.obj
 0001:00006740       ?Init@CComFakeCriticalSection@ATL@@QEAAJXZ 0000000180007740 f i BiQuadFilter.obj
 0001:00006750       ?Init@CComSafeDeleteCriticalSection@ATL@@QEAAJXZ 0000000180007750 f i BiQuadFilter.obj
 0001:00006790       ?InlineIsEqualUnknown@ATL@@YAHAEBU_GUID@@@Z 0000000180007790 f i BiQuadFilter.obj
 0001:00006810       ?InternalAddRef@?$CComObjectRootEx@VCComMultiThreadModel@ATL@@@ATL@@QEAAKXZ 0000000180007810 f i BiQuadFilter.obj
 0001:00006830       ?InternalAddRef@?$CComObjectRootEx@VCComMultiThreadModelNoCS@ATL@@@ATL@@QEAAKXZ 0000000180007830 f i BiQuadFilter.obj
 0001:00006850       ?InternalFinalConstructAddRef@CComObjectRootBase@ATL@@QEAAXXZ 0000000180007850 f i BiQuadFilter.obj
 0001:00006860       ?InternalFinalConstructAddRef@CInterAPOMFX@@QEAAXXZ 0000000180007860 f i BiQuadFilter.obj
 0001:00006890       ?InternalFinalConstructAddRef@CInterAPOSFX@@QEAAXXZ 0000000180007890 f i BiQuadFilter.obj
 0001:000068c0       ?InternalFinalConstructRelease@CComObjectRootBase@ATL@@QEAAXXZ 00000001800078c0 f i BiQuadFilter.obj
 0001:000068d0       ?InternalFinalConstructRelease@CInterAPOMFX@@QEAAXXZ 00000001800078d0 f i BiQuadFilter.obj
 0001:00006900       ?InternalFinalConstructRelease@CInterAPOSFX@@QEAAXXZ 0000000180007900 f i BiQuadFilter.obj
 0001:00006930       ?InternalQueryInterface@CComObjectRootBase@ATL@@SAJPEAXPEBU_ATL_INTMAP_ENTRY@2@AEBU_GUID@@PEAPEAX@Z 0000000180007930 f i BiQuadFilter.obj
 0001:00006970       ?InternalRelease@?$CComObjectRootEx@VCComMultiThreadModel@ATL@@@ATL@@QEAAKXZ 0000000180007970 f i BiQuadFilter.obj
 0001:00006990       ?InternalRelease@?$CComObjectRootEx@VCComMultiThreadModelNoCS@ATL@@@ATL@@QEAAKXZ 0000000180007990 f i BiQuadFilter.obj
 0001:000069b0       ?InternalSetAtIndex@?$CSimpleMap@PEAGPEAGVCExpansionVectorEqualHelper@ATL@@@ATL@@QEAAXHAEBQEAG0@Z 00000001800079b0 f i BiQuadFilter.obj
 0001:00006a70       ?IsEqualKey@CExpansionVectorEqualHelper@ATL@@SA_NQEAG0@Z 0000000180007a70 f i BiQuadFilter.obj
 0001:00006aa0       ?IsSpace@CRegParser@ATL@@IEAAHG@Z 0000000180007aa0 f i BiQuadFilter.obj
 0001:00006ae0       ?Lock@CComCriticalSection@ATL@@QEAAJXZ 0000000180007ae0 f i BiQuadFilter.obj
 0001:00006b00       ?Lock@CComSafeDeleteCriticalSection@ATL@@QEAAJXZ 0000000180007b00 f i BiQuadFilter.obj
 0001:00006b20       ?LockServer@CComClassFactory@ATL@@UEAAJH@Z 0000000180007b20 f i BiQuadFilter.obj
 0001:00006b90       ?Lookup@?$CSimpleMap@PEAGPEAGVCExpansionVectorEqualHelper@ATL@@@ATL@@QEBAPEAGAEBQEAG@Z 0000000180007b90 f i BiQuadFilter.obj
 0001:00006be0       ?NextToken@CRegParser@ATL@@IEAAJPEAG@Z 0000000180007be0 f i BiQuadFilter.obj
 0001:00006eb0       ?OLE2CT_EX@@YAPEBGPEBGI@Z  0000000180007eb0 f i BiQuadFilter.obj
 0001:00006ed0       ?OnDefaultDeviceChanged@CInterAPOMFX@@UEAAJW4__MIDL___MIDL_itf_mmdeviceapi_0000_0000_0001@@W4__MIDL___MIDL_itf_mmdeviceapi_0000_0000_0002@@PEBG@Z 0000000180007ed0 f i BiQuadFilter.obj
 0001:00006ef0       ?OnDefaultDeviceChanged@CInterAPOSFX@@UEAAJW4__MIDL___MIDL_itf_mmdeviceapi_0000_0000_0001@@W4__MIDL___MIDL_itf_mmdeviceapi_0000_0000_0002@@PEBG@Z 0000000180007ef0 f i BiQuadFilter.obj
 0001:00006f10       ?OnDeviceAdded@CInterAPOMFX@@UEAAJPEBG@Z 0000000180007f10 f i BiQuadFilter.obj
 0001:00006f20       ?OnDeviceAdded@CInterAPOSFX@@UEAAJPEBG@Z 0000000180007f20 f i BiQuadFilter.obj
 0001:00006f30       ?OnDeviceRemoved@CInterAPOMFX@@UEAAJPEBG@Z 0000000180007f30 f i BiQuadFilter.obj
 0001:00006f40       ?OnDeviceRemoved@CInterAPOSFX@@UEAAJPEBG@Z 0000000180007f40 f i BiQuadFilter.obj
 0001:00006f50       ?OnDeviceStateChanged@CInterAPOMFX@@UEAAJPEBGK@Z 0000000180007f50 f i BiQuadFilter.obj
 0001:00006f70       ?OnDeviceStateChanged@CInterAPOSFX@@UEAAJPEBGK@Z 0000000180007f70 f i BiQuadFilter.obj
 0001:00006f90       ?Open@CRegKey@ATL@@QEAAJPEAUHKEY__@@PEBGK@Z 0000000180007f90 f i BiQuadFilter.obj
 0001:00007090       ?OuterAddRef@CComObjectRootBase@ATL@@QEAAKXZ 0000000180008090 f i BiQuadFilter.obj
 0001:000070d0       ?OuterQueryInterface@CComObjectRootBase@ATL@@QEAAJAEBU_GUID@@PEAPEAX@Z 00000001800080d0 f i BiQuadFilter.obj
 0001:00007120       ?OuterRelease@CComObjectRootBase@ATL@@QEAAKXZ 0000000180008120 f i BiQuadFilter.obj
 0001:00007160       ?PreProcessBuffer@CRegParser@ATL@@QEAAJPEAGPEAPEAG@Z 0000000180008160 f i BiQuadFilter.obj
 0001:00007740       ?QueryInterface@?$CComAggObject@VCInterAPOMFX@@@ATL@@UEAAJAEBU_GUID@@PEAPEAX@Z 0000000180008740 f i BiQuadFilter.obj
 0001:000077e0       ?QueryInterface@?$CComAggObject@VCInterAPOSFX@@@ATL@@UEAAJAEBU_GUID@@PEAPEAX@Z 00000001800087e0 f i BiQuadFilter.obj
 0001:00007880       ?QueryInterface@?$CComContainedObject@VCInterAPOMFX@@@ATL@@UEAAJAEBU_GUID@@PEAPEAX@Z 0000000180008880 f i BiQuadFilter.obj
 0001:000078c0       ?QueryInterface@?$CComContainedObject@VCInterAPOMFX@@@ATL@@W7EAAJAEBU_GUID@@PEAPEAX@Z 00000001800088c0 f i BiQuadFilter.obj
 0001:000078d0       ?QueryInterface@?$CComContainedObject@VCInterAPOMFX@@@ATL@@WBA@EAAJAEBU_GUID@@PEAPEAX@Z 00000001800088d0 f i BiQuadFilter.obj
 0001:000078e0       ?QueryInterface@?$CComContainedObject@VCInterAPOMFX@@@ATL@@WGA@EAAJAEBU_GUID@@PEAPEAX@Z 00000001800088e0 f i BiQuadFilter.obj
 0001:000078f0       ?QueryInterface@?$CComContainedObject@VCInterAPOMFX@@@ATL@@WGI@EAAJAEBU_GUID@@PEAPEAX@Z 00000001800088f0 f i BiQuadFilter.obj
 0001:00007900       ?QueryInterface@?$CComContainedObject@VCInterAPOMFX@@@ATL@@WHA@EAAJAEBU_GUID@@PEAPEAX@Z 0000000180008900 f i BiQuadFilter.obj
 0001:00007910       ?QueryInterface@?$CComContainedObject@VCInterAPOMFX@@@ATL@@WHI@EAAJAEBU_GUID@@PEAPEAX@Z 0000000180008910 f i BiQuadFilter.obj
 0001:00007920       ?QueryInterface@?$CComContainedObject@VCInterAPOSFX@@@ATL@@UEAAJAEBU_GUID@@PEAPEAX@Z 0000000180008920 f i BiQuadFilter.obj
 0001:00007960       ?QueryInterface@?$CComContainedObject@VCInterAPOSFX@@@ATL@@W7EAAJAEBU_GUID@@PEAPEAX@Z 0000000180008960 f i BiQuadFilter.obj
 0001:00007970       ?QueryInterface@?$CComContainedObject@VCInterAPOSFX@@@ATL@@WBA@EAAJAEBU_GUID@@PEAPEAX@Z 0000000180008970 f i BiQuadFilter.obj
 0001:00007980       ?QueryInterface@?$CComContainedObject@VCInterAPOSFX@@@ATL@@WGA@EAAJAEBU_GUID@@PEAPEAX@Z 0000000180008980 f i BiQuadFilter.obj
 0001:00007990       ?QueryInterface@?$CComContainedObject@VCInterAPOSFX@@@ATL@@WGI@EAAJAEBU_GUID@@PEAPEAX@Z 0000000180008990 f i BiQuadFilter.obj
 0001:000079a0       ?QueryInterface@?$CComContainedObject@VCInterAPOSFX@@@ATL@@WHA@EAAJAEBU_GUID@@PEAPEAX@Z 00000001800089a0 f i BiQuadFilter.obj
 0001:000079b0       ?QueryInterface@?$CComObject@VCInterAPOMFX@@@ATL@@UEAAJAEBU_GUID@@PEAPEAX@Z 00000001800089b0 f i BiQuadFilter.obj
 0001:000079e0       ?QueryInterface@?$CComObject@VCInterAPOMFX@@@ATL@@W7EAAJAEBU_GUID@@PEAPEAX@Z 00000001800089e0 f i BiQuadFilter.obj
 0001:000079f0       ?QueryInterface@?$CComObject@VCInterAPOMFX@@@ATL@@WBA@EAAJAEBU_GUID@@PEAPEAX@Z 00000001800089f0 f i BiQuadFilter.obj
 0001:00007a00       ?QueryInterface@?$CComObject@VCInterAPOMFX@@@ATL@@WGA@EAAJAEBU_GUID@@PEAPEAX@Z 0000000180008a00 f i BiQuadFilter.obj
 0001:00007a10       ?QueryInterface@?$CComObject@VCInterAPOMFX@@@ATL@@WGI@EAAJAEBU_GUID@@PEAPEAX@Z 0000000180008a10 f i BiQuadFilter.obj
 0001:00007a20       ?QueryInterface@?$CComObject@VCInterAPOMFX@@@ATL@@WHA@EAAJAEBU_GUID@@PEAPEAX@Z 0000000180008a20 f i BiQuadFilter.obj
 0001:00007a30       ?QueryInterface@?$CComObject@VCInterAPOMFX@@@ATL@@WHI@EAAJAEBU_GUID@@PEAPEAX@Z 0000000180008a30 f i BiQuadFilter.obj
 0001:00007a40       ?QueryInterface@?$CComObject@VCInterAPOSFX@@@ATL@@UEAAJAEBU_GUID@@PEAPEAX@Z 0000000180008a40 f i BiQuadFilter.obj
 0001:00007a70       ?QueryInterface@?$CComObject@VCInterAPOSFX@@@ATL@@W7EAAJAEBU_GUID@@PEAPEAX@Z 0000000180008a70 f i BiQuadFilter.obj
 0001:00007a80       ?QueryInterface@?$CComObject@VCInterAPOSFX@@@ATL@@WBA@EAAJAEBU_GUID@@PEAPEAX@Z 0000000180008a80 f i BiQuadFilter.obj
 0001:00007a90       ?QueryInterface@?$CComObject@VCInterAPOSFX@@@ATL@@WGA@EAAJAEBU_GUID@@PEAPEAX@Z 0000000180008a90 f i BiQuadFilter.obj
 0001:00007aa0       ?QueryInterface@?$CComObject@VCInterAPOSFX@@@ATL@@WGI@EAAJAEBU_GUID@@PEAPEAX@Z 0000000180008aa0 f i BiQuadFilter.obj
 0001:00007ab0       ?QueryInterface@?$CComObject@VCInterAPOSFX@@@ATL@@WHA@EAAJAEBU_GUID@@PEAPEAX@Z 0000000180008ab0 f i BiQuadFilter.obj
 0001:00007ac0       ?QueryInterface@?$CComObjectCached@VCComClassFactory@ATL@@@ATL@@UEAAJAEBU_GUID@@PEAPEAX@Z 0000000180008ac0 f i BiQuadFilter.obj
 0001:00007af0       ?QueryInterface@CRegObject@ATL@@UEAAJAEBU_GUID@@PEAPEAX@Z 0000000180008af0 f i BiQuadFilter.obj
 0001:00007b10       ?RecurseDeleteKey@CRegKey@ATL@@QEAAJPEBG@Z 0000000180008b10 f i BiQuadFilter.obj
 0001:00007cc0       ?RegCreateKeyExW@CAtlTransactionManager@ATL@@QEAAJPEAUHKEY__@@PEBGKPEAGKKQEAU_SECURITY_ATTRIBUTES@@PEAPEAU3@PEAK@Z 0000000180008cc0 f i BiQuadFilter.obj
 0001:00007e50       ?RegDeleteKeyW@CAtlTransactionManager@ATL@@QEAAJPEAUHKEY__@@PEBG@Z 0000000180008e50 f i BiQuadFilter.obj
 0001:00007f30       ?RegOpenKeyExW@CAtlTransactionManager@ATL@@QEAAJPEAUHKEY__@@PEBGKKPEAPEAU3@@Z 0000000180008f30 f i BiQuadFilter.obj
 0001:00008040       ?RegisterBuffer@CRegParser@ATL@@QEAAJPEAGH@Z 0000000180009040 f i BiQuadFilter.obj
 0001:000082f0       ?RegisterFromResource@CRegObject@ATL@@IEAAJPEBG00H@Z 00000001800092f0 f i BiQuadFilter.obj
 0001:00008600       ?RegisterSubkeys@CRegParser@ATL@@IEAAJPEAGPEAUHKEY__@@HH@Z 0000000180009600 f i BiQuadFilter.obj
 0001:00009120       ?Release@?$CComAggObject@VCInterAPOMFX@@@ATL@@UEAAKXZ 000000018000a120 f i BiQuadFilter.obj
 0001:000091e0       ?Release@?$CComAggObject@VCInterAPOSFX@@@ATL@@UEAAKXZ 000000018000a1e0 f i BiQuadFilter.obj
 0001:000092a0       ?Release@?$CComContainedObject@VCInterAPOMFX@@@ATL@@UEAAKXZ 000000018000a2a0 f i BiQuadFilter.obj
 0001:000092d0       ?Release@?$CComContainedObject@VCInterAPOMFX@@@ATL@@W7EAAKXZ 000000018000a2d0 f i BiQuadFilter.obj
 0001:000092e0       ?Release@?$CComContainedObject@VCInterAPOMFX@@@ATL@@WBA@EAAKXZ 000000018000a2e0 f i BiQuadFilter.obj
 0001:000092f0       ?Release@?$CComContainedObject@VCInterAPOMFX@@@ATL@@WGA@EAAKXZ 000000018000a2f0 f i BiQuadFilter.obj
 0001:00009300       ?Release@?$CComContainedObject@VCInterAPOMFX@@@ATL@@WGI@EAAKXZ 000000018000a300 f i BiQuadFilter.obj
 0001:00009310       ?Release@?$CComContainedObject@VCInterAPOMFX@@@ATL@@WHA@EAAKXZ 000000018000a310 f i BiQuadFilter.obj
 0001:00009320       ?Release@?$CComContainedObject@VCInterAPOMFX@@@ATL@@WHI@EAAKXZ 000000018000a320 f i BiQuadFilter.obj
 0001:00009330       ?Release@?$CComContainedObject@VCInterAPOSFX@@@ATL@@UEAAKXZ 000000018000a330 f i BiQuadFilter.obj
 0001:00009360       ?Release@?$CComContainedObject@VCInterAPOSFX@@@ATL@@W7EAAKXZ 000000018000a360 f i BiQuadFilter.obj
 0001:00009370       ?Release@?$CComContainedObject@VCInterAPOSFX@@@ATL@@WBA@EAAKXZ 000000018000a370 f i BiQuadFilter.obj
 0001:00009380       ?Release@?$CComContainedObject@VCInterAPOSFX@@@ATL@@WGA@EAAKXZ 000000018000a380 f i BiQuadFilter.obj
 0001:00009390       ?Release@?$CComContainedObject@VCInterAPOSFX@@@ATL@@WGI@EAAKXZ 000000018000a390 f i BiQuadFilter.obj
 0001:000093a0       ?Release@?$CComContainedObject@VCInterAPOSFX@@@ATL@@WHA@EAAKXZ 000000018000a3a0 f i BiQuadFilter.obj
 0001:000093b0       ?Release@?$CComObject@VCInterAPOMFX@@@ATL@@UEAAKXZ 000000018000a3b0 f i BiQuadFilter.obj
 0001:00009470       ?Release@?$CComObject@VCInterAPOMFX@@@ATL@@W7EAAKXZ 000000018000a470 f i BiQuadFilter.obj
 0001:00009480       ?Release@?$CComObject@VCInterAPOMFX@@@ATL@@WBA@EAAKXZ 000000018000a480 f i BiQuadFilter.obj
 0001:00009490       ?Release@?$CComObject@VCInterAPOMFX@@@ATL@@WGA@EAAKXZ 000000018000a490 f i BiQuadFilter.obj
 0001:000094a0       ?Release@?$CComObject@VCInterAPOMFX@@@ATL@@WGI@EAAKXZ 000000018000a4a0 f i BiQuadFilter.obj
 0001:000094b0       ?Release@?$CComObject@VCInterAPOMFX@@@ATL@@WHA@EAAKXZ 000000018000a4b0 f i BiQuadFilter.obj
 0001:000094c0       ?Release@?$CComObject@VCInterAPOMFX@@@ATL@@WHI@EAAKXZ 000000018000a4c0 f i BiQuadFilter.obj
 0001:000094d0       ?Release@?$CComObject@VCInterAPOSFX@@@ATL@@UEAAKXZ 000000018000a4d0 f i BiQuadFilter.obj
 0001:00009590       ?Release@?$CComObject@VCInterAPOSFX@@@ATL@@W7EAAKXZ 000000018000a590 f i BiQuadFilter.obj
 0001:000095a0       ?Release@?$CComObject@VCInterAPOSFX@@@ATL@@WBA@EAAKXZ 000000018000a5a0 f i BiQuadFilter.obj
 0001:000095b0       ?Release@?$CComObject@VCInterAPOSFX@@@ATL@@WGA@EAAKXZ 000000018000a5b0 f i BiQuadFilter.obj
 0001:000095c0       ?Release@?$CComObject@VCInterAPOSFX@@@ATL@@WGI@EAAKXZ 000000018000a5c0 f i BiQuadFilter.obj
 0001:000095d0       ?Release@?$CComObject@VCInterAPOSFX@@@ATL@@WHA@EAAKXZ 000000018000a5d0 f i BiQuadFilter.obj
 0001:000095e0       ?Release@?$CComObjectCached@VCComClassFactory@ATL@@@ATL@@UEAAKXZ 000000018000a5e0 f i BiQuadFilter.obj
 0001:00009690       ?Release@CRegObject@ATL@@UEAAKXZ 000000018000a690 f i BiQuadFilter.obj
 0001:000096a0       ?RemoveAll@?$CSimpleMap@PEAGPEAGVCExpansionVectorEqualHelper@ATL@@@ATL@@QEAAXXZ 000000018000a6a0 f i BiQuadFilter.obj
 0001:00009730       ?ResourceRegister@CRegObject@ATL@@QEAAJPEBGI0@Z 000000018000a730 f i BiQuadFilter.obj
 0001:000097f0       ?ResourceUnregister@CRegObject@ATL@@QEAAJPEBGI0@Z 000000018000a7f0 f i BiQuadFilter.obj
 0001:000098b0       ?SetBandPass@BiQuadFilter@@QEAAXXZ 000000018000a8b0 f i BiQuadFilter.obj
 0001:000099c0       ?SetDWORDValue@CRegKey@ATL@@QEAAJPEBGK@Z 000000018000a9c0 f i BiQuadFilter.obj
 0001:00009a10       ?SetFrequency@BiQuadFilter@@QEAAXM@Z 000000018000aa10 f i BiQuadFilter.obj
 0001:00009a30       ?SetGain@BiQuadFilter@@QEAAXM@Z 000000018000aa30 f i BiQuadFilter.obj
 0001:00009a80       ?SetHighPass@BiQuadFilter@@QEAAXXZ 000000018000aa80 f i BiQuadFilter.obj
 0001:00009bb0       ?SetHighShelf@BiQuadFilter@@QEAAXXZ 000000018000abb0 f i BiQuadFilter.obj
 0001:00009e00       ?SetLowPass@BiQuadFilter@@QEAAXXZ 000000018000ae00 f i BiQuadFilter.obj
 0001:00009f30       ?SetLowShelf@BiQuadFilter@@QEAAXXZ 000000018000af30 f i BiQuadFilter.obj
 0001:0000a180       ?SetMultiStringValue@CRegKey@ATL@@QEAAJPEBG0@Z 000000018000b180 f i BiQuadFilter.obj
 0001:0000a250       ?SetNotch@BiQuadFilter@@QEAAXXZ 000000018000b250 f i BiQuadFilter.obj
 0001:0000a370       ?SetPeak@BiQuadFilter@@QEAAXXZ 000000018000b370 f i BiQuadFilter.obj
 0001:0000a4e0       ?SetQ@BiQuadFilter@@QEAAXM@Z 000000018000b4e0 f i BiQuadFilter.obj
 0001:0000a500       ?SetSampleRate@BiQuadFilter@@QEAAXM@Z 000000018000b500 f i BiQuadFilter.obj
 0001:0000a520       ?SetStringValue@CRegKey@ATL@@QEAAJPEBG0K@Z 000000018000b520 f i BiQuadFilter.obj
 0001:0000a5c0       ?SetVoid@CComClassFactory@ATL@@QEAAXPEAX@Z 000000018000b5c0 f i BiQuadFilter.obj
 0001:0000a5e0       ?SetVoid@CComObjectRootBase@ATL@@QEAAXPEAX@Z 000000018000b5e0 f i BiQuadFilter.obj
 0001:0000a5f0       ?SkipAssignment@CRegParser@ATL@@IEAAJPEAG@Z 000000018000b5f0 f i BiQuadFilter.obj
 0001:0000a700       ?SkipWhiteSpace@CRegParser@ATL@@IEAAXXZ 000000018000b700 f i BiQuadFilter.obj
 0001:0000a750       ?StrChrW@CRegParser@ATL@@KAPEAGPEAGG@Z 000000018000b750 f i BiQuadFilter.obj
 0001:0000a7c0       ?StrFromMap@CRegObject@ATL@@QEAAPEBGPEAG@Z 000000018000b7c0 f i BiQuadFilter.obj
 0001:0000a820       ?T2OLE_EX@@YAPEAGPEAGI@Z   000000018000b820 f i BiQuadFilter.obj
 0001:0000a840       ?Term@CAtlComModule@ATL@@QEAAXXZ 000000018000b840 f i BiQuadFilter.obj
 0001:0000a920       ?Term@CComCriticalSection@ATL@@QEAAJXZ 000000018000b920 f i BiQuadFilter.obj
 0001:0000a940       ?Unlock@CComCriticalSection@ATL@@QEAAJXZ 000000018000b940 f i BiQuadFilter.obj
 0001:0000a960       ?UpdateRegistryFromResource@CAtlModule@ATL@@QEAAJIHPEAU_ATL_REGMAP_ENTRY@2@@Z 000000018000b960 f i BiQuadFilter.obj
 0001:0000ae70       ?VTFromRegType@CRegParser@ATL@@KAHPEBGAEAG@Z 000000018000be70 f i BiQuadFilter.obj
 0001:0000af40       ?_AtlFinalConstruct@CComObjectRootBase@ATL@@QEAAJXZ 000000018000bf40 f i BiQuadFilter.obj
 0001:0000af50       ?_AtlGetConversionACP@ATL@@YAIXZ 000000018000bf50 f i BiQuadFilter.obj
 0001:0000af60       ?_AtlInitialConstruct@?$CComAggObject@VCInterAPOMFX@@@ATL@@QEAAJXZ 000000018000bf60 f i BiQuadFilter.obj
 0001:0000afb0       ?_AtlInitialConstruct@?$CComAggObject@VCInterAPOSFX@@@ATL@@QEAAJXZ 000000018000bfb0 f i BiQuadFilter.obj
 0001:0000b000       ?_AtlInitialConstruct@?$CComObjectRootEx@VCComMultiThreadModel@ATL@@@ATL@@QEAAJXZ 000000018000c000 f i BiQuadFilter.obj
 0001:0000b030       ?_AtlInitialConstruct@?$CComObjectRootEx@VCComMultiThreadModelNoCS@ATL@@@ATL@@QEAAJXZ 000000018000c030 f i BiQuadFilter.obj
 0001:0000b060       ?_AtlInitializeCriticalSectionEx@ATL@@YAHPEAU_RTL_CRITICAL_SECTION@@KK@Z 000000018000c060 f i BiQuadFilter.obj
 0001:0000b090       ?_AtlRaiseException@ATL@@YAXKK@Z 000000018000c090 f i BiQuadFilter.obj
 0001:0000b0c0       ?_GetEntries@CComClassFactory@ATL@@SAPEBU_ATL_INTMAP_ENTRY@2@XZ 000000018000c0c0 f i BiQuadFilter.obj
 0001:0000b0d0       ?_GetEntries@CInterAPOMFX@@SAPEBU_ATL_INTMAP_ENTRY@ATL@@XZ 000000018000c0d0 f i BiQuadFilter.obj
 0001:0000b0e0       ?_GetEntries@CInterAPOSFX@@SAPEBU_ATL_INTMAP_ENTRY@ATL@@XZ 000000018000c0e0 f i BiQuadFilter.obj
 0001:0000b0f0       ?_InternalQueryInterface@CComClassFactory@ATL@@QEAAJAEBU_GUID@@PEAPEAX@Z 000000018000c0f0 f i BiQuadFilter.obj
 0001:0000b130       ?_InternalQueryInterface@CInterAPOMFX@@QEAAJAEBU_GUID@@PEAPEAX@Z 000000018000c130 f i BiQuadFilter.obj
 0001:0000b170       ?_InternalQueryInterface@CInterAPOSFX@@QEAAJAEBU_GUID@@PEAPEAX@Z 000000018000c170 f i BiQuadFilter.obj
 0001:0000b1b0       ?memcpy_s@Checked@ATL@@YAXPEAX_KPEBX1@Z 000000018000c1b0 f i BiQuadFilter.obj
 0001:0000b1f0       ?ocscpy_s@@YA_NPEAG_KPEBG@Z 000000018000c1f0 f i BiQuadFilter.obj
 0001:0000b260       ?ocslen@@YAHPEBG@Z         000000018000c260 f i BiQuadFilter.obj
 0001:0000b290       ?tcsncpy_s@Checked@ATL@@YAHPEAG_KPEBG1@Z 000000018000c290 f i BiQuadFilter.obj
 0001:0000b2d0       ?wcsstr@@YAPEAGPEAGPEBG@Z  000000018000c2d0 f i BiQuadFilter.obj
 0001:0000b300       HRESULT_FROM_WIN32         000000018000c300 f i BiQuadFilter.obj
 0001:0000b340       InlineIsEqualGUID          000000018000c340 f i BiQuadFilter.obj
 0001:0000b400       WPP_SF_dggggg              000000018000c400 f i BiQuadFilter.obj
 0001:0000b4e0       WPP_SF_l                   000000018000c4e0 f i BiQuadFilter.obj
 0001:0000b7d0       DllGetClassObject          000000018000c7d0 f   InterAPODll.obj
 0001:0000b8c0       DllCanUnloadNow            000000018000c8c0 f   InterAPODll.obj
 0001:0000b970       DllRegisterServer          000000018000c970 f   InterAPODll.obj
 0001:0000ba40       DllUnregisterServer        000000018000ca40 f   InterAPODll.obj
 0001:0000bc50       WppCleanupUm               000000018000cc50 f   InterAPODll.obj
 0001:0000bce0       WppInitUm                  000000018000cce0 f   InterAPODll.obj
 0001:0000be10       WPP_Set_Dll_CB             000000018000ce10 f   InterAPODll.obj
 0001:0000be90       WppControlCallback         000000018000ce90 f   InterAPODll.obj
 0001:0000bf90       ?DllRegisterServer@CInterAPODllModule@@QEAAJH@Z 000000018000cf90 f   InterAPODll.obj
 0001:0000c220       ?DllUnregisterServer@CInterAPODllModule@@QEAAJH@Z 000000018000d220 f   InterAPODll.obj
 0001:0000c3c0       DllMain                    000000018000d3c0 f   InterAPODll.obj
 0001:0000c420       ??0?$CAtlDllModuleT@VCInterAPODllModule@@@ATL@@QEAA@XZ 000000018000d420 f i InterAPODll.obj
 0001:0000c450       ??0?$CAtlModuleT@VCInterAPODllModule@@@ATL@@QEAA@XZ 000000018000d450 f i InterAPODll.obj
 0001:0000c480       ??0?$CComCritSecLock@VCComCriticalSection@ATL@@@ATL@@QEAA@AEAVCComCriticalSection@1@_N@Z 000000018000d480 f i InterAPODll.obj
 0001:0000c4e0       ??0?$CComPtr@UICatRegister@@@ATL@@QEAA@XZ 000000018000d4e0 f i InterAPODll.obj
 0001:0000c500       ??0?$CComPtr@UITypeLib@@@ATL@@QEAA@XZ 000000018000d500 f i InterAPODll.obj
 0001:0000c520       ??0?$CComPtrBase@UICatRegister@@@ATL@@IEAA@XZ 000000018000d520 f i InterAPODll.obj
 0001:0000c540       ??0?$CComPtrBase@UITypeLib@@@ATL@@IEAA@XZ 000000018000d540 f i InterAPODll.obj
 0001:0000c560       ??0CAtlModule@ATL@@QEAA@XZ 000000018000d560 f i InterAPODll.obj
 0001:0000c5f0       ??0CComBSTR@ATL@@QEAA@XZ   000000018000d5f0 f i InterAPODll.obj
 0001:0000c610       ??0CInterAPODllModule@@QEAA@XZ 000000018000d610 f i InterAPODll.obj
 0001:0000c640       ??0CRegKey@ATL@@QEAA@PEAUHKEY__@@@Z 000000018000d640 f i InterAPODll.obj
 0001:0000c680       ??0_ATL_MODULE70@ATL@@QEAA@XZ 000000018000d680 f i InterAPODll.obj
 0001:0000c6b0       ??1?$CAtlDllModuleT@VCInterAPODllModule@@@ATL@@UEAA@XZ 000000018000d6b0 f i InterAPODll.obj
 0001:0000c6e0       ??1?$CAtlModuleT@VCInterAPODllModule@@@ATL@@UEAA@XZ 000000018000d6e0 f i InterAPODll.obj
 0001:0000c700       ??1?$CComCritSecLock@VCComCriticalSection@ATL@@@ATL@@QEAA@XZ 000000018000d700 f i InterAPODll.obj
 0001:0000c730       ??1?$CComPtr@UICatRegister@@@ATL@@QEAA@XZ 000000018000d730 f i InterAPODll.obj
 0001:0000c750       ??1?$CComPtr@UITypeLib@@@ATL@@QEAA@XZ 000000018000d750 f i InterAPODll.obj
 0001:0000c770       ??1?$CComPtrBase@UICatRegister@@@ATL@@QEAA@XZ 000000018000d770 f i InterAPODll.obj
 0001:0000c7c0       ??1?$CComPtrBase@UITypeLib@@@ATL@@QEAA@XZ 000000018000d7c0 f i InterAPODll.obj
 0001:0000c810       ??1CAtlModule@ATL@@UEAA@XZ 000000018000d810 f i InterAPODll.obj
 0001:0000c840       ??1CInterAPODllModule@@UEAA@XZ 000000018000d840 f i InterAPODll.obj
 0001:0000c860       ??1_ATL_MODULE70@ATL@@QEAA@XZ 000000018000d860 f i InterAPODll.obj
 0001:0000c890       ??7CComBSTR@ATL@@QEBA_NXZ  000000018000d890 f i InterAPODll.obj
 0001:0000c8c0       ??8CComBSTR@ATL@@QEBA_NH@Z 000000018000d8c0 f i InterAPODll.obj
 0001:0000c8e0       ??9CComBSTR@ATL@@QEBA_NH@Z 000000018000d8e0 f i InterAPODll.obj
 0001:0000c920       ??B?$CComPtrBase@UITypeLib@@@ATL@@QEBAPEAUITypeLib@@XZ 000000018000d920 f i InterAPODll.obj
 0001:0000c930       ??BCComBSTR@ATL@@QEBAPEAGXZ 000000018000d930 f i InterAPODll.obj
 0001:0000c940       ??C?$CComPtrBase@UICatRegister@@@ATL@@QEBAPEAV?$_NoAddRefReleaseOnCComPtr@UICatRegister@@@1@XZ 000000018000d940 f i InterAPODll.obj
 0001:0000c950       ??C?$CComPtrBase@UITypeLib@@@ATL@@QEBAPEAV?$_NoAddRefReleaseOnCComPtr@UITypeLib@@@1@XZ 000000018000d950 f i InterAPODll.obj
 0001:0000c960       ??I?$CComPtrBase@UICatRegister@@@ATL@@QEAAPEAPEAUICatRegister@@XZ 000000018000d960 f i InterAPODll.obj
 0001:0000c970       ??I?$CComPtrBase@UITypeLib@@@ATL@@QEAAPEAPEAUITypeLib@@XZ 000000018000d970 f i InterAPODll.obj
 0001:0000c980       ??ICComBSTR@ATL@@QEAAPEAPEAGXZ 000000018000d980 f i InterAPODll.obj
 0001:0000c990       ??_ECInterAPODllModule@@UEAAPEAXI@Z 000000018000d990 f i InterAPODll.obj
 0001:0000c990       ??_GCInterAPODllModule@@UEAAPEAXI@Z 000000018000d990 f i InterAPODll.obj
 0001:0000c9d0       ?AddCommonRGSReplacements@?$CAtlModuleT@VCInterAPODllModule@@@ATL@@UEAAJPEAUIRegistrarBase@@@Z 000000018000d9d0 f i InterAPODll.obj
 0001:0000ca20       ?AtlCallTermFunc@ATL@@YAXPEAU_ATL_MODULE70@1@@Z 000000018000da20 f i InterAPODll.obj
 0001:0000cad0       ?AtlComModuleGetClassObject@ATL@@YAJPEAU_ATL_COM_MODULE70@1@AEBU_GUID@@1PEAPEAX@Z 000000018000dad0 f i InterAPODll.obj
 0001:0000cd60       ?AtlComModuleRegisterServer@ATL@@YAJPEAU_ATL_COM_MODULE70@1@HPEBU_GUID@@@Z 000000018000dd60 f i InterAPODll.obj
 0001:0000cea0       ?AtlComModuleUnregisterServer@ATL@@YAJPEAU_ATL_COM_MODULE70@1@HPEBU_GUID@@@Z 000000018000dea0 f i InterAPODll.obj
 0001:0000cfd0       ?AtlLoadTypeLib@ATL@@YAJPEAUHINSTANCE__@@PEBGPEAPEAGPEAPEAUITypeLib@@@Z 000000018000dfd0 f i InterAPODll.obj
 0001:0000d400       ?AtlRegisterClassCategoriesHelper@ATL@@YAJAEBU_GUID@@PEBU_ATL_CATMAP_ENTRY@1@H@Z 000000018000e400 f i InterAPODll.obj
 0001:0000daf0       ?AtlRegisterTypeLib@ATL@@YAJPEAUHINSTANCE__@@PEBG@Z 000000018000eaf0 f i InterAPODll.obj
 0001:0000de70       ?AtlUnRegisterTypeLib@ATL@@YAJPEAUHINSTANCE__@@PEBG@Z 000000018000ee70 f i InterAPODll.obj
 0001:0000e0f0       ?DllCanUnloadNow@?$CAtlDllModuleT@VCInterAPODllModule@@@ATL@@QEAAJXZ 000000018000f0f0 f i InterAPODll.obj
 0001:0000e150       ?DllGetClassObject@?$CAtlDllModuleT@VCInterAPODllModule@@@ATL@@QEAAJAEBU_GUID@@0PEAPEAX@Z 000000018000f150 f i InterAPODll.obj
 0001:0000e1a0       ?DllMain@?$CAtlDllModuleT@VCInterAPODllModule@@@ATL@@QEAAHKPEAX@Z 000000018000f1a0 f i InterAPODll.obj
 0001:0000e1d0       ?DllRegisterServer@?$CAtlDllModuleT@VCInterAPODllModule@@@ATL@@QEAAJH@Z 000000018000f1d0 f i InterAPODll.obj
 0001:0000e240       ?ExecuteObjectMain@CAtlComModule@ATL@@QEAAX_N@Z 000000018000f240 f i InterAPODll.obj
 0001:0000e2c0       ?GetAppId@CInterAPODllModule@@SAPEBGXZ 000000018000f2c0 f i InterAPODll.obj
 0001:0000e2d0       ?GetClassObject@?$CAtlDllModuleT@VCInterAPODllModule@@@ATL@@QEAAJAEBU_GUID@@0PEAPEAX@Z 000000018000f2d0 f i InterAPODll.obj
 0001:0000e310       ?GetGITPtr@CAtlModule@ATL@@UEAAJPEAPEAUIGlobalInterfaceTable@@@Z 000000018000f310 f i InterAPODll.obj
 0001:0000e3d0       ?GetLockCount@CAtlModule@ATL@@UEAAJXZ 000000018000f3d0 f i InterAPODll.obj
 0001:0000e3e0       ?InitLibId@CInterAPODllModule@@SAXXZ 000000018000f3e0 f i InterAPODll.obj
 0001:0000e410       ?Length@CComBSTR@ATL@@QEBAIXZ 000000018000f410 f i InterAPODll.obj
 0001:0000e430       ?Lock@?$CComCritSecLock@VCComCriticalSection@ATL@@@ATL@@QEAAJXZ 000000018000f430 f i InterAPODll.obj
 0001:0000e480       ?Lock@CAtlModule@ATL@@UEAAJXZ 000000018000f480 f i InterAPODll.obj
 0001:0000e4b0       ?OLE2T_EX@@YAPEAGPEAGI@Z   000000018000f4b0 f i InterAPODll.obj
 0001:0000e4d0       ?RegisterAppId@?$CAtlModuleT@VCInterAPODllModule@@@ATL@@QEAAJXZ 000000018000f4d0 f i InterAPODll.obj
 0001:0000e4f0       ?RegisterServer@?$CAtlModuleT@VCInterAPODllModule@@@ATL@@QEAAJHPEBU_GUID@@@Z 000000018000f4f0 f i InterAPODll.obj
 0001:0000e570       ?RegisterServer@CAtlComModule@ATL@@QEAAJHPEBU_GUID@@@Z 000000018000f570 f i InterAPODll.obj
 0001:0000e5a0       ?Term@CAtlModule@ATL@@QEAAXXZ 000000018000f5a0 f i InterAPODll.obj
 0001:0000e660       ?Unlock@?$CComCritSecLock@VCComCriticalSection@ATL@@@ATL@@QEAAXXZ 000000018000f660 f i InterAPODll.obj
 0001:0000e690       ?Unlock@CAtlModule@ATL@@UEAAJXZ 000000018000f690 f i InterAPODll.obj
 0001:0000e6c0       ?UnregisterServer@?$CAtlModuleT@VCInterAPODllModule@@@ATL@@QEAAJHPEBU_GUID@@@Z 000000018000f6c0 f i InterAPODll.obj
 0001:0000e730       ?UnregisterServer@CAtlComModule@ATL@@QEAAJHPEBU_GUID@@@Z 000000018000f730 f i InterAPODll.obj
 0001:0000e760       ?UpdateRegistryAppId@CInterAPODllModule@@SAJH@Z 000000018000f760 f i InterAPODll.obj
 0001:0000e7e0       ?_DllMain@?$CAtlDllModuleT@VCInterAPODllModule@@@ATL@@QEAAHKPEAX@Z 000000018000f7e0 f i InterAPODll.obj
 0001:0000e810       ?wcscat_s@Checked@ATL@@YAXPEAG_KPEBG@Z 000000018000f810 f i InterAPODll.obj
 0001:0000e850       ?wcscpy_s@Checked@ATL@@YAXPEAG_KPEBG@Z 000000018000f850 f i InterAPODll.obj
 0001:0000e890       ?wcsncpy_s@Checked@ATL@@YAHPEAG_KPEBG1@Z 000000018000f890 f i InterAPODll.obj
 0001:0000e8d0       IsEqualGUID                000000018000f8d0 f i InterAPODll.obj
 0001:0000e920       WPP_CONTROL_ANNOTATION     000000018000f920 f i InterAPODll.obj
 0001:0000e930       WPP_INIT_CONTROL_ARRAY     000000018000f930 f i InterAPODll.obj
 0001:0000e9c0       WPP_INIT_GUID_ARRAY        000000018000f9c0 f i InterAPODll.obj
 0001:0000e9f0       WPP_SF_                    000000018000f9f0 f i InterAPODll.obj
 0001:0000ea30       WPP_SF__guid__guid_D       000000018000fa30 f i InterAPODll.obj
 0001:0000eac0       WPP_SF_d                   000000018000fac0 f i InterAPODll.obj
 0001:0000eb20       WPP_SF_ss                  000000018000fb20 f i InterAPODll.obj
 0001:0000eee0       ?GetCurrentEffectsSetting@@YAJPEAUIPropertyStore@@U_tagpropertykey@@U_GUID@@@Z 000000018000fee0 f   InterAPOMFX.obj
 0001:0000f210       ??1CInterAPOMFX@@UEAA@XZ   0000000180010210 f   InterAPOMFX.obj
 0001:0000f480       ?GetLatency@CInterAPOMFX@@UEAAJPEA_J@Z 0000000180010480 f   InterAPOMFX.obj
 0001:0000f5e0       ?LockForProcess@CInterAPOMFX@@UEAAJIPEAPEAUAPO_CONNECTION_DESCRIPTOR@@I0@Z 00000001800105e0 f   InterAPOMFX.obj
 0001:0000f820       ?Initialize@CInterAPOMFX@@UEAAJIPEAE@Z 0000000180010820 f   InterAPOMFX.obj
 0001:00010010       ?GetEffectsList@CInterAPOMFX@@UEAAJPEAPEAU_GUID@@PEAIPEAX@Z 0000000180011010 f   InterAPOMFX.obj
 0001:00010540       ?ValidateAndCacheConnectionInfo@CInterAPOMFX@@UEAAJIPEAPEAUAPO_CONNECTION_DESCRIPTOR@@I0@Z 0000000180011540 f   InterAPOMFX.obj
 0001:000108f0       ?OnPropertyValueChanged@CInterAPOMFX@@UEAAJPEBGU_tagpropertykey@@@Z 00000001800118f0 f   InterAPOMFX.obj
 0001:000110f0       ?GetFormatCount@CInterAPOMFX@@UEAAJPEAI@Z 00000001800120f0 f   InterAPOMFX.obj
 0001:000111c0       ?GetFormat@CInterAPOMFX@@UEAAJIPEAPEAUIAudioMediaType@@@Z 00000001800121c0 f   InterAPOMFX.obj
 0001:000112e0       ?GetFormatRepresentation@CInterAPOMFX@@UEAAJIPEAPEAG@Z 00000001800122e0 f   InterAPOMFX.obj
 0001:000114f0       ?IsOutputFormatSupported@CInterAPOMFX@@UEAAJPEAUIAudioMediaType@@0PEAPEAU2@@Z 00000001800124f0 f   InterAPOMFX.obj
 0001:00011850       ?CheckCustomFormats@CInterAPOMFX@@QEAAJPEAUIAudioMediaType@@@Z 0000000180012850 f   InterAPOMFX.obj
 0001:00011b10       ?ProprietaryCommunicationWithDriver@CInterAPOMFX@@AEAAJPEAUAPOInitSystemEffects2@@@Z 0000000180012b10 f   InterAPOMFX.obj
 0001:000121a0       !=                         00000001800131a0 f i InterAPOMFX.obj
 0001:000121f0       ==                         00000001800131f0 f i InterAPOMFX.obj
 0001:00012230       ??0?$CComHeapPtr@UKSMULTIPLE_ITEM@@@ATL@@QEAA@XZ 0000000180013230 f i InterAPOMFX.obj
 0001:00012250       ??0?$CComPtr@UIAudioMediaType@@@ATL@@QEAA@XZ 0000000180013250 f i InterAPOMFX.obj
 0001:00012270       ??0?$CComPtr@UIConnector@@@ATL@@QEAA@XZ 0000000180013270 f i InterAPOMFX.obj
 0001:00012290       ??0?$CComPtr@UIDeviceTopology@@@ATL@@QEAA@XZ 0000000180013290 f i InterAPOMFX.obj
 0001:000122b0       ??0?$CComPtr@UIKsControl@@@ATL@@QEAA@XZ 00000001800132b0 f i InterAPOMFX.obj
 0001:000122d0       ??0?$CComPtr@UIMMDevice@@@ATL@@QEAA@XZ 00000001800132d0 f i InterAPOMFX.obj
 0001:000122f0       ??0?$CComPtr@UIPart@@@ATL@@QEAA@XZ 00000001800132f0 f i InterAPOMFX.obj
 0001:00012310       ??0?$CComPtr@UIPropertyStore@@@ATL@@QEAA@PEAUIPropertyStore@@@Z 0000000180013310 f i InterAPOMFX.obj
 0001:00012340       ??0?$CComPtrBase@UIAudioMediaType@@@ATL@@IEAA@XZ 0000000180013340 f i InterAPOMFX.obj
 0001:00012360       ??0?$CComPtrBase@UIConnector@@@ATL@@IEAA@XZ 0000000180013360 f i InterAPOMFX.obj
 0001:00012380       ??0?$CComPtrBase@UIDeviceTopology@@@ATL@@IEAA@XZ 0000000180013380 f i InterAPOMFX.obj
 0001:000123a0       ??0?$CComPtrBase@UIKsControl@@@ATL@@IEAA@XZ 00000001800133a0 f i InterAPOMFX.obj
 0001:000123c0       ??0?$CComPtrBase@UIMMDevice@@@ATL@@IEAA@XZ 00000001800133c0 f i InterAPOMFX.obj
 0001:000123e0       ??0?$CComPtrBase@UIPart@@@ATL@@IEAA@XZ 00000001800133e0 f i InterAPOMFX.obj
 0001:00012400       ??0?$CComPtrBase@UIPropertyStore@@@ATL@@IEAA@PEAUIPropertyStore@@@Z 0000000180013400 f i InterAPOMFX.obj
 0001:00012460       ??0?$CHeapPtr@UKSMULTIPLE_ITEM@@VCComAllocator@ATL@@@ATL@@QEAA@XZ 0000000180013460 f i InterAPOMFX.obj
 0001:00012480       ??0?$CHeapPtrBase@UKSMULTIPLE_ITEM@@VCComAllocator@ATL@@@ATL@@IEAA@XZ 0000000180013480 f i InterAPOMFX.obj
 0001:000124a0       ??0?$CRegAPOProperties@$00@@QEAA@AEBU_GUID@@PEBG1II0W4APO_FLAG@@IIIIIZZ 00000001800134a0 f i InterAPOMFX.obj
 0001:000126e0       ??1?$CComHeapPtr@M@ATL@@QEAA@XZ 00000001800136e0 f i InterAPOMFX.obj
 0001:00012700       ??1?$CComHeapPtr@UKSMULTIPLE_ITEM@@@ATL@@QEAA@XZ 0000000180013700 f i InterAPOMFX.obj
 0001:00012720       ??1?$CComPtr@UIAudioMediaType@@@ATL@@QEAA@XZ 0000000180013720 f i InterAPOMFX.obj
 0001:00012740       ??1?$CComPtr@UIConnector@@@ATL@@QEAA@XZ 0000000180013740 f i InterAPOMFX.obj
 0001:00012760       ??1?$CComPtr@UIDeviceTopology@@@ATL@@QEAA@XZ 0000000180013760 f i InterAPOMFX.obj
 0001:00012780       ??1?$CComPtr@UIKsControl@@@ATL@@QEAA@XZ 0000000180013780 f i InterAPOMFX.obj
 0001:000127a0       ??1?$CComPtr@UIMMDevice@@@ATL@@QEAA@XZ 00000001800137a0 f i InterAPOMFX.obj
 0001:000127c0       ??1?$CComPtr@UIMMDeviceEnumerator@@@ATL@@QEAA@XZ 00000001800137c0 f i InterAPOMFX.obj
 0001:000127e0       ??1?$CComPtr@UIPart@@@ATL@@QEAA@XZ 00000001800137e0 f i InterAPOMFX.obj
 0001:00012800       ??1?$CComPtr@UIPropertyStore@@@ATL@@QEAA@XZ 0000000180013800 f i InterAPOMFX.obj
 0001:00012820       ??1?$CComPtrBase@UIAudioMediaType@@@ATL@@QEAA@XZ 0000000180013820 f i InterAPOMFX.obj
 0001:00012870       ??1?$CComPtrBase@UIConnector@@@ATL@@QEAA@XZ 0000000180013870 f i InterAPOMFX.obj
 0001:000128c0       ??1?$CComPtrBase@UIDeviceTopology@@@ATL@@QEAA@XZ 00000001800138c0 f i InterAPOMFX.obj
 0001:00012910       ??1?$CComPtrBase@UIKsControl@@@ATL@@QEAA@XZ 0000000180013910 f i InterAPOMFX.obj
 0001:00012960       ??1?$CComPtrBase@UIMMDevice@@@ATL@@QEAA@XZ 0000000180013960 f i InterAPOMFX.obj
 0001:000129b0       ??1?$CComPtrBase@UIMMDeviceEnumerator@@@ATL@@QEAA@XZ 00000001800139b0 f i InterAPOMFX.obj
 0001:00012a00       ??1?$CComPtrBase@UIPart@@@ATL@@QEAA@XZ 0000000180013a00 f i InterAPOMFX.obj
 0001:00012a50       ??1?$CComPtrBase@UIPropertyStore@@@ATL@@QEAA@XZ 0000000180013a50 f i InterAPOMFX.obj
 0001:00012aa0       ??1?$CHeapPtr@MVCComAllocator@ATL@@@ATL@@QEAA@XZ 0000000180013aa0 f i InterAPOMFX.obj
 0001:00012ac0       ??1?$CHeapPtr@UKSMULTIPLE_ITEM@@VCComAllocator@ATL@@@ATL@@QEAA@XZ 0000000180013ac0 f i InterAPOMFX.obj
 0001:00012ae0       ??1?$CHeapPtrBase@MVCComAllocator@ATL@@@ATL@@QEAA@XZ 0000000180013ae0 f i InterAPOMFX.obj
 0001:00012b00       ??1?$CHeapPtrBase@UKSMULTIPLE_ITEM@@VCComAllocator@ATL@@@ATL@@QEAA@XZ 0000000180013b00 f i InterAPOMFX.obj
 0001:00012b20       ??1BiQuadFilter@@QEAA@XZ   0000000180013b20 f i InterAPOMFX.obj
 0001:00012b30       ??1CCriticalSection@ATL@@QEAA@XZ 0000000180013b30 f i InterAPOMFX.obj
 0001:00012b50       ??1GraphicEqualizer@@QEAA@XZ 0000000180013b50 f i InterAPOMFX.obj
 0001:00012ba0       ??4?$CComPtr@UIPropertyStore@@@ATL@@QEAAPEAUIPropertyStore@@PEAU2@@Z 0000000180013ba0 f i InterAPOMFX.obj
 0001:00012c00       ??7?$CComPtrBase@UIPropertyStore@@@ATL@@QEBA_NXZ 0000000180013c00 f i InterAPOMFX.obj
 0001:00012c30       ??8?$CComPtrBase@UIMMDeviceEnumerator@@@ATL@@QEBA_NPEAUIMMDeviceEnumerator@@@Z 0000000180013c30 f i InterAPOMFX.obj
 0001:00012c70       ??8?$CComPtrBase@UIPropertyStore@@@ATL@@QEBA_NPEAUIPropertyStore@@@Z 0000000180013c70 f i InterAPOMFX.obj
 0001:00012cb0       ??9?$CComPtrBase@UIMMDeviceEnumerator@@@ATL@@QEBA_NPEAUIMMDeviceEnumerator@@@Z 0000000180013cb0 f i InterAPOMFX.obj
 0001:00012d00       ??9?$CComPtrBase@UIPropertyStore@@@ATL@@QEBA_NPEAUIPropertyStore@@@Z 0000000180013d00 f i InterAPOMFX.obj
 0001:00012d50       ??B?$CComPtrBase@UIPropertyStore@@@ATL@@QEBAPEAUIPropertyStore@@XZ 0000000180013d50 f i InterAPOMFX.obj
 0001:00012d60       ??B?$CHeapPtrBase@MVCComAllocator@ATL@@@ATL@@QEBAPEAMXZ 0000000180013d60 f i InterAPOMFX.obj
 0001:00012d70       ??B?$CHeapPtrBase@UKSMULTIPLE_ITEM@@VCComAllocator@ATL@@@ATL@@QEBAPEAUKSMULTIPLE_ITEM@@XZ 0000000180013d70 f i InterAPOMFX.obj
 0001:00012d80       ??C?$CComPtrBase@UIConnector@@@ATL@@QEBAPEAV?$_NoAddRefReleaseOnCComPtr@UIConnector@@@1@XZ 0000000180013d80 f i InterAPOMFX.obj
 0001:00012d90       ??C?$CComPtrBase@UIDeviceTopology@@@ATL@@QEBAPEAV?$_NoAddRefReleaseOnCComPtr@UIDeviceTopology@@@1@XZ 0000000180013d90 f i InterAPOMFX.obj
 0001:00012da0       ??C?$CComPtrBase@UIKsControl@@@ATL@@QEBAPEAV?$_NoAddRefReleaseOnCComPtr@UIKsControl@@@1@XZ 0000000180013da0 f i InterAPOMFX.obj
 0001:00012db0       ??C?$CComPtrBase@UIMMDevice@@@ATL@@QEBAPEAV?$_NoAddRefReleaseOnCComPtr@UIMMDevice@@@1@XZ 0000000180013db0 f i InterAPOMFX.obj
 0001:00012dc0       ??C?$CComPtrBase@UIMMDeviceEnumerator@@@ATL@@QEBAPEAV?$_NoAddRefReleaseOnCComPtr@UIMMDeviceEnumerator@@@1@XZ 0000000180013dc0 f i InterAPOMFX.obj
 0001:00012dd0       ??C?$CComPtrBase@UIPart@@@ATL@@QEBAPEAV?$_NoAddRefReleaseOnCComPtr@UIPart@@@1@XZ 0000000180013dd0 f i InterAPOMFX.obj
 0001:00012de0       ??I?$CComPtrBase@UIConnector@@@ATL@@QEAAPEAPEAUIConnector@@XZ 0000000180013de0 f i InterAPOMFX.obj
 0001:00012df0       ??I?$CComPtrBase@UIDeviceTopology@@@ATL@@QEAAPEAPEAUIDeviceTopology@@XZ 0000000180013df0 f i InterAPOMFX.obj
 0001:00012e00       ??I?$CComPtrBase@UIKsControl@@@ATL@@QEAAPEAPEAUIKsControl@@XZ 0000000180013e00 f i InterAPOMFX.obj
 0001:00012e10       ??I?$CComPtrBase@UIMMDevice@@@ATL@@QEAAPEAPEAUIMMDevice@@XZ 0000000180013e10 f i InterAPOMFX.obj
 0001:00012e20       ??I?$CComPtrBase@UIPart@@@ATL@@QEAAPEAPEAUIPart@@XZ 0000000180013e20 f i InterAPOMFX.obj
 0001:00012e30       ?Allocate@?$CHeapPtr@MVCComAllocator@ATL@@@ATL@@QEAA_N_K@Z 0000000180013e30 f i InterAPOMFX.obj
 0001:00012eb0       ?Allocate@CComAllocator@ATL@@SAPEAX_K@Z 0000000180013eb0 f i InterAPOMFX.obj
 0001:00012ee0       ?AllocateBytes@?$CHeapPtrBase@MVCComAllocator@ATL@@@ATL@@QEAA_N_K@Z 0000000180013ee0 f i InterAPOMFX.obj
 0001:00012f20       ?AllocateBytes@?$CHeapPtrBase@UKSMULTIPLE_ITEM@@VCComAllocator@ATL@@@ATL@@QEAA_N_K@Z 0000000180013f20 f i InterAPOMFX.obj
 0001:00012f60       ?CoCreateInstance@?$CComPtrBase@UIMMDeviceEnumerator@@@ATL@@QEAAJAEBU_GUID@@PEAUIUnknown@@K@Z 0000000180013f60 f i InterAPOMFX.obj
 0001:00012fb0       ?Enter@CCriticalSection@ATL@@QEAAXXZ 0000000180013fb0 f i InterAPOMFX.obj
 0001:00012fd0       ?Free@?$CHeapPtrBase@MVCComAllocator@ATL@@@ATL@@QEAAXXZ 0000000180013fd0 f i InterAPOMFX.obj
 0001:00013000       ?Free@?$CHeapPtrBase@UKSMULTIPLE_ITEM@@VCComAllocator@ATL@@@ATL@@QEAAXXZ 0000000180014000 f i InterAPOMFX.obj
 0001:00013030       ?Free@CComAllocator@ATL@@SAXPEAX@Z 0000000180014030 f i InterAPOMFX.obj
 0001:00013050       ?Leave@CCriticalSection@ATL@@QEAAXXZ 0000000180014050 f i InterAPOMFX.obj
 0001:00013070       ?StringCbCopyW@@YAJPEAG_KPEBG@Z 0000000180014070 f i InterAPOMFX.obj
 0001:00013100       ?Swap@?$CComPtrBase@UIPropertyStore@@@ATL@@IEAAXAEAV12@@Z 0000000180014100 f i InterAPOMFX.obj
 0001:00013140       PropVariantInit            0000000180014140 f i InterAPOMFX.obj
 0001:00013170       WPP_SF_L                   0000000180014170 f i InterAPOMFX.obj
 0001:000131d0       WPP_SF_LL                  00000001800141d0 f i InterAPOMFX.obj
 0001:00013240       WPP_SF_LLL                 0000000180014240 f i InterAPOMFX.obj
 0001:000132d0       WPP_SF_LLg                 00000001800142d0 f i InterAPOMFX.obj
 0001:00013360       WPP_SF_Ld                  0000000180014360 f i InterAPOMFX.obj
 0001:000133d0       WPP_SF_LsL                 00000001800143d0 f i InterAPOMFX.obj
 0001:000134b0       WPP_SF__guid_D_guid_       00000001800144b0 f i InterAPOMFX.obj
 0001:00013540       WPP_SF__guid_l             0000000180014540 f i InterAPOMFX.obj
 0001:000135b0       WPP_SF_d_guid_ll           00000001800145b0 f i InterAPOMFX.obj
 0001:00013660       WPP_SF_dll                 0000000180014660 f i InterAPOMFX.obj
 0001:000136f0       WPP_SF_dlllll              00000001800146f0 f i InterAPOMFX.obj
 0001:000137d0       WPP_SF_dllllll             00000001800147d0 f i InterAPOMFX.obj
 0001:000138d0       WPP_SF_id                  00000001800148d0 f i InterAPOMFX.obj
 0001:00013940       WPP_SF_lLd                 0000000180014940 f i InterAPOMFX.obj
 0001:000139d0       WPP_SF_lll                 00000001800149d0 f i InterAPOMFX.obj
 0001:00013a60       WPP_SF_q                   0000000180014a60 f i InterAPOMFX.obj
 0001:00013d60       ??1CInterAPOSFX@@UEAA@XZ   0000000180014d60 f   InterAPOSFX.obj
 0001:00013f70       ?GetLatency@CInterAPOSFX@@UEAAJPEA_J@Z 0000000180014f70 f   InterAPOSFX.obj
 0001:000140d0       ?LockForProcess@CInterAPOSFX@@UEAAJIPEAPEAUAPO_CONNECTION_DESCRIPTOR@@I0@Z 00000001800150d0 f   InterAPOSFX.obj
 0001:00014310       ?Initialize@CInterAPOSFX@@UEAAJIPEAE@Z 0000000180015310 f   InterAPOSFX.obj
 0001:00014c90       ?GetEffectsList@CInterAPOSFX@@UEAAJPEAPEAU_GUID@@PEAIPEAX@Z 0000000180015c90 f   InterAPOSFX.obj
 0001:000151c0       ?OnPropertyValueChanged@CInterAPOSFX@@UEAAJPEBGU_tagpropertykey@@@Z 00000001800161c0 f   InterAPOSFX.obj
 0001:000159b6       DecodePointer              00000001800169b6 f   onecoreuap:KERNEL32.dll
 0001:000159bc       RaiseException             00000001800169bc f   onecoreuap:KERNEL32.dll
 0001:000159c2       GetLastError               00000001800169c2 f   onecoreuap:KERNEL32.dll
 0001:000159c8       EnterCriticalSection       00000001800169c8 f   onecoreuap:KERNEL32.dll
 0001:000159ce       LeaveCriticalSection       00000001800169ce f   onecoreuap:KERNEL32.dll
 0001:000159d4       InitializeCriticalSectionEx 00000001800169d4 f   onecoreuap:KERNEL32.dll
 0001:000159da       DeleteCriticalSection      00000001800169da f   onecoreuap:KERNEL32.dll
 0001:000159e0       FreeLibrary                00000001800169e0 f   onecoreuap:KERNEL32.dll
 0001:000159e6       GetModuleFileNameW         00000001800169e6 f   onecoreuap:KERNEL32.dll
 0001:000159ec       GetModuleHandleW           00000001800169ec f   onecoreuap:KERNEL32.dll
 0001:000159f2       GetProcAddress             00000001800169f2 f   onecoreuap:KERNEL32.dll
 0001:000159f8       LoadLibraryExW             00000001800169f8 f   onecoreuap:KERNEL32.dll
 0001:000159fe       LoadResource               00000001800169fe f   onecoreuap:KERNEL32.dll
 0001:00015a04       SizeofResource             0000000180016a04 f   onecoreuap:KERNEL32.dll
 0001:00015a0a       FindResourceW              0000000180016a0a f   onecoreuap:KERNEL32.dll
 0001:00015a10       lstrcmpiW                  0000000180016a10 f   onecoreuap:KERNEL32.dll
 0001:00015a16       CharNextW                  0000000180016a16 f   onecoreuap:USER32.dll
 0001:00015a1c       MultiByteToWideChar        0000000180016a1c f   onecoreuap:KERNEL32.dll
 0001:00015a22       RegCloseKey                0000000180016a22 f   onecoreuap:ADVAPI32.dll
 0001:00015a28       RegCreateKeyExW            0000000180016a28 f   onecoreuap:ADVAPI32.dll
 0001:00015a2e       RegDeleteKeyW              0000000180016a2e f   onecoreuap:ADVAPI32.dll
 0001:00015a34       RegDeleteValueW            0000000180016a34 f   onecoreuap:ADVAPI32.dll
 0001:00015a3a       RegEnumKeyExW              0000000180016a3a f   onecoreuap:ADVAPI32.dll
 0001:00015a40       RegOpenKeyExW              0000000180016a40 f   onecoreuap:ADVAPI32.dll
 0001:00015a46       RegQueryInfoKeyW           0000000180016a46 f   onecoreuap:ADVAPI32.dll
 0001:00015a4c       RegSetValueExW             0000000180016a4c f   onecoreuap:ADVAPI32.dll
 0001:00015a52       CoTaskMemAlloc             0000000180016a52 f   onecoreuap:ole32.dll
 0001:00015a58       CoTaskMemRealloc           0000000180016a58 f   onecoreuap:ole32.dll
 0001:00015a5e       CoTaskMemFree              0000000180016a5e f   onecoreuap:ole32.dll
 0001:00015a64       SysFreeString              0000000180016a64 f   onecoreuap:OLEAUT32.dll
 0001:00015a6a       VarUI4FromStr              0000000180016a6a f   onecoreuap:OLEAUT32.dll
 0001:00015a70       TraceMessage               0000000180016a70 f   onecoreuap:ADVAPI32.dll
 0001:00015a78       ReadNoFence64              0000000180016a78 f i onecoreuap:guard_support.obj
 0001:00015a80       ReadPointerNoFence         0000000180016a80 f i onecoreuap:guard_support.obj
 0001:00015a88       __castguard_check_failure_debugbreak 0000000180016a88 f i onecoreuap:guard_support.obj
 0001:00015aa4       __castguard_check_failure_fastfail 0000000180016aa4 f i onecoreuap:guard_support.obj
 0001:00015ac8       __castguard_check_failure_nop 0000000180016ac8 f i onecoreuap:guard_support.obj
 0001:00015acc       __castguard_check_failure_os_handled 0000000180016acc f i onecoreuap:guard_support.obj
 0001:00015b50       __castguard_slow_path_check_debugbreak 0000000180016b50 f i onecoreuap:guard_support.obj
 0001:00015b88       __castguard_slow_path_check_fastfail 0000000180016b88 f i onecoreuap:guard_support.obj
 0001:00015bc4       __castguard_slow_path_check_nop 0000000180016bc4 f i onecoreuap:guard_support.obj
 0001:00015bc8       __castguard_slow_path_check_os_handled 0000000180016bc8 f i onecoreuap:guard_support.obj
 0001:00015c3c       _guard_icall_checks_enforced 0000000180016c3c f i onecoreuap:guard_support.obj
 0001:00015c54       _guard_rf_checks_enforced  0000000180016c54 f i onecoreuap:guard_support.obj
 0001:00015c58       EncodePointer              0000000180016c58 f   onecoreuap:KERNEL32.dll
 0001:00015c5e       GetCurrentProcessId        0000000180016c5e f   onecoreuap:KERNEL32.dll
 0001:00015c64       GetThreadLocale            0000000180016c64 f   onecoreuap:KERNEL32.dll
 0001:00015c6a       SetThreadLocale            0000000180016c6a f   onecoreuap:KERNEL32.dll
 0001:00015c70       CoCreateInstance           0000000180016c70 f   onecoreuap:ole32.dll
 0001:00015c76       StringFromGUID2            0000000180016c76 f   onecoreuap:ole32.dll
 0001:00015c7c       SysAllocString             0000000180016c7c f   onecoreuap:OLEAUT32.dll
 0001:00015c82       SysStringLen               0000000180016c82 f   onecoreuap:OLEAUT32.dll
 0001:00015c88       LoadTypeLib                0000000180016c88 f   onecoreuap:OLEAUT32.dll
 0001:00015c8e       RegisterTypeLib            0000000180016c8e f   onecoreuap:OLEAUT32.dll
 0001:00015c94       UnRegisterTypeLib          0000000180016c94 f   onecoreuap:OLEAUT32.dll
 0001:00015c9a       RegisterTraceGuidsW        0000000180016c9a f   onecoreuap:ADVAPI32.dll
 0001:00015ca0       UnregisterTraceGuids       0000000180016ca0 f   onecoreuap:ADVAPI32.dll
 0001:00015ca6       GetTraceLoggerHandle       0000000180016ca6 f   onecoreuap:ADVAPI32.dll
 0001:00015cac       GetTraceEnableLevel        0000000180016cac f   onecoreuap:ADVAPI32.dll
 0001:00015cb2       GetTraceEnableFlags        0000000180016cb2 f   onecoreuap:ADVAPI32.dll
 0001:00015cb8       CloseHandle                0000000180016cb8 f   onecoreuap:KERNEL32.dll
 0001:00015cbe       DuplicateHandle            0000000180016cbe f   onecoreuap:KERNEL32.dll
 0001:00015cc4       SetEvent                   0000000180016cc4 f   onecoreuap:KERNEL32.dll
 0001:00015cca       GetCurrentProcess          0000000180016cca f   onecoreuap:KERNEL32.dll
 0001:00015cd0       PropVariantClear           0000000180016cd0 f   onecoreuap:ole32.dll
 0001:00015ce0       _guard_check_icall_nop     0000000180016ce0 f i onecoreuap:guard_check.obj
 0001:00015cf0       ??0CBaseAudioProcessingObject@@QEAA@PEBUAPO_REG_PROPERTIES@@@Z 0000000180016cf0 f   AudioBaseProcessingObjectV140:baseaudioprocessingobject.obj
 0001:00015d28       ??0IAudioProcessingObject@@QEAA@XZ 0000000180016d28 f i AudioBaseProcessingObjectV140:baseaudioprocessingobject.obj
 0001:00015d2c       ??0IAudioProcessingObjectConfiguration@@QEAA@XZ 0000000180016d2c f i AudioBaseProcessingObjectV140:baseaudioprocessingobject.obj
 0001:00015d30       ??0IAudioProcessingObjectRT@@QEAA@XZ 0000000180016d30 f i AudioBaseProcessingObjectV140:baseaudioprocessingobject.obj
 0001:00015d34       ??1CBaseAudioProcessingObject@@UEAA@XZ 0000000180016d34 f   AudioBaseProcessingObjectV140:baseaudioprocessingobject.obj
 0001:00015d40       ?BuffersOverlap@CBaseAudioProcessingObject@@IEAA_NIPEAPEAUAPO_CONNECTION_DESCRIPTOR@@I0@Z 0000000180016d40 f   AudioBaseProcessingObjectV140:baseaudioprocessingobject.obj
 0001:00015ee0       ?CalcInputFrames@CBaseAudioProcessingObject@@UEAAII@Z 0000000180016ee0 f   AudioBaseProcessingObjectV140:baseaudioprocessingobject.obj
 0001:00015ef0       ?CalcOutputFrames@CBaseAudioProcessingObject@@UEAAII@Z 0000000180016ef0 f   AudioBaseProcessingObjectV140:baseaudioprocessingobject.obj
 0001:00015ef4       ?GetBytesPerSampleContainer@CBaseAudioProcessingObject@@IEAAIXZ 0000000180016ef4 f   AudioBaseProcessingObjectV140:baseaudioprocessingobject.obj
 0001:00015ef8       ?GetFramesPerSecond@CBaseAudioProcessingObject@@IEAAMXZ 0000000180016ef8 f   AudioBaseProcessingObjectV140:baseaudioprocessingobject.obj
 0001:00015f00       ?GetInputChannelCount@CBaseAudioProcessingObject@@UEAAJPEAI@Z 0000000180016f00 f   AudioBaseProcessingObjectV140:baseaudioprocessingobject.obj
 0001:00015f20       ?GetLatency@CBaseAudioProcessingObject@@UEAAJPEA_J@Z 0000000180016f20 f   AudioBaseProcessingObjectV140:baseaudioprocessingobject.obj
 0001:00015f40       ?GetRegistrationProperties@CBaseAudioProcessingObject@@UEAAJPEAPEAUAPO_REG_PROPERTIES@@@Z 0000000180016f40 f   AudioBaseProcessingObjectV140:baseaudioprocessingobject.obj
 0001:00015fcc       ?GetSamplesPerFrame@CBaseAudioProcessingObject@@IEAAIXZ 0000000180016fcc f   AudioBaseProcessingObjectV140:baseaudioprocessingobject.obj
 0001:00015fd0       ?GetValidBitsPerSample@CBaseAudioProcessingObject@@IEAAIXZ 0000000180016fd0 f   AudioBaseProcessingObjectV140:baseaudioprocessingobject.obj
 0001:00015fd4       ?Initialize@CBaseAudioProcessingObject@@UEAAJIPEAE@Z 0000000180016fd4 f   AudioBaseProcessingObjectV140:baseaudioprocessingobject.obj
 0001:00016000       ?IsFormatTypeSupported@CBaseAudioProcessingObject@@IEAAJPEAUIAudioMediaType@@0PEAPEAU2@_N@Z 0000000180017000 f   AudioBaseProcessingObjectV140:baseaudioprocessingobject.obj
 0001:000161b0       ?IsInputFormatSupported@CBaseAudioProcessingObject@@UEAAJPEAUIAudioMediaType@@0PEAPEAU2@@Z 00000001800171b0 f   AudioBaseProcessingObjectV140:baseaudioprocessingobject.obj
 0001:000161e0       ?IsOutputFormatSupported@CBaseAudioProcessingObject@@UEAAJPEAUIAudioMediaType@@0PEAPEAU2@@Z 00000001800171e0 f   AudioBaseProcessingObjectV140:baseaudioprocessingobject.obj
 0001:00016208       ?LockForProcess@CBaseAudioProcessingObject@@UEAAJIPEAPEAUAPO_CONNECTION_DESCRIPTOR@@I0@Z 0000000180017208 f   AudioBaseProcessingObjectV140:baseaudioprocessingobject.obj
 0001:00016690       ?Reset@CBaseAudioProcessingObject@@UEAAJXZ 0000000180017690 f   AudioBaseProcessingObjectV140:baseaudioprocessingobject.obj
 0001:000166a0       ?UnlockForProcess@CBaseAudioProcessingObject@@UEAAJXZ 00000001800176a0 f   AudioBaseProcessingObjectV140:baseaudioprocessingobject.obj
 0001:000166f0       ?ValidateAndCacheConnectionInfo@CBaseAudioProcessingObject@@MEAAJIPEAPEAUAPO_CONNECTION_DESCRIPTOR@@I0@Z 00000001800176f0 f   AudioBaseProcessingObjectV140:baseaudioprocessingobject.obj
 0001:000166f4       ?ValidateConnection@CBaseAudioProcessingObject@@IEAAJAEBU_UNCOMPRESSEDAUDIOFORMAT@@@Z 00000001800176f4 f   AudioBaseProcessingObjectV140:baseaudioprocessingobject.obj
 0001:00016740       ?ValidateDefaultAPOFormat@CBaseAudioProcessingObject@@MEAAJAEAU_UNCOMPRESSEDAUDIOFORMAT@@_N@Z 0000000180017740 f   AudioBaseProcessingObjectV140:baseaudioprocessingobject.obj
 0001:000167e0       ?ValidateInitializeParameters@CBaseAudioProcessingObject@@IEAAJIPEAEAEBU_GUID@@I@Z 00000001800177e0 f   AudioBaseProcessingObjectV140:baseaudioprocessingobject.obj
 0001:00016828       ??0?$TItem@UAPOHandle@@@@QEAA@XZ 0000000180017828 f i AudioBaseProcessingObjectV140:aporegistration.obj
 0001:0001683c       ??0?$TList@UAPOHandle@@@@QEAA@XZ 000000018001783c f i AudioBaseProcessingObjectV140:aporegistration.obj
 0001:0001684c       ??1?$TItem@UAPOHandle@@@@QEAA@XZ 000000018001784c f i AudioBaseProcessingObjectV140:aporegistration.obj
 0001:00016850       ??1?$TList@UAPOHandle@@@@QEAA@XZ 0000000180017850 f i AudioBaseProcessingObjectV140:aporegistration.obj
 0001:00016854       ??_G?$TItem@UAPOHandle@@@@QEAAPEAXI@Z 0000000180017854 f i AudioBaseProcessingObjectV140:aporegistration.obj
 0001:00016878       ?AddTail@?$TList@UAPOHandle@@@@QEAAPEAXPEAUAPOHandle@@@Z 0000000180017878 f i AudioBaseProcessingObjectV140:aporegistration.obj
 0001:000168e0       ?AddTailItem@?$TList@UAPOHandle@@@@IEAAXPEAV?$TItem@UAPOHandle@@@@@Z 00000001800178e0 f i AudioBaseProcessingObjectV140:aporegistration.obj
 0001:00016908       ?EnumerateAPO@@YAJPEAUHKEY__@@P6AJPEAUAPO_REG_PROPERTIES@@PEAX@Z2IAEAH@Z 0000000180017908 f   AudioBaseProcessingObjectV140:aporegistration.obj
 0001:00016bb8       ?GetAPOPropertiesInternal@@YAJPEAUHKEY__@@AEBU_GUID@@PEAUAPO_REG_PROPERTIES@@@Z 0000000180017bb8 f   AudioBaseProcessingObjectV140:aporegistration.obj
 0001:00016c90       ?GetApoRegKeyPath@@YAJPEAGIPEBG@Z 0000000180017c90 f   AudioBaseProcessingObjectV140:aporegistration.obj
 0001:00016d28       ?GetHeadPosition@?$TList@UAPOHandle@@@@QEBAPEAXXZ 0000000180017d28 f i AudioBaseProcessingObjectV140:aporegistration.obj
 0001:00016d2c       ?GetNext@?$TList@UAPOHandle@@@@QEBAHAEAPEAXPEAPEAUAPOHandle@@@Z 0000000180017d2c f i AudioBaseProcessingObjectV140:aporegistration.obj
 0001:00016d50       ?InnerGetAPOProperties@@YAJPEAUHKEY__@@AEBU_GUID@@PEAUAPO_REG_PROPERTIES@@@Z 0000000180017d50 f   AudioBaseProcessingObjectV140:aporegistration.obj
 0001:00016ea4       ?InnerGetCommon@@YAJPEAUHKEY__@@AEBU_GUID@@PEAUAPO_REG_PROPERTIES@@@Z 0000000180017ea4 f   AudioBaseProcessingObjectV140:aporegistration.obj
 0001:000171e8       ?IsAPOClsidRegistered@@YA_NPEAUHKEY__@@PEBG@Z 00000001800181e8 f   AudioBaseProcessingObjectV140:aporegistration.obj
 0001:0001726c       ?IsAPOClsidRegistered@@YA_NPEAUHKEY__@@U_GUID@@@Z 000000018001826c f   AudioBaseProcessingObjectV140:aporegistration.obj
 0001:000172d8       ?RemoveAt@?$TList@UAPOHandle@@@@QEAAXPEAX@Z 00000001800182d8 f i AudioBaseProcessingObjectV140:aporegistration.obj
 0001:000172f8       ?RemoveItemAt@?$TList@UAPOHandle@@@@IEAAPEAV?$TItem@UAPOHandle@@@@PEAX@Z 00000001800182f8 f i AudioBaseProcessingObjectV140:aporegistration.obj
 0001:00017334       ?StringCbPrintfW@@YAJPEAG_KPEBGZZ 0000000180018334 f i AudioBaseProcessingObjectV140:aporegistration.obj
 0001:00017380       ?StringCchLengthW@@YAJPEBG_KPEA_K@Z 0000000180018380 f i AudioBaseProcessingObjectV140:aporegistration.obj
 0001:000173e4       ?StringCchPrintfW@@YAJPEAG_KPEBGZZ 00000001800183e4 f i AudioBaseProcessingObjectV140:aporegistration.obj
 0001:00017590       EnumerateAPOs              0000000180018590 f   AudioBaseProcessingObjectV140:aporegistration.obj
 0001:0001762c       GetAPOProperties           000000018001862c f   AudioBaseProcessingObjectV140:aporegistration.obj
 0001:00017658       RegisterAPO                0000000180018658 f   AudioBaseProcessingObjectV140:aporegistration.obj
 0001:00017ae4       RegisterAPONotification    0000000180018ae4 f   AudioBaseProcessingObjectV140:aporegistration.obj
 0001:00017b7c       UnregisterAPO              0000000180018b7c f   AudioBaseProcessingObjectV140:aporegistration.obj
 0001:00017c44       UnregisterAPONotification  0000000180018c44 f   AudioBaseProcessingObjectV140:aporegistration.obj
 0001:00017ce0       __local_stdio_printf_options 0000000180018ce0 f i AudioBaseProcessingObjectV140:aporegistration.obj
 0001:00017ce8       _vsnwprintf                0000000180018ce8 f i AudioBaseProcessingObjectV140:aporegistration.obj
 0001:00017d4c       _vsnwprintf_l              0000000180018d4c f i AudioBaseProcessingObjectV140:aporegistration.obj
 0001:00017db4       ??0CAudioMediaType@@IEAA@XZ 0000000180018db4 f   audiomediatypecrt:audiomediatype.obj
 0001:00017dd0       ??0IAudioMediaType@@QEAA@XZ 0000000180018dd0 f i audiomediatypecrt:audiomediatype.obj
 0001:00017dd4       ??1CAudioMediaType@@MEAA@XZ 0000000180018dd4 f   audiomediatypecrt:audiomediatype.obj
 0001:00017e00       ??_ECAudioMediaType@@MEAAPEAXI@Z 0000000180018e00 f i audiomediatypecrt:audiomediatype.obj
 0001:00017e00       ??_GCAudioMediaType@@MEAAPEAXI@Z 0000000180018e00 f i audiomediatypecrt:audiomediatype.obj
 0001:00017e30       ?AddRef@CAudioMediaType@@UEAAKXZ 0000000180018e30 f   audiomediatypecrt:audiomediatype.obj
 0001:00017e40       ?Create@CAudioMediaType@@SAJPEBUtWAVEFORMATEX@@IPEAPEAUIAudioMediaType@@MH@Z 0000000180018e40 f   audiomediatypecrt:audiomediatype.obj
 0001:00017f18       ?FormatTagFromWfx@@YAGPEBUtWAVEFORMATEX@@@Z 0000000180018f18 f   audiomediatypecrt:audiomediatype.obj
 0001:00017f60       ?GetAudioFormat@CAudioMediaType@@UEAAPEBUtWAVEFORMATEX@@XZ 0000000180018f60 f   audiomediatypecrt:audiomediatype.obj
 0001:00017f70       ?GetUncompressedAudioFormat@CAudioMediaType@@UEAAJPEAU_UNCOMPRESSEDAUDIOFORMAT@@@Z 0000000180018f70 f   audiomediatypecrt:audiomediatype.obj
 0001:00018040       ?IsCompressedFormat@CAudioMediaType@@UEAAJPEAH@Z 0000000180019040 f i audiomediatypecrt:audiomediatype.obj
 0001:00018060       ?IsEqual@CAudioMediaType@@UEAAJPEAUIAudioMediaType@@PEAK@Z 0000000180019060 f   audiomediatypecrt:audiomediatype.obj
 0001:000182b0       ?IsValidExtensibleWfx@@YAHPEBUWAVEFORMATEXTENSIBLE@@@Z 00000001800192b0 f   audiomediatypecrt:audiomediatype.obj
 0001:000182cc       ?IsValidFloatWfx@@YAHPEBUtWAVEFORMATEX@@@Z 00000001800192cc f   audiomediatypecrt:audiomediatype.obj
 0001:0001833c       ?IsValidPcmWfx@@YAHPEBUtWAVEFORMATEX@@@Z 000000018001933c f   audiomediatypecrt:audiomediatype.obj
 0001:000183c0       ?QueryInterface@CAudioMediaType@@UEAAJAEBU_GUID@@PEAPEAX@Z 00000001800193c0 f   audiomediatypecrt:audiomediatype.obj
 0001:00018440       ?Release@CAudioMediaType@@UEAAKXZ 0000000180019440 f   audiomediatypecrt:audiomediatype.obj
 0001:0001847c       ?SetAudioFormat@CAudioMediaType@@IEAAJPEBUtWAVEFORMATEX@@IH@Z 000000018001947c f   audiomediatypecrt:audiomediatype.obj
 0001:000185bc       ?ULongAdd@@YAJKKPEAK@Z     00000001800195bc f i audiomediatypecrt:audiomediatype.obj
 0001:000185d4       ?ValidateWaveFormat@@YAHPEBUtWAVEFORMATEX@@@Z 00000001800195d4 f   audiomediatypecrt:audiomediatype.obj
 0001:00018640       CreateAudioMediaType       0000000180019640 f   audiomediatypecrt:audiomediatype.obj
 0001:00018658       CreateAudioMediaTypeFromUncompressedAudioFormat 0000000180019658 f   audiomediatypecrt:audiomediatype.obj
 0001:00018788       CreateAudioMediaType_Unsafe 0000000180019788 f   audiomediatypecrt:audiomediatype.obj
 0001:000187a1       AERT_Allocate              00000001800197a1 f   AudioEng:audioeng.dll
 0001:000187a7       AERT_Free                  00000001800197a7 f   AudioEng:audioeng.dll
 0001:000187b0       ??$?2PEAUHINSTANCE__@@@Wrapper@?$CSimpleArray@PEAUHINSTANCE__@@V?$CSimpleArrayEqualHelper@PEAUHINSTANCE__@@@ATL@@@ATL@@SAPEAX_KPEAPEAUHINSTANCE__@@@Z 00000001800197b0 f i atls:atlbase.obj
 0001:000187b4       ??0?$CSimpleArray@PEAUHINSTANCE__@@V?$CSimpleArrayEqualHelper@PEAUHINSTANCE__@@@ATL@@@ATL@@QEAA@XZ 00000001800197b4 f i atls:atlbase.obj
 0001:000187c4       ??0CAtlBaseModule@ATL@@QEAA@XZ 00000001800197c4 f   atls:atlbase.obj
 0001:0001886c       ??0Wrapper@?$CSimpleArray@PEAUHINSTANCE__@@V?$CSimpleArrayEqualHelper@PEAUHINSTANCE__@@@ATL@@@ATL@@QEAA@AEBQEAUHINSTANCE__@@@Z 000000018001986c f i atls:atlbase.obj
 0001:00018878       ??0_ATL_BASE_MODULE70@ATL@@QEAA@XZ 0000000180019878 f i atls:atlbase.obj
 0001:000188a4       ??1?$CSimpleArray@PEAUHINSTANCE__@@V?$CSimpleArrayEqualHelper@PEAUHINSTANCE__@@@ATL@@@ATL@@QEAA@XZ 00000001800198a4 f i atls:atlbase.obj
 0001:000188cc       ??1CAtlBaseModule@ATL@@QEAA@XZ 00000001800198cc f   atls:atlbase.obj
 0001:00018900       ??1_ATL_BASE_MODULE70@ATL@@QEAA@XZ 0000000180019900 f i atls:atlbase.obj
 0001:0001892c       ??A?$CSimpleArray@PEAUHINSTANCE__@@V?$CSimpleArrayEqualHelper@PEAUHINSTANCE__@@@ATL@@@ATL@@QEAAAEAPEAUHINSTANCE__@@H@Z 000000018001992c f i atls:atlbase.obj
 0001:00018958       ?Add@?$CSimpleArray@PEAUHINSTANCE__@@V?$CSimpleArrayEqualHelper@PEAUHINSTANCE__@@@ATL@@@ATL@@QEAAHAEBQEAUHINSTANCE__@@@Z 0000000180019958 f i atls:atlbase.obj
 0001:00018a00       ?AddResourceInstance@CAtlBaseModule@ATL@@QEAA_NPEAUHINSTANCE__@@@Z 0000000180019a00 f   atls:atlbase.obj
 0001:00018a48       ?GetHInstanceAt@CAtlBaseModule@ATL@@QEAAPEAUHINSTANCE__@@H@Z 0000000180019a48 f   atls:atlbase.obj
 0001:00018abc       ?GetSize@?$CSimpleArray@PEAUHINSTANCE__@@V?$CSimpleArrayEqualHelper@PEAUHINSTANCE__@@@ATL@@@ATL@@QEBAHXZ 0000000180019abc f i atls:atlbase.obj
 0001:00018ac0       ?InternalSetAtIndex@?$CSimpleArray@PEAUHINSTANCE__@@V?$CSimpleArrayEqualHelper@PEAUHINSTANCE__@@@ATL@@@ATL@@QEAAXHAEBQEAUHINSTANCE__@@@Z 0000000180019ac0 f i atls:atlbase.obj
 0001:00018ad8       ?RemoveAll@?$CSimpleArray@PEAUHINSTANCE__@@V?$CSimpleArrayEqualHelper@PEAUHINSTANCE__@@@ATL@@@ATL@@QEAAXXZ 0000000180019ad8 f i atls:atlbase.obj
 0001:00018b00       ?RemoveAt@?$CSimpleArray@PEAUHINSTANCE__@@V?$CSimpleArrayEqualHelper@PEAUHINSTANCE__@@@ATL@@@ATL@@QEAAHH@Z 0000000180019b00 f i atls:atlbase.obj
 0001:00018b9c       ?RemoveResourceInstance@CAtlBaseModule@ATL@@QEAA_NPEAUHINSTANCE__@@@Z 0000000180019b9c f   atls:atlbase.obj
 0001:00018c20       ?memmove_s@Checked@ATL@@YAXPEAX_KPEBX1@Z 0000000180019c20 f i atls:atlbase.obj
 0001:00018ccc       ??0?$CTraceCategoryEx@$00$0A@@ATL@@QEAA@PEB_W@Z 0000000180019ccc f i atls:stdafx.obj
 0001:00018cd0       ??0?$CTraceCategoryEx@$01$0A@@ATL@@QEAA@PEB_W@Z 0000000180019cd0 f i atls:stdafx.obj
 0001:00018cd4       ??0?$CTraceCategoryEx@$03$0A@@ATL@@QEAA@PEB_W@Z 0000000180019cd4 f i atls:stdafx.obj
 0001:00018cd8       ??0?$CTraceCategoryEx@$07$0A@@ATL@@QEAA@PEB_W@Z 0000000180019cd8 f i atls:stdafx.obj
 0001:00018cdc       ??0?$CTraceCategoryEx@$0BA@$0A@@ATL@@QEAA@PEB_W@Z 0000000180019cdc f i atls:stdafx.obj
 0001:00018ce0       ??0?$CTraceCategoryEx@$0BAA@$0A@@ATL@@QEAA@PEB_W@Z 0000000180019ce0 f i atls:stdafx.obj
 0001:00018ce4       ??0?$CTraceCategoryEx@$0BAAA@$0A@@ATL@@QEAA@PEB_W@Z 0000000180019ce4 f i atls:stdafx.obj
 0001:00018ce8       ??0?$CTraceCategoryEx@$0BAAAA@$0A@@ATL@@QEAA@PEB_W@Z 0000000180019ce8 f i atls:stdafx.obj
 0001:00018cec       ??0?$CTraceCategoryEx@$0BAAAAA@$0A@@ATL@@QEAA@PEB_W@Z 0000000180019cec f i atls:stdafx.obj
 0001:00018cf0       ??0?$CTraceCategoryEx@$0CA@$0A@@ATL@@QEAA@PEB_W@Z 0000000180019cf0 f i atls:stdafx.obj
 0001:00018cf4       ??0?$CTraceCategoryEx@$0CAA@$0A@@ATL@@QEAA@PEB_W@Z 0000000180019cf4 f i atls:stdafx.obj
 0001:00018cf8       ??0?$CTraceCategoryEx@$0CAAA@$0A@@ATL@@QEAA@PEB_W@Z 0000000180019cf8 f i atls:stdafx.obj
 0001:00018cfc       ??0?$CTraceCategoryEx@$0CAAAA@$0A@@ATL@@QEAA@PEB_W@Z 0000000180019cfc f i atls:stdafx.obj
 0001:00018d00       ??0?$CTraceCategoryEx@$0CAAAAA@$0A@@ATL@@QEAA@PEB_W@Z 0000000180019d00 f i atls:stdafx.obj
 0001:00018d04       ??0?$CTraceCategoryEx@$0EA@$0A@@ATL@@QEAA@PEB_W@Z 0000000180019d04 f i atls:stdafx.obj
 0001:00018d08       ??0?$CTraceCategoryEx@$0EAA@$0A@@ATL@@QEAA@PEB_W@Z 0000000180019d08 f i atls:stdafx.obj
 0001:00018d0c       ??0?$CTraceCategoryEx@$0EAAA@$0A@@ATL@@QEAA@PEB_W@Z 0000000180019d0c f i atls:stdafx.obj
 0001:00018d10       ??0?$CTraceCategoryEx@$0EAAAA@$0A@@ATL@@QEAA@PEB_W@Z 0000000180019d10 f i atls:stdafx.obj
 0001:00018d14       ??0?$CTraceCategoryEx@$0EAAAAA@$0A@@ATL@@QEAA@PEB_W@Z 0000000180019d14 f i atls:stdafx.obj
 0001:00018d18       ??0?$CTraceCategoryEx@$0IA@$0A@@ATL@@QEAA@PEB_W@Z 0000000180019d18 f i atls:stdafx.obj
 0001:00018d1c       ??0?$CTraceCategoryEx@$0IAA@$0A@@ATL@@QEAA@PEB_W@Z 0000000180019d1c f i atls:stdafx.obj
 0001:00018d20       ??0?$CTraceCategoryEx@$0IAAA@$0A@@ATL@@QEAA@PEB_W@Z 0000000180019d20 f i atls:stdafx.obj
 0001:00018d24       ??0?$CTraceCategoryEx@$0IAAAA@$0A@@ATL@@QEAA@PEB_W@Z 0000000180019d24 f i atls:stdafx.obj
 0001:0001906c       _CRT_INIT                  000000018001a06c f   LIBCMT:dll_dllmain.obj
 0001:00019080       _DllMainCRTStartup         000000018001a080 f   LIBCMT:dll_dllmain.obj
 0001:000190c0       ??3@YAXPEAX_K@Z            000000018001a0c0 f   LIBCMT:delete_scalar_size.obj
 0001:000190c8       ??_V@YAXPEAX@Z             000000018001a0c8 f   LIBCMT:delete_array.obj
 0001:000190d0       ??_V@YAXPEAX_K@Z           000000018001a0d0 f   LIBCMT:delete_array_size.obj
 0001:000190d8       ?configure_argv@__scrt_narrow_argv_policy@@SAHXZ 000000018001a0d8 f i LIBCMT:utility.obj
 0001:00019138       ?initialize_environment@__scrt_narrow_environment_policy@@SAHXZ 000000018001a138 f i LIBCMT:utility.obj
 0001:00019170       NtCurrentTeb               000000018001a170 f i LIBCMT:utility.obj
 0001:0001917c       __scrt_acquire_startup_lock 000000018001a17c f   LIBCMT:utility.obj
 0001:000191b8       __scrt_dllmain_after_initialize_c 000000018001a1b8 f   LIBCMT:utility.obj
 0001:000191ec       __scrt_dllmain_before_initialize_c 000000018001a1ec f   LIBCMT:utility.obj
 0001:00019204       __scrt_dllmain_crt_thread_attach 000000018001a204 f   LIBCMT:utility.obj
 0001:0001922c       __scrt_dllmain_crt_thread_detach 000000018001a22c f   LIBCMT:utility.obj
 0001:00019244       __scrt_dllmain_exception_filter 000000018001a244 f   LIBCMT:utility.obj
 0001:000192a4       __scrt_dllmain_uninitialize_c 000000018001a2a4 f   LIBCMT:utility.obj
 0001:000192d4       __scrt_dllmain_uninitialize_critical 000000018001a2d4 f   LIBCMT:utility.obj
 0001:000192e8       __scrt_initialize_crt      000000018001a2e8 f   LIBCMT:utility.obj
 0001:00019334       __scrt_initialize_onexit_tables 000000018001a334 f   LIBCMT:utility.obj
 0001:000193c0       __scrt_is_nonwritable_in_current_image 000000018001a3c0 f   LIBCMT:utility.obj
 0001:00019458       __scrt_release_startup_lock 000000018001a458 f   LIBCMT:utility.obj
 0001:0001947c       __scrt_uninitialize_crt    000000018001a47c f   LIBCMT:utility.obj
 0001:000194a8       _onexit                    000000018001a4a8 f   LIBCMT:utility.obj
 0001:000194e4       at_quick_exit              000000018001a4e4 f   LIBCMT:utility.obj
 0001:00019504       atexit                     000000018001a504 f   LIBCMT:utility.obj
 0001:0001951c       __raise_securityfailure    000000018001a51c f   LIBCMT:gs_report.obj
 0001:00019550       __report_gsfailure         000000018001a550 f   LIBCMT:gs_report.obj
 0001:00019624       __report_rangecheckfailure 000000018001a624 f   LIBCMT:gs_report.obj
 0001:00019638       __report_securityfailure   000000018001a638 f   LIBCMT:gs_report.obj
 0001:000196d4       __report_securityfailureEx 000000018001a6d4 f   LIBCMT:gs_report.obj
 0001:000198c8       ??2@YAPEAX_KAEBUnothrow_t@std@@@Z 000000018001a8c8 f   LIBCMT:new_scalar_nothrow.obj
 0001:000198dc       ??_U@YAPEAX_KAEBUnothrow_t@std@@@Z 000000018001a8dc f   LIBCMT:new_array_nothrow.obj
 0001:000198e4       _RTC_AllocaHelper          000000018001a8e4 f   LIBCMT:stack.obj
 0001:0001991c       _RTC_CheckStackVars        000000018001a91c f   LIBCMT:stack.obj
 0001:00019990       _RTC_CheckStackVars2       000000018001a990 f   LIBCMT:stack.obj
 0001:00019a78       _CRT_RTC_INIT              000000018001aa78 f   LIBCMT:init.obj
 0001:00019a7c       _CRT_RTC_INITW             000000018001aa7c f   LIBCMT:init.obj
 0001:00019a80       _RTC_InitBase              000000018001aa80 f   LIBCMT:init.obj
 0001:00019aa0       _RTC_Shutdown              000000018001aaa0 f   LIBCMT:init.obj
 0001:00019aa4       __GSHandlerCheck           000000018001aaa4 f   LIBCMT:gshandler.obj
 0001:00019ac4       __GSHandlerCheckCommon     000000018001aac4 f   LIBCMT:gshandler.obj
 0001:00019b30       __chkstk                   000000018001ab30 f   LIBCMT:chkstk.obj
 0001:00019b30       _alloca_probe              000000018001ab30 f   LIBCMT:chkstk.obj
 0001:00019b90       __security_check_cookie    000000018001ab90 f   LIBCMT:amdsecgs.obj
 0001:00019bb0       ??1type_info@@UEAA@XZ      000000018001abb0 f   LIBCMT:std_type_info_static.obj
 0001:00019bc0       ??_Etype_info@@UEAAPEAXI@Z 000000018001abc0 f i LIBCMT:std_type_info_static.obj
 0001:00019bc0       ??_Gtype_info@@UEAAPEAXI@Z 000000018001abc0 f i LIBCMT:std_type_info_static.obj
 0001:00019bec       ??3@YAXPEAX@Z              000000018001abec f   LIBCMT:delete_scalar.obj
 0001:00019bf4       ??2@YAPEAX_K@Z             000000018001abf4 f   LIBCMT:new_scalar.obj
 0001:00019c30       ??_U@YAPEAX_K@Z            000000018001ac30 f   LIBCMT:new_array.obj
 0001:00019ca4       __security_init_cookie     000000018001aca4 f   LIBCMT:gs_support.obj
 0001:00019d50       ?__scrt_initialize_type_info@@YAXXZ 000000018001ad50 f   LIBCMT:tncleanup.obj
 0001:00019d60       ?__scrt_uninitialize_type_info@@YAXXZ 000000018001ad60 f   LIBCMT:tncleanup.obj
 0001:00019d6c       __local_stdio_scanf_options 000000018001ad6c f i LIBCMT:default_local_stdio_options.obj
 0001:00019d74       __scrt_initialize_default_local_stdio_options 000000018001ad74 f   LIBCMT:default_local_stdio_options.obj
 0001:00019d90       __scrt_get_dyn_tls_init_callback 000000018001ad90 f   LIBCMT:dyn_tls_init.obj
 0001:00019d98       __crt_debugger_hook        000000018001ad98 f   LIBCMT:utility_desktop.obj
 0001:00019da0       __scrt_fastfail            000000018001ada0 f   LIBCMT:utility_desktop.obj
 0001:00019eec       __scrt_get_show_window_mode 000000018001aeec f   LIBCMT:utility_desktop.obj
 0001:00019f28       __scrt_initialize_mta      000000018001af28 f   LIBCMT:utility_desktop.obj
 0001:00019f30       __scrt_initialize_winrt    000000018001af30 f   LIBCMT:utility_desktop.obj
 0001:00019f34       __scrt_is_managed_app      000000018001af34 f   LIBCMT:utility_desktop.obj
 0001:00019f88       __scrt_set_unhandled_exception_filter 000000018001af88 f   LIBCMT:utility_desktop.obj
 0001:00019f98       __scrt_exe_initialize_mta  000000018001af98 f   LIBCMT:utility_desktop.obj
 0001:00019f98       __scrt_stub_for_initialize_mta 000000018001af98 f   LIBCMT:utility_desktop.obj
 0001:00019fa0       __scrt_unhandled_exception_filter 000000018001afa0 f   LIBCMT:utility_desktop.obj
 0001:00019ffc       _RTC_Initialize            000000018001affc f   LIBCMT:initsect.obj
 0001:0001a038       _RTC_Terminate             000000018001b038 f   LIBCMT:initsect.obj
 0001:0001a074       __isa_available_init       000000018001b074 f   LIBCMT:cpu_disp.obj
 0001:0001a220       _get_startup_argv_mode     000000018001b220 f   LIBCMT:argv_mode.obj
 0001:0001a228       __scrt_is_ucrt_dll_in_use  000000018001b228 f   LIBCMT:ucrt_detection.obj
 0001:0001a2b0       ?_RTC_AllocaFailure@@YAXPEAXPEAU_RTC_ALLOCA_NODE@@H@Z 000000018001b2b0 f   LIBCMT:error.obj
 0001:0001a460       ?_RTC_Failure@@YAXPEAXH@Z  000000018001b460 f   LIBCMT:error.obj
 0001:0001a4b0       ?_RTC_StackFailure@@YAXPEAXPEBD@Z 000000018001b4b0 f   LIBCMT:error.obj
 0001:0001a8f4       _RTC_UninitUse             000000018001b8f4 f   LIBCMT:error.obj
 0001:0001a9c8       _vsprintf_s_l              000000018001b9c8 f i LIBCMT:error.obj
 0001:0001aa2c       sprintf_s                  000000018001ba2c f i LIBCMT:error.obj
 0001:0001aa80       ?_RTC_GetErrorFunc@@YAP6AHHPEBDH00ZZPEBX@Z 000000018001ba80 f   LIBCMT:userapi.obj
 0001:0001aa88       ?_RTC_GetErrorFuncW@@YAP6AHHPEB_WH00ZZPEBX@Z 000000018001ba88 f   LIBCMT:userapi.obj
 0001:0001aa90       _RTC_GetErrDesc            000000018001ba90 f   LIBCMT:userapi.obj
 0001:0001aaac       _RTC_NumErrors             000000018001baac f   LIBCMT:userapi.obj
 0001:0001aab4       _RTC_SetErrorFunc          000000018001bab4 f   LIBCMT:userapi.obj
 0001:0001aacc       _RTC_SetErrorFuncW         000000018001bacc f   LIBCMT:userapi.obj
 0001:0001aae4       _RTC_SetErrorType          000000018001bae4 f   LIBCMT:userapi.obj
 0001:0001ab04       ??0bad_alloc@std@@AEAA@QEBD@Z 000000018001bb04 f i LIBCMT:throw_bad_alloc.obj
 0001:0001ab1c       ??0bad_alloc@std@@QEAA@AEBV01@@Z 000000018001bb1c f i LIBCMT:throw_bad_alloc.obj
 0001:0001ab58       ??0bad_alloc@std@@QEAA@XZ  000000018001bb58 f i LIBCMT:throw_bad_alloc.obj
 0001:0001ab78       ??0bad_array_new_length@std@@QEAA@AEBV01@@Z 000000018001bb78 f i LIBCMT:throw_bad_alloc.obj
 0001:0001abb4       ??0bad_array_new_length@std@@QEAA@XZ 000000018001bbb4 f i LIBCMT:throw_bad_alloc.obj
 0001:0001abd4       ??0exception@std@@QEAA@AEBV01@@Z 000000018001bbd4 f i LIBCMT:throw_bad_alloc.obj
 0001:0001ac08       ??0exception@std@@QEAA@QEBDH@Z 000000018001bc08 f i LIBCMT:throw_bad_alloc.obj
 0001:0001ac20       ??1bad_alloc@std@@UEAA@XZ  000000018001bc20 f i LIBCMT:throw_bad_alloc.obj
 0001:0001ac34       ??1bad_array_new_length@std@@UEAA@XZ 000000018001bc34 f i LIBCMT:throw_bad_alloc.obj
 0001:0001ac48       ??1exception@std@@UEAA@XZ  000000018001bc48 f i LIBCMT:throw_bad_alloc.obj
 0001:0001ac60       ??_Ebad_alloc@std@@UEAAPEAXI@Z 000000018001bc60 f i LIBCMT:throw_bad_alloc.obj
 0001:0001ac60       ??_Gbad_alloc@std@@UEAAPEAXI@Z 000000018001bc60 f i LIBCMT:throw_bad_alloc.obj
 0001:0001acb0       ??_Ebad_array_new_length@std@@UEAAPEAXI@Z 000000018001bcb0 f i LIBCMT:throw_bad_alloc.obj
 0001:0001acb0       ??_Gbad_array_new_length@std@@UEAAPEAXI@Z 000000018001bcb0 f i LIBCMT:throw_bad_alloc.obj
 0001:0001ad00       ??_Eexception@std@@UEAAPEAXI@Z 000000018001bd00 f i LIBCMT:throw_bad_alloc.obj
 0001:0001ad00       ??_Gexception@std@@UEAAPEAXI@Z 000000018001bd00 f i LIBCMT:throw_bad_alloc.obj
 0001:0001ad44       ?__scrt_throw_std_bad_alloc@@YAXXZ 000000018001bd44 f   LIBCMT:throw_bad_alloc.obj
 0001:0001ad64       ?__scrt_throw_std_bad_array_new_length@@YAXXZ 000000018001bd64 f   LIBCMT:throw_bad_alloc.obj
 0001:0001ad90       ?what@exception@std@@UEBAPEBDXZ 000000018001bd90 f i LIBCMT:throw_bad_alloc.obj
 0001:0001b03c       ?_RTC_GetSrcLine@@YAHPEAEPEA_WKPEAH1K@Z 000000018001c03c f   LIBCMT:pdblkup.obj
 0001:0001b3f6       InitializeCriticalSection  000000018001c3f6 f   onecore:KERNEL32.dll
 0001:0001b3fc       RegDeleteKeyExW            000000018001c3fc f   onecore:ADVAPI32.dll
 0001:0001b402       GetProcessHeap             000000018001c402 f   onecore:KERNEL32.dll
 0001:0001b408       CLSIDFromString            000000018001c408 f   onecore:ole32.dll
 0001:0001b40e       HeapAlloc                  000000018001c40e f   onecore:KERNEL32.dll
 0001:0001b414       RegGetValueW               000000018001c414 f   onecore:ADVAPI32.dll
 0001:0001b41a       HeapFree                   000000018001c41a f   onecore:KERNEL32.dll
 0001:0001b420       RegQueryValueExW           000000018001c420 f   onecore:ADVAPI32.dll
 0001:0001b426       IsDebuggerPresent          000000018001c426 f   onecore:KERNEL32.dll
 0001:0001b42c       OutputDebugStringW         000000018001c42c f   onecore:KERNEL32.dll
 0001:0001b432       RtlCaptureContext          000000018001c432 f   onecore:KERNEL32.dll
 0001:0001b438       RtlLookupFunctionEntry     000000018001c438 f   onecore:KERNEL32.dll
 0001:0001b43e       RtlVirtualUnwind           000000018001c43e f   onecore:KERNEL32.dll
 0001:0001b444       UnhandledExceptionFilter   000000018001c444 f   onecore:KERNEL32.dll
 0001:0001b44a       SetUnhandledExceptionFilter 000000018001c44a f   onecore:KERNEL32.dll
 0001:0001b450       TerminateProcess           000000018001c450 f   onecore:KERNEL32.dll
 0001:0001b456       IsProcessorFeaturePresent  000000018001c456 f   onecore:KERNEL32.dll
 0001:0001b45c       QueryPerformanceCounter    000000018001c45c f   onecore:KERNEL32.dll
 0001:0001b462       GetCurrentThreadId         000000018001c462 f   onecore:KERNEL32.dll
 0001:0001b468       GetSystemTimeAsFileTime    000000018001c468 f   onecore:KERNEL32.dll
 0001:0001b46e       InitializeSListHead        000000018001c46e f   onecore:KERNEL32.dll
 0001:0001b474       GetStartupInfoW            000000018001c474 f   onecore:KERNEL32.dll
 0001:0001b47a       WideCharToMultiByte        000000018001c47a f   onecore:KERNEL32.dll
 0001:0001b480       VirtualQuery               000000018001c480 f   onecore:KERNEL32.dll
 0001:0001b488       ??$__crt_interlocked_exchange_pointer@$$A6AXXZP6AXXZ@@YAP6AXXZPEDS6AXXZQ6AXXZ@Z 000000018001c488 f i libvcruntime:purevirt.obj
 0001:0001b490       ??$__crt_interlocked_read_pointer@$$A6AXXZ@@YAP6AXXZPEDS6AXXZ@Z 000000018001c490 f i libvcruntime:purevirt.obj
 0001:0001b498       ?__crt_interlocked_read_64@@YA_JPED_J@Z 000000018001c498 f i libvcruntime:purevirt.obj
 0001:0001b4a0       _get_purecall_handler      000000018001c4a0 f   libvcruntime:purevirt.obj
 0001:0001b4b0       _purecall                  000000018001c4b0 f   libvcruntime:purevirt.obj
 0001:0001b4cc       _set_purecall_handler      000000018001c4cc f   libvcruntime:purevirt.obj
 0001:0001b4f0       memcpy_repmovs             000000018001c4f0 f   libvcruntime:memcpy.obj
 0001:0001b510       memcpy                     000000018001c510 f   libvcruntime:memcpy.obj
 0001:0001b510       memmove                    000000018001c510 f   libvcruntime:memcpy.obj
 0001:0001bbb0       memset_repstos             000000018001cbb0 f   libvcruntime:memset.obj
 0001:0001bbd0       memset                     000000018001cbd0 f   libvcruntime:memset.obj
 0001:0001bf5c       wcsstr                     000000018001cf5c f   libvcruntime:wcsstr.obj
 0001:0001c180       memcmp                     000000018001d180 f   libvcruntime:memcmp.obj
 0001:0001c250       __DestructExceptionObject  000000018001d250 f   libvcruntime:ehhelpers.obj
 0001:0001c2c0       ?_CallMemberFunction0@@YAXQEAX0@Z 000000018001d2c0 f i libvcruntime:ehhelpers.obj
 0001:0001c31c       ?raw_name@type_info@@QEBAPEBDXZ 000000018001d31c f i libvcruntime:ehhelpers.obj
 0001:0001c324       _IsExceptionObjectToBeDestroyed 000000018001d324 f   libvcruntime:ehhelpers.obj
 0001:0001c354       _SetWinRTOutOfMemoryExceptionCallback 000000018001d354 f   libvcruntime:ehhelpers.obj
 0001:0001c35c       __AdjustPointer            000000018001d35c f   libvcruntime:ehhelpers.obj
 0001:0001c380       __FrameUnwindFilter        000000018001d380 f   libvcruntime:ehhelpers.obj
 0001:0001c3e8       __GetPlatformExceptionInfo 000000018001d3e8 f   libvcruntime:ehhelpers.obj
 0001:0001c444       __current_exception        000000018001d444 f   libvcruntime:ehhelpers.obj
 0001:0001c458       __current_exception_context 000000018001d458 f   libvcruntime:ehhelpers.obj
 0001:0001c46c       __processing_throw         000000018001d46c f   libvcruntime:ehhelpers.obj
 0001:0001c480       __std_terminate            000000018001d480 f   libvcruntime:ehhelpers.obj
 0001:0001c48c       _is_exception_typeof       000000018001d48c f   libvcruntime:ehhelpers.obj
 0001:0001c534       ??$?0AEAViterator@TryBlockMap4@FH4@@AEAV012@$0A@@?$pair@Viterator@TryBlockMap4@FH4@@V123@@std@@QEAA@AEAViterator@TryBlockMap4@FH4@@0@Z 000000018001d534 f i libvcruntime:risctrnsctrl.obj
 0001:0001c548       ??$?0AEAViterator@TryBlockMap@__FrameHandler3@@AEAV012@$0A@@?$pair@Viterator@TryBlockMap@__FrameHandler3@@V123@@std@@QEAA@AEAViterator@TryBlockMap@__FrameHandler3@@0@Z 000000018001d548 f i libvcruntime:risctrnsctrl.obj
 0001:0001c6cc       ??$_CallSETranslator@V__FrameHandler3@@@@YAHPEAUEHExceptionRecord@@PEA_KPEAU_CONTEXT@@PEAU_xDISPATCHER_CONTEXT@@PEBU_s_FuncInfo@@K1H@Z 000000018001d6cc f i libvcruntime:risctrnsctrl.obj
 0001:0001c720       ??$_CallSETranslator@V__FrameHandler4@@@@YAHPEAUEHExceptionRecord@@PEA_KPEAU_CONTEXT@@PEAU_xDISPATCHER_CONTEXT@@PEAUFuncInfo4@FH4@@K1H@Z 000000018001d720 f i libvcruntime:risctrnsctrl.obj
 0001:0001c774       ??$forward@AEAViterator@TryBlockMap4@FH4@@@std@@YAAEAViterator@TryBlockMap4@FH4@@AEAV123@@Z 000000018001d774 f i libvcruntime:risctrnsctrl.obj
 0001:0001c778       ??$forward@AEAViterator@TryBlockMap@__FrameHandler3@@@std@@YAAEAViterator@TryBlockMap@__FrameHandler3@@AEAV123@@Z 000000018001d778 f i libvcruntime:risctrnsctrl.obj
 0001:0001c77c       ??0FuncInfo4@FH4@@QEAA@XZ  000000018001d77c f i libvcruntime:risctrnsctrl.obj
 0001:0001c790       ??0FuncInfoHeader@FH4@@QEAA@XZ 000000018001d790 f i libvcruntime:risctrnsctrl.obj
 0001:0001c798       ??0iterator@TryBlockMap4@FH4@@QEAA@AEAV12@I@Z 000000018001d798 f i libvcruntime:risctrnsctrl.obj
 0001:0001c7a4       ??0iterator@TryBlockMap@__FrameHandler3@@QEAA@AEAV12@I@Z 000000018001d7a4 f i libvcruntime:risctrnsctrl.obj
 0001:0001c7b0       ??4iterator@TryBlockMap4@FH4@@QEAAAEAV012@AEBV012@@Z 000000018001d7b0 f i libvcruntime:risctrnsctrl.obj
 0001:0001c7bc       ??9iterator@TryBlockMap4@FH4@@QEBA_NAEBV012@@Z 000000018001d7bc f i libvcruntime:risctrnsctrl.obj
 0001:0001c7c8       ??Diterator@TryBlockMap4@FH4@@QEAA?AUTryBlockMapEntry4@2@XZ 000000018001d7c8 f i libvcruntime:risctrnsctrl.obj
 0001:0001c7d8       ??Eiterator@TryBlockMap4@FH4@@QEAAAEAV012@XZ 000000018001d7d8 f i libvcruntime:risctrnsctrl.obj
 0001:0001c874       ?CatchTryBlock@__FrameHandler3@@SAPEBU_s_TryBlockMapEntry@@PEBU_s_FuncInfo@@H@Z 000000018001d874 f   libvcruntime:risctrnsctrl.obj
 0001:0001c8d8       ?DecompFuncInfo@FH4@@YA_JPEAEAEAUFuncInfo4@1@_KH@Z 000000018001d8d8 f i libvcruntime:risctrnsctrl.obj
 0001:0001c8ec       ?DecompFuncInfo@FH4@@YA_JPEAEAEAUFuncInfo4@1@_KH_N@Z 000000018001d8ec f i libvcruntime:risctrnsctrl.obj
 0001:0001ca20       ?DecompTryBlock@TryBlockMap4@FH4@@AEAAXXZ 000000018001da20 f i libvcruntime:risctrnsctrl.obj
 0001:0001cab4       ?ExecutionInCatch@__FrameHandler3@@SA_NPEAU_xDISPATCHER_CONTEXT@@PEBU_s_FuncInfo@@@Z 000000018001dab4 f   libvcruntime:risctrnsctrl.obj
 0001:0001cae0       ?ExecutionInCatch@__FrameHandler4@@SA_NPEAU_xDISPATCHER_CONTEXT@@PEAUFuncInfo4@FH4@@@Z 000000018001dae0 f   libvcruntime:risctrnsctrl.obj
 0001:0001cae8       ?FrameUnwindToEmptyState@__FrameHandler3@@SAXPEA_KPEAU_xDISPATCHER_CONTEXT@@PEBU_s_FuncInfo@@@Z 000000018001dae8 f   libvcruntime:risctrnsctrl.obj
 0001:0001cb4c       ?FrameUnwindToEmptyState@__FrameHandler4@@SAXPEA_KPEAU_xDISPATCHER_CONTEXT@@PEAUFuncInfo4@FH4@@@Z 000000018001db4c f   libvcruntime:risctrnsctrl.obj
 0001:0001cb80       ?GetEstablisherFrame@__FrameHandler3@@SAPEA_KPEA_KPEAU_xDISPATCHER_CONTEXT@@PEBU_s_FuncInfo@@0@Z 000000018001db80 f   libvcruntime:risctrnsctrl.obj
 0001:0001cc54       ?GetEstablisherFrame@__FrameHandler4@@SAPEA_KPEA_KPEAU_xDISPATCHER_CONTEXT@@PEAUFuncInfo4@FH4@@0@Z 000000018001dc54 f   libvcruntime:risctrnsctrl.obj
 0001:0001cc78       ?GetRangeOfTrysToCheck@__FrameHandler3@@SA?AU?$pair@Viterator@TryBlockMap@__FrameHandler3@@V123@@std@@AEAVTryBlockMap@1@HPEAU_xDISPATCHER_CONTEXT@@PEBU_s_FuncInfo@@H@Z 000000018001dc78 f   libvcruntime:risctrnsctrl.obj
 0001:0001cdb8       ?GetRangeOfTrysToCheck@__FrameHandler4@@SA?AU?$pair@Viterator@TryBlockMap4@FH4@@V123@@std@@AEAVTryBlockMap4@FH4@@HPEAU_xDISPATCHER_CONTEXT@@PEAUFuncInfo4@5@H@Z 000000018001ddb8 f   libvcruntime:risctrnsctrl.obj
 0001:0001cf24       ?ReadInt@FH4@@YAHPEAPEAE@Z 000000018001df24 f i libvcruntime:risctrnsctrl.obj
 0001:0001cf34       ?ReadUnsigned@FH4@@YAIPEAPEAE@Z 000000018001df34 f i libvcruntime:risctrnsctrl.obj
 0001:0001cf64       ?UnwindNestedFrames@__FrameHandler3@@SAXPEA_KPEAUEHExceptionRecord@@PEAU_CONTEXT@@0PEAXPEBU_s_FuncInfo@@HHPEBU_s_HandlerType@@PEAU_xDISPATCHER_CONTEXT@@E@Z 000000018001df64 f   libvcruntime:risctrnsctrl.obj
 0001:0001d068       ?UnwindNestedFrames@__FrameHandler4@@SAXPEA_KPEAUEHExceptionRecord@@PEAU_CONTEXT@@0PEAXPEAUFuncInfo4@FH4@@HHPEAUHandlerType4@5@PEAU_xDISPATCHER_CONTEXT@@E@Z 000000018001e068 f   libvcruntime:risctrnsctrl.obj
 0001:0001d188       ?begin@TryBlockMap4@FH4@@QEAA?AViterator@12@XZ 000000018001e188 f i libvcruntime:risctrnsctrl.obj
 0001:0001d194       ?end@TryBlockMap4@FH4@@QEAA?AViterator@12@XZ 000000018001e194 f i libvcruntime:risctrnsctrl.obj
 0001:0001d1a0       ?imageRelToByteBuffer@FH4@@YAPEAE_KH@Z 000000018001e1a0 f i libvcruntime:risctrnsctrl.obj
 0001:0001d1a8       ?incrementToSentinel@iterator@TryBlockMap4@FH4@@QEAAXXZ 000000018001e1a8 f i libvcruntime:risctrnsctrl.obj
 0001:0001d1ac       ?setBuffer@TryBlockMap4@FH4@@QEAAXViterator@12@@Z 000000018001e1ac f i libvcruntime:risctrnsctrl.obj
 0001:0001d370       _CreateFrameInfo           000000018001e370 f   libvcruntime:risctrnsctrl.obj
 0001:0001d3ac       _FindAndUnlinkFrame        000000018001e3ac f   libvcruntime:risctrnsctrl.obj
 0001:0001d400       _GetImageBase              000000018001e400 f   libvcruntime:risctrnsctrl.obj
 0001:0001d414       _GetThrowImageBase         000000018001e414 f   libvcruntime:risctrnsctrl.obj
 0001:0001d428       _SetImageBase              000000018001e428 f   libvcruntime:risctrnsctrl.obj
 0001:0001d440       _SetThrowImageBase         000000018001e440 f   libvcruntime:risctrnsctrl.obj
 0001:0001d458       __CxxFrameHandler          000000018001e458 f   libvcruntime:risctrnsctrl.obj
 0001:0001d460       __CxxFrameHandler2         000000018001e460 f   libvcruntime:risctrnsctrl.obj
 0001:0001d468       __CxxFrameHandler3         000000018001e468 f   libvcruntime:risctrnsctrl.obj
 0001:0001d4f0       __CxxFrameHandler4         000000018001e4f0 f   libvcruntime:risctrnsctrl.obj
 0001:0001d5b0       __C_specific_handler       000000018001e5b0 f   libvcruntime:riscchandler.obj
 0001:0001d7b0       __vcrt_initialize          000000018001e7b0 f   libvcruntime:initialization.obj
 0001:0001d7d8       __vcrt_thread_attach       000000018001e7d8 f   libvcruntime:initialization.obj
 0001:0001d7ec       __vcrt_thread_detach       000000018001e7ec f   libvcruntime:initialization.obj
 0001:0001d7fc       __vcrt_uninitialize        000000018001e7fc f   libvcruntime:initialization.obj
 0001:0001d818       __vcrt_uninitialize_critical 000000018001e818 f   libvcruntime:initialization.obj
 0001:0001d848       ??$?RD@__crt_internal_free_policy@@QEBAXQEBD@Z 000000018001e848 f i libvcruntime:std_type_info.obj
 0001:0001d850       ??$?RX@__crt_internal_free_policy@@QEBAXQEBX@Z 000000018001e850 f i libvcruntime:std_type_info.obj
 0001:0001d858       ??$__crt_interlocked_compare_exchange_pointer@$$CBDPEAD$$T@@YAPEBDPEDSEBDQEAD$$T@Z 000000018001e858 f i libvcruntime:std_type_info.obj
 0001:0001d864       ??$__crt_interlocked_read_pointer@$$CBD@@YAPEBDPEDSEBD@Z 000000018001e864 f i libvcruntime:std_type_info.obj
 0001:0001d86c       ??0?$__crt_unique_heap_ptr@DU__crt_internal_free_policy@@@@QEAA@QEAD@Z 000000018001e86c f i libvcruntime:std_type_info.obj
 0001:0001d874       ??0?$__crt_unique_heap_ptr@XU__crt_internal_free_policy@@@@QEAA@QEAX@Z 000000018001e874 f i libvcruntime:std_type_info.obj
 0001:0001d87c       ??1?$__crt_unique_heap_ptr@DU__crt_internal_free_policy@@@@QEAA@XZ 000000018001e87c f i libvcruntime:std_type_info.obj
 0001:0001d898       ??1?$__crt_unique_heap_ptr@XU__crt_internal_free_policy@@@@QEAA@XZ 000000018001e898 f i libvcruntime:std_type_info.obj
 0001:0001d8b4       ??B?$__crt_unique_heap_ptr@DU__crt_internal_free_policy@@@@QEBA_NXZ 000000018001e8b4 f i libvcruntime:std_type_info.obj
 0001:0001d8bc       ??B?$__crt_unique_heap_ptr@XU__crt_internal_free_policy@@@@QEBA_NXZ 000000018001e8bc f i libvcruntime:std_type_info.obj
 0001:0001d8d4       ?detach@?$__crt_unique_heap_ptr@XU__crt_internal_free_policy@@@@QEAAPEAXXZ 000000018001e8d4 f i libvcruntime:std_type_info.obj
 0001:0001d8dc       ?get@?$__crt_unique_heap_ptr@DU__crt_internal_free_policy@@@@QEBAPEADXZ 000000018001e8dc f i libvcruntime:std_type_info.obj
 0001:0001d8e0       ?get@?$__crt_unique_heap_ptr@XU__crt_internal_free_policy@@@@QEBAPEAXXZ 000000018001e8e0 f i libvcruntime:std_type_info.obj
 0001:0001d8e4       ?is_valid@?$__crt_unique_heap_ptr@DU__crt_internal_free_policy@@@@QEBA_NXZ 000000018001e8e4 f i libvcruntime:std_type_info.obj
 0001:0001d8ec       ?is_valid@?$__crt_unique_heap_ptr@XU__crt_internal_free_policy@@@@QEBA_NXZ 000000018001e8ec f i libvcruntime:std_type_info.obj
 0001:0001d8f4       ?release@?$__crt_unique_heap_ptr@DU__crt_internal_free_policy@@@@QEAAXXZ 000000018001e8f4 f i libvcruntime:std_type_info.obj
 0001:0001d910       ?release@?$__crt_unique_heap_ptr@XU__crt_internal_free_policy@@@@QEAAXXZ 000000018001e910 f i libvcruntime:std_type_info.obj
 0001:0001d92c       __std_type_info_compare    000000018001e92c f   libvcruntime:std_type_info.obj
 0001:0001d954       __std_type_info_destroy_list 000000018001e954 f   libvcruntime:std_type_info.obj
 0001:0001d980       __std_type_info_hash       000000018001e980 f   libvcruntime:std_type_info.obj
 0001:0001d9b8       __std_type_info_name       000000018001e9b8 f   libvcruntime:std_type_info.obj
 0001:0001dad0       __C_specific_handler_noexcept 000000018001ead0 f   libvcruntime:chandler_noexcept.obj
 0001:0001db1c       ??$?RD@__crt_public_free_policy@@QEBAXQEBD@Z 000000018001eb1c f i libvcruntime:std_exception.obj
 0001:0001db24       ??0?$__crt_unique_heap_ptr@DU__crt_public_free_policy@@@@QEAA@QEAD@Z 000000018001eb24 f i libvcruntime:std_exception.obj
 0001:0001db2c       ??1?$__crt_unique_heap_ptr@DU__crt_public_free_policy@@@@QEAA@XZ 000000018001eb2c f i libvcruntime:std_exception.obj
 0001:0001db48       ??B?$__crt_unique_heap_ptr@DU__crt_public_free_policy@@@@QEBA_NXZ 000000018001eb48 f i libvcruntime:std_exception.obj
 0001:0001db50       ?detach@?$__crt_unique_heap_ptr@DU__crt_public_free_policy@@@@QEAAPEADXZ 000000018001eb50 f i libvcruntime:std_exception.obj
 0001:0001db58       ?get@?$__crt_unique_heap_ptr@DU__crt_public_free_policy@@@@QEBAPEADXZ 000000018001eb58 f i libvcruntime:std_exception.obj
 0001:0001db5c       ?is_valid@?$__crt_unique_heap_ptr@DU__crt_public_free_policy@@@@QEBA_NXZ 000000018001eb5c f i libvcruntime:std_exception.obj
 0001:0001db64       ?release@?$__crt_unique_heap_ptr@DU__crt_public_free_policy@@@@QEAAXXZ 000000018001eb64 f i libvcruntime:std_exception.obj
 0001:0001db80       __std_exception_copy       000000018001eb80 f   libvcruntime:std_exception.obj
 0001:0001dc10       __std_exception_destroy    000000018001ec10 f   libvcruntime:std_exception.obj
 0001:0001dc38       _CxxThrowException         000000018001ec38 f   libvcruntime:throw.obj
 0001:0001dce0       __vcrt_GetModuleFileNameW  000000018001ece0 f   libvcruntime:winapi_thunks.obj
 0001:0001dce8       __vcrt_GetModuleHandleW    000000018001ece8 f   libvcruntime:winapi_thunks.obj
 0001:0001dcf0       __vcrt_LoadLibraryExW      000000018001ecf0 f   libvcruntime:winapi_thunks.obj
 0001:0001dcf8       ??$?RU__vcrt_ptd@@@__crt_internal_free_policy@@QEBAXQEBU__vcrt_ptd@@@Z 000000018001ecf8 f i libvcruntime:per_thread_data.obj
 0001:0001dd00       ??0?$__crt_unique_heap_ptr@U__vcrt_ptd@@U__crt_internal_free_policy@@@@QEAA@QEAU__vcrt_ptd@@@Z 000000018001ed00 f i libvcruntime:per_thread_data.obj
 0001:0001dd24       ??1?$__crt_unique_heap_ptr@U__vcrt_ptd@@U__crt_internal_free_policy@@@@QEAA@XZ 000000018001ed24 f i libvcruntime:per_thread_data.obj
 0001:0001dd4c       ??B?$__crt_unique_heap_ptr@U__vcrt_ptd@@U__crt_internal_free_policy@@@@QEBA_NXZ 000000018001ed4c f i libvcruntime:per_thread_data.obj
 0001:0001dd54       ?detach@?$__crt_unique_heap_ptr@U__vcrt_ptd@@U__crt_internal_free_policy@@@@QEAAPEAU__vcrt_ptd@@XZ 000000018001ed54 f i libvcruntime:per_thread_data.obj
 0001:0001dd5c       ?get@?$__crt_unique_heap_ptr@U__vcrt_ptd@@U__crt_internal_free_policy@@@@QEBAPEAU__vcrt_ptd@@XZ 000000018001ed5c f i libvcruntime:per_thread_data.obj
 0001:0001dd60       ?is_valid@?$__crt_unique_heap_ptr@U__vcrt_ptd@@U__crt_internal_free_policy@@@@QEBA_NXZ 000000018001ed60 f i libvcruntime:per_thread_data.obj
 0001:0001dd68       ?release@?$__crt_unique_heap_ptr@U__vcrt_ptd@@U__crt_internal_free_policy@@@@QEAAXXZ 000000018001ed68 f i libvcruntime:per_thread_data.obj
 0001:0001ddb0       __vcrt_FlsAlloc            000000018001edb0 f i libvcruntime:per_thread_data.obj
 0001:0001ddb8       __vcrt_FlsFree             000000018001edb8 f i libvcruntime:per_thread_data.obj
 0001:0001ddc0       __vcrt_FlsGetValue         000000018001edc0 f i libvcruntime:per_thread_data.obj
 0001:0001ddc8       __vcrt_FlsSetValue         000000018001edc8 f i libvcruntime:per_thread_data.obj
 0001:0001ddd0       __vcrt_freefls             000000018001edd0 f   libvcruntime:per_thread_data.obj
 0001:0001ddf0       __vcrt_freeptd_for_this_thread 000000018001edf0 f   libvcruntime:per_thread_data.obj
 0001:0001de38       __vcrt_getptd              000000018001ee38 f   libvcruntime:per_thread_data.obj
 0001:0001de54       __vcrt_getptd_noexit       000000018001ee54 f   libvcruntime:per_thread_data.obj
 0001:0001df18       __vcrt_getptd_noinit       000000018001ef18 f   libvcruntime:per_thread_data.obj
 0001:0001df68       __vcrt_initialize_ptd      000000018001ef68 f   libvcruntime:per_thread_data.obj
 0001:0001dfb4       __vcrt_uninitialize_ptd    000000018001efb4 f   libvcruntime:per_thread_data.obj
 0001:0001dfd8       ?GetCurrentState@__FrameHandler3@@SAHPEA_KPEAU_xDISPATCHER_CONTEXT@@PEBU_s_FuncInfo@@@Z 000000018001efd8 f   libvcruntime:ehstate.obj
 0001:0001e000       ?GetUnwindTryBlock@__FrameHandler3@@SAHPEA_KPEAU_xDISPATCHER_CONTEXT@@PEBU_s_FuncInfo@@@Z 000000018001f000 f   libvcruntime:ehstate.obj
 0001:0001e02c       ?SetState@__FrameHandler3@@SAXPEA_KPEBU_s_FuncInfo@@H@Z 000000018001f02c f   libvcruntime:ehstate.obj
 0001:0001e038       ?SetUnwindTryBlock@__FrameHandler3@@SAXPEA_KPEAU_xDISPATCHER_CONTEXT@@PEBU_s_FuncInfo@@H@Z 000000018001f038 f   libvcruntime:ehstate.obj
 0001:0001e074       ?StateFromControlPc@__FrameHandler3@@SAHPEBU_s_FuncInfo@@PEAU_xDISPATCHER_CONTEXT@@@Z 000000018001f074 f   libvcruntime:ehstate.obj
 0001:0001e07c       ?StateFromControlPc@__FrameHandler4@@SAHPEAUFuncInfo4@FH4@@PEAU_xDISPATCHER_CONTEXT@@@Z 000000018001f07c f   libvcruntime:ehstate.obj
 0001:0001e084       ?StateFromIp@__FrameHandler3@@SAHPEBU_s_FuncInfo@@PEAU_xDISPATCHER_CONTEXT@@_K@Z 000000018001f084 f   libvcruntime:ehstate.obj
 0001:0001e0ec       ?StateFromIp@__FrameHandler4@@SAHPEAUFuncInfo4@FH4@@PEAU_xDISPATCHER_CONTEXT@@_K@Z 000000018001f0ec f   libvcruntime:ehstate.obj
 0001:0001e1dc       ?__FuncRelToRealOffset@@YA_KPEAU_xDISPATCHER_CONTEXT@@I@Z 000000018001f1dc f i libvcruntime:ehstate.obj
 0001:0001e1ec       ?__RVAtoRealOffset@@YA_KPEAU_xDISPATCHER_CONTEXT@@H@Z 000000018001f1ec f i libvcruntime:ehstate.obj
 0001:0001f830       ??$TypeMatchHelper@V__FrameHandler3@@@@YAHPEBU_s_HandlerType@@PEBU_s_CatchableType@@PEBU_s_ThrowInfo@@@Z 0000000180020830 f i libvcruntime:frame.obj
 0001:0001f970       ??$TypeMatchHelper@V__FrameHandler4@@@@YAHPEAUHandlerType4@FH4@@PEBU_s_CatchableType@@PEBU_s_ThrowInfo@@@Z 0000000180020970 f i libvcruntime:frame.obj
 0001:0001fab4       ??$__InternalCxxFrameHandler@V__FrameHandler3@@@@YA?AW4_EXCEPTION_DISPOSITION@@PEAUEHExceptionRecord@@PEA_KPEAU_CONTEXT@@PEAU_xDISPATCHER_CONTEXT@@PEBU_s_FuncInfo@@H1E@Z 0000000180020ab4 f i libvcruntime:frame.obj
 0001:0001fcf4       ??$__InternalCxxFrameHandler@V__FrameHandler4@@@@YA?AW4_EXCEPTION_DISPOSITION@@PEAUEHExceptionRecord@@PEA_KPEAU_CONTEXT@@PEAU_xDISPATCHER_CONTEXT@@PEAUFuncInfo4@FH4@@H1E@Z 0000000180020cf4 f i libvcruntime:frame.obj
 0001:0001ff94       ??$__InternalCxxFrameHandlerWrapper@V__FrameHandler3@@@@YA?AW4_EXCEPTION_DISPOSITION@@PEAUEHExceptionRecord@@PEA_KPEAU_CONTEXT@@PEAU_xDISPATCHER_CONTEXT@@PEBU_s_FuncInfo@@H1E@Z 0000000180020f94 f i libvcruntime:frame.obj
 0001:0001ff9c       ??$__InternalCxxFrameHandlerWrapper@V__FrameHandler4@@@@YA?AW4_EXCEPTION_DISPOSITION@@PEAUEHExceptionRecord@@PEA_KPEAU_CONTEXT@@PEAU_xDISPATCHER_CONTEXT@@PEAUFuncInfo4@FH4@@H1E@Z 0000000180020f9c f i libvcruntime:frame.obj
 0001:0001ffe8       ??0HandlerMap4@FH4@@QEAA@PEBUTryBlockMapEntry4@1@_KH@Z 0000000180020fe8 f i libvcruntime:frame.obj
 0001:0002006c       ??0HandlerMap@__FrameHandler3@@QEAA@PEBU_s_TryBlockMapEntry@@_KI@Z 000000018002106c f i libvcruntime:frame.obj
 0001:00020080       ??0HandlerType4@FH4@@QEAA@XZ 0000000180021080 f i libvcruntime:frame.obj
 0001:00020098       ??0TryBlockMap4@FH4@@QEAA@PEBUFuncInfo4@1@_K@Z 0000000180021098 f i libvcruntime:frame.obj
 0001:0002017c       ??0TryBlockMap@__FrameHandler3@@QEAA@PEBU_s_FuncInfo@@_K@Z 000000018002117c f i libvcruntime:frame.obj
 0001:00020188       ??0UWMap4@FH4@@QEAA@PEBUFuncInfo4@1@_K@Z 0000000180021188 f i libvcruntime:frame.obj
 0001:000201d8       ??0bad_exception@std@@QEAA@AEBV01@@Z 00000001800211d8 f i libvcruntime:frame.obj
 0001:00020214       ??0bad_exception@std@@QEAA@XZ 0000000180021214 f i libvcruntime:frame.obj
 0001:00020234       ??0iterator@HandlerMap4@FH4@@QEAA@AEAV12@I@Z 0000000180021234 f i libvcruntime:frame.obj
 0001:00020240       ??0iterator@HandlerMap@__FrameHandler3@@QEAA@AEAV12@I@Z 0000000180021240 f i libvcruntime:frame.obj
 0001:0002024c       ??0iterator@UWMap4@FH4@@QEAA@AEAV12@PEAE@Z 000000018002124c f i libvcruntime:frame.obj
 0001:00020258       ??1bad_exception@std@@UEAA@XZ 0000000180021258 f i libvcruntime:frame.obj
 0001:0002026c       ??4iterator@UWMap4@FH4@@QEAAAEAV012@AEBV012@@Z 000000018002126c f i libvcruntime:frame.obj
 0001:0002028c       ??8iterator@HandlerMap4@FH4@@QEBA_NAEBV012@@Z 000000018002128c f i libvcruntime:frame.obj
 0001:00020298       ??8iterator@HandlerMap@__FrameHandler3@@QEBA_NAEBV012@@Z 0000000180021298 f i libvcruntime:frame.obj
 0001:000202a4       ??8type_info@@QEBA_NAEBV0@@Z 00000001800212a4 f i libvcruntime:frame.obj
 0001:000202c0       ??9iterator@HandlerMap4@FH4@@QEBA_NAEBV012@@Z 00000001800212c0 f i libvcruntime:frame.obj
 0001:000202cc       ??9iterator@HandlerMap@__FrameHandler3@@QEBA_NAEBV012@@Z 00000001800212cc f i libvcruntime:frame.obj
 0001:000202d8       ??Diterator@HandlerMap4@FH4@@QEAA?AUHandlerType4@2@XZ 00000001800212d8 f i libvcruntime:frame.obj
 0001:000202f8       ??Diterator@HandlerMap@__FrameHandler3@@QEAA?BU_s_HandlerType@@XZ 00000001800212f8 f i libvcruntime:frame.obj
 0001:0002031c       ??Diterator@TryBlockMap@__FrameHandler3@@QEAA?BU_s_TryBlockMapEntry@@XZ 000000018002131c f i libvcruntime:frame.obj
 0001:0002034c       ??Diterator@UWMap4@FH4@@QEAA?AUUnwindMapEntry4@2@XZ 000000018002134c f i libvcruntime:frame.obj
 0001:000203a0       ??Eiterator@HandlerMap4@FH4@@QEAAAEAV012@XZ 00000001800213a0 f i libvcruntime:frame.obj
 0001:000203c0       ??Eiterator@HandlerMap@__FrameHandler3@@QEAAAEAV012@XZ 00000001800213c0 f i libvcruntime:frame.obj
 0001:000203c8       ??Eiterator@TryBlockMap@__FrameHandler3@@QEAAAEAV012@XZ 00000001800213c8 f i libvcruntime:frame.obj
 0001:000203d0       ??Eiterator@UWMap4@FH4@@QEAAAEAV012@XZ 00000001800213d0 f i libvcruntime:frame.obj
 0001:000203f0       ??Giterator@UWMap4@FH4@@QEBA_JAEBV012@@Z 00000001800213f0 f i libvcruntime:frame.obj
 0001:000203fc       ??Miterator@TryBlockMap4@FH4@@QEBA_NAEBV012@@Z 00000001800213fc f i libvcruntime:frame.obj
 0001:00020408       ??Miterator@TryBlockMap@__FrameHandler3@@QEBA_NAEBV012@@Z 0000000180021408 f i libvcruntime:frame.obj
 0001:00020414       ??Oiterator@UWMap4@FH4@@QEBA_NAEBV012@@Z 0000000180021414 f i libvcruntime:frame.obj
 0001:00020420       ??Piterator@UWMap4@FH4@@QEBA_NAEBV012@@Z 0000000180021420 f i libvcruntime:frame.obj
 0001:00020430       ??_Ebad_exception@std@@UEAAPEAXI@Z 0000000180021430 f i libvcruntime:frame.obj
 0001:00020430       ??_Gbad_exception@std@@UEAAPEAXI@Z 0000000180021430 f i libvcruntime:frame.obj
 0001:00020474       ?BuildCatchObject@__FrameHandler3@@SAXPEAUEHExceptionRecord@@PEAXPEBU_s_HandlerType@@PEBU_s_CatchableType@@@Z 0000000180021474 f   libvcruntime:frame.obj
 0001:0002047c       ?BuildCatchObject@__FrameHandler4@@SAXPEAUEHExceptionRecord@@PEAXPEAUHandlerType4@FH4@@PEBU_s_CatchableType@@@Z 000000018002147c f   libvcruntime:frame.obj
 0001:00020484       ?BuildCatchObjectHelper@__FrameHandler3@@SAHPEAUEHExceptionRecord@@PEAXPEBU_s_HandlerType@@PEBU_s_CatchableType@@@Z 0000000180021484 f   libvcruntime:frame.obj
 0001:0002048c       ?BuildCatchObjectHelper@__FrameHandler4@@SAHPEAUEHExceptionRecord@@PEAXPEAUHandlerType4@FH4@@PEBU_s_CatchableType@@@Z 000000018002148c f   libvcruntime:frame.obj
 0001:000204a0       ?CxxCallCatchBlock@__FrameHandler3@@SAPEAXPEAU_EXCEPTION_RECORD@@@Z 00000001800214a0 f   libvcruntime:frame.obj
 0001:00020690       ?CxxCallCatchBlock@__FrameHandler4@@SAPEAXPEAU_EXCEPTION_RECORD@@@Z 0000000180021690 f   libvcruntime:frame.obj
 0001:000208ec       ?DecompHandler@HandlerMap4@FH4@@AEAAXXZ 00000001800218ec f i libvcruntime:frame.obj
 0001:00020b38       ?FrameUnwindToState@__FrameHandler3@@SAXPEA_KPEAU_xDISPATCHER_CONTEXT@@PEBU_s_FuncInfo@@H@Z 0000000180021b38 f   libvcruntime:frame.obj
 0001:00020cc4       ?FrameUnwindToState@__FrameHandler4@@SAXPEA_KPEAU_xDISPATCHER_CONTEXT@@PEAUFuncInfo4@FH4@@H@Z 0000000180021cc4 f   libvcruntime:frame.obj
 0001:00020fc8       ?GetHandlerSearchState@__FrameHandler3@@SAHPEA_KPEAU_xDISPATCHER_CONTEXT@@PEBU_s_FuncInfo@@@Z 0000000180021fc8 f i libvcruntime:frame.obj
 0001:00021064       ?GetHandlerSearchState@__FrameHandler4@@SAHPEA_KPEAU_xDISPATCHER_CONTEXT@@PEAUFuncInfo4@FH4@@@Z 0000000180022064 f i libvcruntime:frame.obj
 0001:000210c8       ?GetMaxState@__FrameHandler3@@SAHPEAU_xDISPATCHER_CONTEXT@@PEBU_s_FuncInfo@@@Z 00000001800220c8 f i libvcruntime:frame.obj
 0001:000210cc       ?GetMaxState@__FrameHandler4@@SAHPEAU_xDISPATCHER_CONTEXT@@PEAUFuncInfo4@FH4@@@Z 00000001800220cc f i libvcruntime:frame.obj
 0001:0002127c       ?ReadEntry@UWMap4@FH4@@AEAAXPEAPEAE@Z 000000018002227c f i libvcruntime:frame.obj
 0001:00021318       ?TypeMatch@__FrameHandler3@@SAHPEBU_s_HandlerType@@PEBU_s_CatchableType@@PEBU_s_ThrowInfo@@@Z 0000000180022318 f   libvcruntime:frame.obj
 0001:00021320       ?TypeMatch@__FrameHandler4@@SAHPEAUHandlerType4@FH4@@PEBU_s_CatchableType@@PEBU_s_ThrowInfo@@@Z 0000000180022320 f   libvcruntime:frame.obj
 0001:00021328       ?WalkBack@UWMap4@FH4@@AEAAXPEAPEAE@Z 0000000180022328 f i libvcruntime:frame.obj
 0001:00021360       ?WalkBack@iterator@UWMap4@FH4@@QEAAXXZ 0000000180022360 f i libvcruntime:frame.obj
 0001:000213a0       ?WalkForward@UWMap4@FH4@@AEAAXPEAPEAE@Z 00000001800223a0 f i libvcruntime:frame.obj
 0001:000213a8       ?_CallMemberFunction1@@YAXQEAX00@Z 00000001800223a8 f i libvcruntime:frame.obj
 0001:000213b4       ?_CallMemberFunction2@@YAXQEAX00H@Z 00000001800223b4 f i libvcruntime:frame.obj
 0001:000213d8       ?begin@HandlerMap4@FH4@@QEAA?AViterator@12@XZ 00000001800223d8 f i libvcruntime:frame.obj
 0001:000213e4       ?begin@HandlerMap@__FrameHandler3@@QEAA?AViterator@12@XZ 00000001800223e4 f i libvcruntime:frame.obj
 0001:000213f0       ?begin@UWMap4@FH4@@QEAA?AViterator@12@XZ 00000001800223f0 f i libvcruntime:frame.obj
 0001:00021400       ?end@HandlerMap4@FH4@@QEAA?AViterator@12@XZ 0000000180022400 f i libvcruntime:frame.obj
 0001:0002140c       ?end@HandlerMap@__FrameHandler3@@QEAA?AViterator@12@XZ 000000018002240c f i libvcruntime:frame.obj
 0001:00021418       ?getESTypes@__FrameHandler3@@SAPEBU_s_ESTypeList@@PEBU_s_FuncInfo@@@Z 0000000180022418 f i libvcruntime:frame.obj
 0001:00021440       ?getESTypes@__FrameHandler4@@SAPEBU_s_ESTypeList@@PEAUFuncInfo4@FH4@@@Z 0000000180022440 f i libvcruntime:frame.obj
 0001:00021444       ?getLastEntry@HandlerMap4@FH4@@QEAAPEAUHandlerType4@2@XZ 0000000180022444 f i libvcruntime:frame.obj
 0001:00021494       ?getLastEntry@HandlerMap@__FrameHandler3@@QEAAPEBU_s_HandlerType@@XZ 0000000180022494 f i libvcruntime:frame.obj
 0001:000214a8       ?getMagicNum@__FrameHandler3@@SAIPEBU_s_FuncInfo@@@Z 00000001800224a8 f i libvcruntime:frame.obj
 0001:000214b0       ?getMagicNum@__FrameHandler4@@SAIPEAUFuncInfo4@FH4@@@Z 00000001800224b0 f i libvcruntime:frame.obj
 0001:000214b8       ?getNumTryBlocks@TryBlockMap4@FH4@@QEAAIXZ 00000001800224b8 f i libvcruntime:frame.obj
 0001:000214bc       ?getNumTryBlocks@TryBlockMap@__FrameHandler3@@QEAAIXZ 00000001800224bc f i libvcruntime:frame.obj
 0001:000214c4       ?getStartStop@UWMap4@FH4@@QEAAXHHAEAViterator@12@0@Z 00000001800224c4 f i libvcruntime:frame.obj
 0001:00021594       ?getStateFromIterators@UWMap4@FH4@@SAHAEBViterator@12@H0H0@Z 0000000180022594 f i libvcruntime:frame.obj
 0001:00021644       ?isEHs@__FrameHandler3@@SA_NPEBU_s_FuncInfo@@@Z 0000000180022644 f i libvcruntime:frame.obj
 0001:0002164c       ?isEHs@__FrameHandler4@@SA_NPEAUFuncInfo4@FH4@@@Z 000000018002264c f i libvcruntime:frame.obj
 0001:00021654       ?isNoExcept@__FrameHandler3@@SA_NPEBU_s_FuncInfo@@@Z 0000000180022654 f i libvcruntime:frame.obj
 0001:00021660       ?isNoExcept@__FrameHandler4@@SA_NPEAUFuncInfo4@FH4@@@Z 0000000180022660 f i libvcruntime:frame.obj
 0001:00021668       ?reset@HandlerType4@FH4@@QEAAXXZ 0000000180022668 f i libvcruntime:frame.obj
 0001:0002167c       ?resetBuffer@HandlerMap4@FH4@@QEAAXXZ 000000018002267c f i libvcruntime:frame.obj
 0001:0002168c       ?setBuffer@HandlerMap4@FH4@@QEAAXI@Z 000000018002268c f i libvcruntime:frame.obj
 0001:000216c8       __BuildCatchObject         00000001800226c8 f   libvcruntime:frame.obj
 0001:000216d0       __BuildCatchObjectHelper   00000001800226d0 f   libvcruntime:frame.obj
 0001:000216d8       __TypeMatch                00000001800226d8 f   libvcruntime:frame.obj
 0001:000216e0       __vcrt_EncodePointer       00000001800226e0 f i libvcruntime:frame.obj
 0001:00021700       _NLG_Notify                0000000180022700 f   libvcruntime:notify.obj
 0001:00021720       __NLG_Dispatch2            0000000180022720 f   libvcruntime:notify.obj
 0001:00021730       __NLG_Return2              0000000180022730 f   libvcruntime:notify.obj
 0001:0002173c       __except_validate_context_record 000000018002273c f   libvcruntime:jbcxrval.obj
 0001:00021774       __except_validate_jump_buffer 0000000180022774 f   libvcruntime:jbcxrval.obj
 0001:000217b4       __except_validate_jump_buffer_common 00000001800227b4 f i libvcruntime:jbcxrval.obj
 0001:00021810       __vcrt_InitializeCriticalSectionEx 0000000180022810 f i libvcruntime:locks.obj
 0001:00021818       __vcrt_initialize_locks    0000000180022818 f   libvcruntime:locks.obj
 0001:00021860       __vcrt_lock                0000000180022860 f   libvcruntime:locks.obj
 0001:0002187c       __vcrt_uninitialize_locks  000000018002287c f   libvcruntime:locks.obj
 0001:000218b4       __vcrt_unlock              00000001800228b4 f   libvcruntime:locks.obj
 0001:000218d0       ??$?0$00@DName@@QEAA@PEBDU?$StringLifeSelector@$00@@@Z 00000001800228d0 f i libvcruntime:undname.obj
 0001:00021914       ??$?0$00@pcharNode@@QEAA@PEBDHU?$StringLifeSelector@$00@@@Z 0000000180022914 f i libvcruntime:undname.obj
 0001:0002192c       ??$?0$01@DName@@QEAA@PEBDU?$StringLifeSelector@$01@@@Z 000000018002292c f i libvcruntime:undname.obj
 0001:00021970       ??$?0$01@pcharNode@@QEAA@PEBDHU?$StringLifeSelector@$01@@@Z 0000000180022970 f i libvcruntime:undname.obj
 0001:000219e4       ??$?0$0A@@DName@@QEAA@PEBDU?$StringLifeSelector@$0A@@@@Z 00000001800229e4 f i libvcruntime:undname.obj
 0001:00021a28       ??$?0$0A@@pcharNode@@QEAA@PEBDHU?$StringLifeSelector@$0A@@@@Z 0000000180022a28 f i libvcruntime:undname.obj
 0001:00021a9c       ??$?0_K$0A@@?$optional@_K@std@@QEAA@$$QEA_K@Z 0000000180022a9c f i libvcruntime:undname.obj
 0001:00021aac       ??$?0_K@?$_Optional_construct_base@_K@std@@QEAA@Uin_place_t@1@$$QEA_K@Z 0000000180022aac f i libvcruntime:undname.obj
 0001:00021abc       ??$?0_K@?$_Optional_destruct_base@_K$00@std@@QEAA@Uin_place_t@1@$$QEA_K@Z 0000000180022abc f i libvcruntime:undname.obj
 0001:00021acc       ??$append@VDNameNode@@@DName@@AEAAXPEBVDNameNode@@@Z 0000000180022acc f i libvcruntime:undname.obj
 0001:00021b30       ??$append@VDNameStatusNode@@@DName@@AEAAXPEBVDNameStatusNode@@@Z 0000000180022b30 f i libvcruntime:undname.obj
 0001:00021b94       ??$append@VcharNode@@@DName@@AEAAXPEBVcharNode@@@Z 0000000180022b94 f i libvcruntime:undname.obj
 0001:00021bf8       ??$append@VpDNameNode@@@DName@@AEAAXPEBVpDNameNode@@@Z 0000000180022bf8 f i libvcruntime:undname.obj
 0001:00021c5c       ??$append@VpcharNode@@@DName@@AEAAXPEBVpcharNode@@@Z 0000000180022c5c f i libvcruntime:undname.obj
 0001:00021cc0       ??$doPchar@$00@DName@@AEAAXPEBDH@Z 0000000180022cc0 f i libvcruntime:undname.obj
 0001:00021d64       ??$doPchar@$01@DName@@AEAAXPEBDH@Z 0000000180022d64 f i libvcruntime:undname.obj
 0001:00021dfc       ??$doPchar@$0A@@DName@@AEAAXPEBDH@Z 0000000180022dfc f i libvcruntime:undname.obj
 0001:00021e94       ??$forward@_K@std@@YA$$QEA_KAEA_K@Z 0000000180022e94 f i libvcruntime:undname.obj
 0001:00021fb4       ??$size@D$04@std@@YA_KAEAY04$$CBD@Z 0000000180022fb4 f i libvcruntime:undname.obj
 0001:00021fbc       ??0?$_Optional_construct_base@_K@std@@QEAA@XZ 0000000180022fbc f i libvcruntime:undname.obj
 0001:00021fc4       ??0?$_Optional_destruct_base@_K$00@std@@QEAA@XZ 0000000180022fc4 f i libvcruntime:undname.obj
 0001:00021fcc       ??0?$optional@_K@std@@QEAA@XZ 0000000180022fcc f i libvcruntime:undname.obj
 0001:00021fd4       ??0Block@_HeapManager@@QEAA@XZ 0000000180022fd4 f i libvcruntime:undname.obj
 0001:00021fdc       ??0DName@@QEAA@AEAPEBDD@Z  0000000180022fdc f   libvcruntime:undname.obj
 0001:0002208c       ??0DName@@QEAA@AEBUStringLiteral@@@Z 000000018002308c f   libvcruntime:undname.obj
 0001:000220b8       ??0DName@@QEAA@AEBV0@@Z    00000001800230b8 f i libvcruntime:undname.obj
 0001:000220c8       ??0DName@@QEAA@D@Z         00000001800230c8 f   libvcruntime:undname.obj
 0001:000220e8       ??0DName@@QEAA@PEAV0@@Z    00000001800230e8 f   libvcruntime:undname.obj
 0001:0002216c       ??0DName@@QEAA@W4DNameStatus@@@Z 000000018002316c f   libvcruntime:undname.obj
 0001:0002219c       ??0DName@@QEAA@XZ          000000018002319c f i libvcruntime:undname.obj
 0001:000221a8       ??0DName@@QEAA@_J@Z        00000001800231a8 f   libvcruntime:undname.obj
 0001:00022250       ??0DName@@QEAA@_K@Z        0000000180023250 f   libvcruntime:undname.obj
 0001:000222d8       ??0DNameNode@@IEAA@XZ      00000001800232d8 f i libvcruntime:undname.obj
 0001:000222e8       ??0Replicator@@QEAA@XZ     00000001800232e8 f i libvcruntime:undname.obj
 0001:00022318       ??0UnDecorator@@QEAA@PEBDP6APEADJ@ZK@Z 0000000180023318 f i libvcruntime:undname.obj
 0001:000223c4       ??0_Nontrivial_dummy_type@std@@QEAA@XZ 00000001800233c4 f i libvcruntime:undname.obj
 0001:000223c8       ??0charNode@@QEAA@D@Z      00000001800233c8 f i libvcruntime:undname.obj
 0001:000223dc       ??0pDNameNode@@QEAA@PEAVDName@@@Z 00000001800233dc f   libvcruntime:undname.obj
 0001:00022404       ??0pairNode@@QEAA@PEBVDNameNode@@0@Z 0000000180023404 f i libvcruntime:undname.obj
 0001:00022428       ??2@YAPEAX_KAEAV_HeapManager@@H@Z 0000000180023428 f   libvcruntime:undname.obj
 0001:00022454       ??4DName@@QEAAAEAV0@AEBUStringLiteral@@@Z 0000000180023454 f   libvcruntime:undname.obj
 0001:0002247c       ??4DName@@QEAAAEAV0@AEBV0@@Z 000000018002347c f   libvcruntime:undname.obj
 0001:0002248c       ??4DName@@QEAAAEAV0@D@Z    000000018002348c f i libvcruntime:undname.obj
 0001:000224ac       ??4DName@@QEAAAEAV0@PEAV0@@Z 00000001800234ac f   libvcruntime:undname.obj
 0001:00022524       ??4DName@@QEAAAEAV0@W4DNameStatus@@@Z 0000000180023524 f   libvcruntime:undname.obj
 0001:00022554       ??AReplicator@@QEBA?AVDName@@H@Z 0000000180023554 f   libvcruntime:undname.obj
 0001:00022598       ??B?$optional@_K@std@@QEBA_NXZ 0000000180023598 f i libvcruntime:undname.obj
 0001:0002259c       ??D?$_Optional_construct_base@_K@std@@QEGAAAEA_KXZ 000000018002359c f i libvcruntime:undname.obj
 0001:000225a0       ??H@YA?AVDName@@AEBUStringLiteral@@AEBV0@@Z 00000001800235a0 f i libvcruntime:undname.obj
 0001:000225d8       ??H@YA?AVDName@@DAEBV0@@Z  00000001800235d8 f i libvcruntime:undname.obj
 0001:0002261c       ??H@YA?AVDName@@W4DNameStatus@@AEBV0@@Z 000000018002361c f i libvcruntime:undname.obj
 0001:00022668       ??HDName@@QEBA?AV0@AEBUStringLiteral@@@Z 0000000180023668 f   libvcruntime:undname.obj
 0001:00022694       ??HDName@@QEBA?AV0@AEBV0@@Z 0000000180023694 f   libvcruntime:undname.obj
 0001:000226c0       ??HDName@@QEBA?AV0@D@Z     00000001800236c0 f   libvcruntime:undname.obj
 0001:000226ec       ??HDName@@QEBA?AV0@PEAV0@@Z 00000001800236ec f   libvcruntime:undname.obj
 0001:00022718       ??HDName@@QEBA?AV0@W4DNameStatus@@@Z 0000000180023718 f   libvcruntime:undname.obj
 0001:00022744       ??HStringLiteral@@QEBA?AU0@H@Z 0000000180023744 f i libvcruntime:undname.obj
 0001:0002275c       ??YDName@@QEAAAEAV0@AEBUStringLiteral@@@Z 000000018002375c f   libvcruntime:undname.obj
 0001:000227dc       ??YDName@@QEAAAEAV0@AEBV0@@Z 00000001800237dc f   libvcruntime:undname.obj
 0001:00022834       ??YDName@@QEAAAEAV0@D@Z    0000000180023834 f   libvcruntime:undname.obj
 0001:000228a0       ??YDName@@QEAAAEAV0@PEAV0@@Z 00000001800238a0 f   libvcruntime:undname.obj
 0001:00022934       ??YDName@@QEAAAEAV0@W4DNameStatus@@@Z 0000000180023934 f   libvcruntime:undname.obj
 0001:0002298c       ??YReplicator@@QEAAAEAV0@AEBVDName@@@Z 000000018002398c f   libvcruntime:undname.obj
 0001:000229e4       ??_5DName@@QEAAAEAV0@AEBV0@@Z 00000001800239e4 f   libvcruntime:undname.obj
 0001:000229fc       ??__K_l@@YA?AUStringLiteral@@PEBD_K@Z 00000001800239fc f i libvcruntime:undname.obj
 0001:00022a08       ?Constructor@_HeapManager@@QEAAXP6APEAX_K@ZP6AXPEAX@Z@Z 0000000180023a08 f i libvcruntime:undname.obj
 0001:00022a20       ?Destructor@_HeapManager@@QEAAXXZ 0000000180023a20 f i libvcruntime:undname.obj
 0001:00022a6c       ?UScore@UnDecorator@@SA?AUStringLiteral@@W4Tokens@@@Z 0000000180023a6c f   libvcruntime:undname.obj
 0001:00022ab8       ?composeDeclaration@UnDecorator@@CA?AVDName@@AEBV2@@Z 0000000180023ab8 f i libvcruntime:undname.obj
 0001:000239b4       ?doAccessSpecifiers@UnDecorator@@SAHXZ 00000001800249b4 f i libvcruntime:undname.obj
 0001:000239c4       ?doAllocationLanguage@UnDecorator@@SAHXZ 00000001800249c4 f i libvcruntime:undname.obj
 0001:000239d4       ?doAllocationModel@UnDecorator@@SAHXZ 00000001800249d4 f i libvcruntime:undname.obj
 0001:000239e4       ?doEcsu@UnDecorator@@SAHXZ 00000001800249e4 f i libvcruntime:undname.obj
 0001:000239f4       ?doEllipsis@UnDecorator@@SAHXZ 00000001800249f4 f i libvcruntime:undname.obj
 0001:00023a04       ?doFunctionReturns@UnDecorator@@SAHXZ 0000000180024a04 f i libvcruntime:undname.obj
 0001:00023a14       ?doMSKeywords@UnDecorator@@SAHXZ 0000000180024a14 f i libvcruntime:undname.obj
 0001:00023a24       ?doMemberTypes@UnDecorator@@SAHXZ 0000000180024a24 f i libvcruntime:undname.obj
 0001:00023a34       ?doNameOnly@UnDecorator@@SAHXZ 0000000180024a34 f i libvcruntime:undname.obj
 0001:00023a40       ?doNoIdentCharCheck@UnDecorator@@SAHXZ 0000000180024a40 f i libvcruntime:undname.obj
 0001:00023a4c       ?doPchar@DName@@AEAAXD@Z   0000000180024a4c f   libvcruntime:undname.obj
 0001:00023a9c       ?doPtr64@UnDecorator@@SAHXZ 0000000180024a9c f i libvcruntime:undname.obj
 0001:00023aac       ?doRestrictionSpec@UnDecorator@@SAHXZ 0000000180024aac f i libvcruntime:undname.obj
 0001:00023abc       ?doThisTypes@UnDecorator@@SAHXZ 0000000180024abc f i libvcruntime:undname.obj
 0001:00023ad0       ?doThrowTypes@UnDecorator@@SAHXZ 0000000180024ad0 f i libvcruntime:undname.obj
 0001:00023ae0       ?doTypeOnly@UnDecorator@@SAHXZ 0000000180024ae0 f i libvcruntime:undname.obj
 0001:00023aec       ?doUnderScore@UnDecorator@@SAHXZ 0000000180024aec f i libvcruntime:undname.obj
 0001:00023af8       ?getAddressOf@UnDecorator@@CA?AVDName@@XZ 0000000180024af8 f   libvcruntime:undname.obj
 0001:00023b88       ?getArgumentList@UnDecorator@@CA?AVDName@@XZ 0000000180024b88 f   libvcruntime:undname.obj
 0001:00023d58       ?getArgumentTypes@UnDecorator@@CA?AVDName@@XZ 0000000180024d58 f   libvcruntime:undname.obj
 0001:00023ea4       ?getArrayAccess@UnDecorator@@CA?AVDName@@XZ 0000000180024ea4 f   libvcruntime:undname.obj
 0001:00023f40       ?getArrayObject@UnDecorator@@CA?AVDName@@XZ 0000000180024f40 f   libvcruntime:undname.obj
 0001:00023ffc       ?getArrayType@UnDecorator@@CA?AVDName@@AEBV2@@Z 0000000180024ffc f i libvcruntime:undname.obj
 0001:00024268       ?getBasedType@UnDecorator@@CA?AVDName@@XZ 0000000180025268 f   libvcruntime:undname.obj
 0001:00024360       ?getBasicDataType@UnDecorator@@CA?AVDName@@AEBV2@@Z 0000000180025360 f   libvcruntime:undname.obj
 0001:00024964       ?getCHPEName@UnDecorator@@QEAAPEADPEADH@Z 0000000180025964 f i libvcruntime:undname.obj
 0001:00024a88       ?getCallIndex@UnDecorator@@CA?AVDName@@XZ 0000000180025a88 f i libvcruntime:undname.obj
 0001:00024aa4       ?getCallingConvention@UnDecorator@@CA?AVDName@@XZ 0000000180025aa4 f   libvcruntime:undname.obj
 0001:00024bdc       ?getDataIndirectType@UnDecorator@@CA?AVDName@@AEBV2@W4IndirectionKind@@0H@Z 0000000180025bdc f   libvcruntime:undname.obj
 0001:00025500       ?getDataIndirectType@UnDecorator@@CA?AVDName@@XZ 0000000180026500 f i libvcruntime:undname.obj
 0001:0002553c       ?getDataType@UnDecorator@@CA?AVDName@@PEAV2@@Z 000000018002653c f   libvcruntime:undname.obj
 0001:00025650       ?getDecoratedName@UnDecorator@@CA?AVDName@@XZ 0000000180026650 f   libvcruntime:undname.obj
 0001:00025938       ?getDimension@UnDecorator@@CA?AVDName@@_N@Z 0000000180026938 f   libvcruntime:undname.obj
 0001:00025a80       ?getDispatchTarget@UnDecorator@@CA?AVDName@@XZ 0000000180026a80 f   libvcruntime:undname.obj
 0001:00025ae0       ?getDisplacement@UnDecorator@@CA?AVDName@@XZ 0000000180026ae0 f i libvcruntime:undname.obj
 0001:00025afc       ?getECSUDataType@UnDecorator@@CA?AVDName@@XZ 0000000180026afc f   libvcruntime:undname.obj
 0001:00025cf8       ?getECSUName@UnDecorator@@CA?AVDName@@XZ 0000000180026cf8 f i libvcruntime:undname.obj
 0001:00025d10       ?getEnumType@UnDecorator@@CA?AVDName@@XZ 0000000180026d10 f i libvcruntime:undname.obj
 0001:00025e40       ?getExtendedDataIndirectType@UnDecorator@@CA?AVDName@@AEAW4IndirectionKind@@AEA_NH@Z 0000000180026e40 f   libvcruntime:undname.obj
 0001:00026048       ?getExternalDataType@UnDecorator@@CA?AVDName@@AEBV2@@Z 0000000180027048 f i libvcruntime:undname.obj
 0001:00026108       ?getFloatingPoint@UnDecorator@@CA?AVDName@@H@Z 0000000180027108 f   libvcruntime:undname.obj
 0001:00026270       ?getFunctionIndirectType@UnDecorator@@CA?AVDName@@AEBV2@@Z 0000000180027270 f   libvcruntime:undname.obj
 0001:000267a4       ?getGuardNumber@UnDecorator@@CA?AVDName@@XZ 00000001800277a4 f i libvcruntime:undname.obj
 0001:000267c0       ?getLastChar@DName@@QEBADXZ 00000001800277c0 f i libvcruntime:undname.obj
 0001:000267e0       ?getLastChar@DNameStatusNode@@UEBADXZ 00000001800277e0 f i libvcruntime:undname.obj
 0001:000267f0       ?getLastChar@charNode@@UEBADXZ 00000001800277f0 f i libvcruntime:undname.obj
 0001:00026800       ?getLastChar@pDNameNode@@UEBADXZ 0000000180027800 f i libvcruntime:undname.obj
 0001:00026830       ?getLastChar@pairNode@@UEBADXZ 0000000180027830 f i libvcruntime:undname.obj
 0001:00026870       ?getLastChar@pcharNode@@UEBADXZ 0000000180027870 f i libvcruntime:undname.obj
 0001:00026884       ?getLexicalFrame@UnDecorator@@CA?AVDName@@XZ 0000000180027884 f i libvcruntime:undname.obj
 0001:000268e8       ?getMemberAccess@UnDecorator@@CA?AVDName@@XZ 00000001800278e8 f   libvcruntime:undname.obj
 0001:0002697c       ?getMemoryWithBuffer@_HeapManager@@QEAAPEAX_K@Z 000000018002797c f   libvcruntime:undname.obj
 0001:00026a0c       ?getMemoryWithoutBuffer@_HeapManager@@QEAAPEAX_K@Z 0000000180027a0c f   libvcruntime:undname.obj
 0001:00026a20       ?getNoexcept@UnDecorator@@CA?AVDName@@XZ 0000000180027a20 f   libvcruntime:undname.obj
 0001:00026a84       ?getNumberOfDimensions@UnDecorator@@CAHXZ 0000000180027a84 f   libvcruntime:undname.obj
 0001:00026aec       ?getOperatorName@UnDecorator@@CA?AVDName@@_NPEA_N@Z 0000000180027aec f i libvcruntime:undname.obj
 0001:000274ac       ?getPointerToMember@UnDecorator@@CA?AVDName@@XZ 00000001800284ac f   libvcruntime:undname.obj
 0001:000275a4       ?getPointerType@UnDecorator@@CA?AVDName@@AEBV2@0@Z 00000001800285a4 f i libvcruntime:undname.obj
 0001:000275c4       ?getPointerTypeArray@UnDecorator@@CA?AVDName@@AEBV2@0@Z 00000001800285c4 f i libvcruntime:undname.obj
 0001:000275e0       ?getPrimaryDataType@UnDecorator@@CA?AVDName@@AEBV2@@Z 00000001800285e0 f   libvcruntime:undname.obj
 0001:00027898       ?getPtrRefDataType@UnDecorator@@CA?AVDName@@AEBV2@H@Z 0000000180028898 f   libvcruntime:undname.obj
 0001:00027a64       ?getPtrRefType@UnDecorator@@CA?AVDName@@AEBV2@0W4IndirectionKind@@@Z 0000000180028a64 f   libvcruntime:undname.obj
 0001:00027c3c       ?getReferenceType@UnDecorator@@CA?AVDName@@AEBV2@0W4IndirectionKind@@@Z 0000000180028c3c f i libvcruntime:undname.obj
 0001:00027c54       ?getRestrictionSpec@UnDecorator@@CA?AVDName@@XZ 0000000180028c54 f   libvcruntime:undname.obj
 0001:00027e30       ?getReturnType@UnDecorator@@CA?AVDName@@PEAV2@@Z 0000000180028e30 f   libvcruntime:undname.obj
 0001:00027e64       ?getScope@UnDecorator@@CA?AVDName@@XZ 0000000180028e64 f   libvcruntime:undname.obj
 0001:0002831c       ?getScopedName@UnDecorator@@CA?AVDName@@XZ 000000018002931c f   libvcruntime:undname.obj
 0001:00028460       ?getSignedDimension@UnDecorator@@CA?AVDName@@XZ 0000000180029460 f   libvcruntime:undname.obj
 0001:000284e8       ?getStorageConvention@UnDecorator@@CA?AVDName@@XZ 00000001800294e8 f i libvcruntime:undname.obj
 0001:00028524       ?getString@DName@@QEBAPEADPEAD0@Z 0000000180029524 f i libvcruntime:undname.obj
 0001:00028540       ?getString@DName@@QEBAPEADPEADH@Z 0000000180029540 f i libvcruntime:undname.obj
 0001:000285e0       ?getString@DNameStatusNode@@UEBAPEADPEAD0@Z 00000001800295e0 f i libvcruntime:undname.obj
 0001:00028630       ?getString@charNode@@UEBAPEADPEAD0@Z 0000000180029630 f i libvcruntime:undname.obj
 0001:00028650       ?getString@pDNameNode@@UEBAPEADPEAD0@Z 0000000180029650 f i libvcruntime:undname.obj
 0001:00028680       ?getString@pairNode@@UEBAPEADPEAD0@Z 0000000180029680 f i libvcruntime:undname.obj
 0001:000286d0       ?getString@pcharNode@@UEBAPEADPEAD0@Z 00000001800296d0 f i libvcruntime:undname.obj
 0001:00028708       ?getStringEncoding@UnDecorator@@CA?AVDName@@W4PrefixKind@@H@Z 0000000180029708 f   libvcruntime:undname.obj
 0001:00028818       ?getStringHelper@@YAPEADPEADPEBD1H@Z 0000000180029818 f i libvcruntime:undname.obj
 0001:00028848       ?getStringObject@UnDecorator@@CA?AVDName@@XZ 0000000180029848 f   libvcruntime:undname.obj
 0001:000288b0       ?getSymbolName@UnDecorator@@CA?AVDName@@XZ 00000001800298b0 f i libvcruntime:undname.obj
 0001:000288fc       ?getTemplateArgumentList@UnDecorator@@CA?AVDName@@XZ 00000001800298fc f   libvcruntime:undname.obj
 0001:00028b1c       ?getTemplateName@UnDecorator@@CA?AVDName@@_N@Z 0000000180029b1c f   libvcruntime:undname.obj
 0001:00028de4       ?getTemplateNonTypeArgument@UnDecorator@@CA?AVDName@@XZ 0000000180029de4 f   libvcruntime:undname.obj
 0001:00029338       ?getTemplateTypeArgument@UnDecorator@@CA?AVDName@@XZ 000000018002a338 f   libvcruntime:undname.obj
 0001:000294a0       ?getThisType@UnDecorator@@CA?AVDName@@XZ 000000018002a4a0 f i libvcruntime:undname.obj
 0001:000294e0       ?getThrowTypes@UnDecorator@@CA?AVDName@@XZ 000000018002a4e0 f   libvcruntime:undname.obj
 0001:00029504       ?getTypeEncoding@UnDecorator@@CAHXZ 000000018002a504 f i libvcruntime:undname.obj
 0001:000298c0       ?getUndecoratedName@UnDecorator@@QEAAPEADPEADH@Z 000000018002a8c0 f i libvcruntime:undname.obj
 0001:00029a14       ?getUnionObject@UnDecorator@@CA?AVDName@@XZ 000000018002aa14 f   libvcruntime:undname.obj
 0001:00029aec       ?getVCallThunkType@UnDecorator@@CA?AVDName@@XZ 000000018002aaec f i libvcruntime:undname.obj
 0001:00029b64       ?getValue@UnDecorator@@CA?AV?$optional@_K@std@@XZ 000000018002ab64 f   libvcruntime:undname.obj
 0001:00029ba8       ?getValueObject@UnDecorator@@CA?AVDName@@XZ 000000018002aba8 f   libvcruntime:undname.obj
 0001:00029ce8       ?getVbTableType@UnDecorator@@CA?AVDName@@AEBV2@@Z 000000018002ace8 f i libvcruntime:undname.obj
 0001:00029d00       ?getVdispMapType@UnDecorator@@CA?AVDName@@AEBV2@@Z 000000018002ad00 f i libvcruntime:undname.obj
 0001:00029d7c       ?getVfTableType@UnDecorator@@CA?AVDName@@AEBV2@@Z 000000018002ad7c f i libvcruntime:undname.obj
 0001:00029f88       ?getZName@UnDecorator@@CA?AVDName@@_N0@Z 000000018002af88 f   libvcruntime:undname.obj
 0001:0002a25c       ?get_current_character_and_increment_buffer@UnDecorator@@CADXZ 000000018002b25c f i libvcruntime:undname.obj
 0001:0002a274       ?haveTemplateParameters@UnDecorator@@SAHXZ 000000018002b274 f i libvcruntime:undname.obj
 0001:0002a280       ?increment_buffer@UnDecorator@@CA_N_K@Z 000000018002b280 f i libvcruntime:undname.obj
 0001:0002a2ac       ?increment_buffer_no_check@UnDecorator@@CAXXZ 000000018002b2ac f i libvcruntime:undname.obj
 0001:0002a2b4       ?increment_buffer_no_check@UnDecorator@@CAX_K@Z 000000018002b2b4 f i libvcruntime:undname.obj
 0001:0002a2bc       ?isArray@DName@@QEBAHXZ    000000018002b2bc f i libvcruntime:undname.obj
 0001:0002a2c8       ?isComArray@DName@@QEBAHXZ 000000018002b2c8 f i libvcruntime:undname.obj
 0001:0002a2d4       ?isEmpty@DName@@QEBAHXZ    000000018002b2d4 f i libvcruntime:undname.obj
 0001:0002a2e0       ?isFull@Replicator@@QEBAHXZ 000000018002b2e0 f i libvcruntime:undname.obj
 0001:0002a2ec       ?isNoTE@DName@@QEBAHXZ     000000018002b2ec f i libvcruntime:undname.obj
 0001:0002a2f8       ?isPinPtr@DName@@QEBAHXZ   000000018002b2f8 f i libvcruntime:undname.obj
 0001:0002a304       ?isPtrRef@DName@@QEBAHXZ   000000018002b304 f i libvcruntime:undname.obj
 0001:0002a310       ?isUDC@DName@@QEBAHXZ      000000018002b310 f i libvcruntime:undname.obj
 0001:0002a328       ?isUDTThunk@DName@@QEBAHXZ 000000018002b328 f i libvcruntime:undname.obj
 0001:0002a340       ?isVCallThunk@DName@@QEBAHXZ 000000018002b340 f i libvcruntime:undname.obj
 0001:0002a34c       ?isValid@DName@@QEBAHXZ    000000018002b34c f i libvcruntime:undname.obj
 0001:0002a358       ?length@DName@@QEBAHXZ     000000018002b358 f i libvcruntime:undname.obj
 0001:0002a370       ?length@DNameStatusNode@@UEBAHXZ 000000018002b370 f i libvcruntime:undname.obj
 0001:0002a380       ?length@charNode@@UEBAHXZ  000000018002b380 f i libvcruntime:undname.obj
 0001:0002a390       ?length@pDNameNode@@UEBAHXZ 000000018002b390 f i libvcruntime:undname.obj
 0001:0002a3c0       ?length@pairNode@@UEBAHXZ  000000018002b3c0 f i libvcruntime:undname.obj
 0001:0002a410       ?length@pcharNode@@UEBAHXZ 000000018002b410 f i libvcruntime:undname.obj
 0001:0002a414       ?make@DNameStatusNode@@SAPEBV1@W4DNameStatus@@@Z 000000018002b414 f i libvcruntime:undname.obj
 0001:0002a438       ?parseDecoratedName@UnDecorator@@CA?AVDName@@XZ 000000018002b438 f   libvcruntime:undname.obj
 0001:0002a550       ?raw_length@DNameStatusNode@@UEBAHXZ 000000018002b550 f i libvcruntime:undname.obj
 0001:0002a560       ?raw_length@charNode@@UEBAHXZ 000000018002b560 f i libvcruntime:undname.obj
 0001:0002a570       ?raw_length@pDNameNode@@UEBAHXZ 000000018002b570 f i libvcruntime:undname.obj
 0001:0002a580       ?raw_length@pairNode@@UEBAHXZ 000000018002b580 f i libvcruntime:undname.obj
 0001:0002a590       ?raw_length@pcharNode@@UEBAHXZ 000000018002b590 f i libvcruntime:undname.obj
 0001:0002a594       ?setIsArray@DName@@QEAAXXZ 000000018002b594 f i libvcruntime:undname.obj
 0001:0002a59c       ?setIsComArray@DName@@QEAAXXZ 000000018002b59c f i libvcruntime:undname.obj
 0001:0002a5a4       ?setIsNoTE@DName@@QEAAXXZ  000000018002b5a4 f i libvcruntime:undname.obj
 0001:0002a5ac       ?setIsPinPtr@DName@@QEAAXXZ 000000018002b5ac f i libvcruntime:undname.obj
 0001:0002a5b4       ?setIsUDC@DName@@QEAAXXZ   000000018002b5b4 f i libvcruntime:undname.obj
 0001:0002a5c0       ?setIsVCallThunk@DName@@QEAAXXZ 000000018002b5c0 f i libvcruntime:undname.obj
 0001:0002a5c8       ?setPtrRef@DName@@QEAAAEAV1@XZ 000000018002b5c8 f i libvcruntime:undname.obj
 0001:0002a5d4       ?status@DName@@QEBA?AW4DNameStatus@@XZ 000000018002b5d4 f i libvcruntime:undname.obj
 0001:0002a638       __unDName                  000000018002b638 f   libvcruntime:undname.obj
 0001:0002a660       __unDNameEx                000000018002b660 f   libvcruntime:undname.obj
 0001:0002a750       snprintf                   000000018002b750 f i libvcruntime:undname.obj
 0001:0002a7a8       unDNameGenerateCHPE        000000018002b7a8 f   libvcruntime:undname.obj
 0001:0002a8f4       vsnprintf                  000000018002b8f4 f i libvcruntime:undname.obj
 0001:0002a970       _CallSettingFrame          000000018002b970 f   libvcruntime:handlers.obj
 0001:0002a9c0       _CallSettingFrame_LookupContinuationIndex 000000018002b9c0 f   libvcruntime:handlers.obj
 0001:0002a9f0       _CallSettingFrame_NotifyContinuationAddr 000000018002b9f0 f   libvcruntime:handlers.obj
 0001:0002aa20       _CallSettingFrameEncoded   000000018002ba20 f   libvcruntime:handlers.obj
 0001:0002aa68       ??$__crt_fast_decode_pointer@P6AXPEB_W00I_K@Z@@YAP6AXPEB_W00I_K@ZQ6AX000I1@Z@Z 000000018002ba68 f i libucrt:invalid_parameter.obj
 0001:0002aa80       ??$__crt_fast_encode_pointer@P6AXPEB_W00I_K@Z@@YAP6AXPEB_W00I_K@ZQ6AX000I1@Z@Z 000000018002ba80 f i libucrt:invalid_parameter.obj
 0001:0002aaa0       ??$initialize_from_array@$$BY00Q6AXPEB_W00I_K@Z@?$dual_state_global@P6AXPEB_W00I_K@Z@__crt_state_management@@QEAAXAEAY00Q6AXPEB_W00I_K@Z@Z 000000018002baa0 f i libucrt:invalid_parameter.obj
 0001:0002aaa8       ??0?$cached@H@__crt_cached_ptd_host@@QEAA@XZ 000000018002baa8 f i libucrt:invalid_parameter.obj
 0001:0002aab0       ??0?$cached@K@__crt_cached_ptd_host@@QEAA@XZ 000000018002bab0 f i libucrt:invalid_parameter.obj
 0001:0002aab8       ??0__crt_cached_ptd_host@@QEAA@QEAU__crt_locale_pointers@@@Z 000000018002bab8 f i libucrt:invalid_parameter.obj
 0001:0002aaf0       ??0__crt_scoped_get_last_error_reset@@QEAA@XZ 000000018002baf0 f i libucrt:invalid_parameter.obj
 0001:0002ab0c       ??1__crt_cached_ptd_host@@QEAA@XZ 000000018002bb0c f i libucrt:invalid_parameter.obj
 0001:0002ab5c       ??1__crt_scoped_get_last_error_reset@@QEAA@XZ 000000018002bb5c f i libucrt:invalid_parameter.obj
 0001:0002ab68       ?__crt_rotate_pointer_value@@YA_K_KH@Z 000000018002bb68 f i libucrt:invalid_parameter.obj
 0001:0002abe4       ?check_synchronize_global_state_index@__crt_cached_ptd_host@@AEAA_KAEBV__crt_scoped_get_last_error_reset@@@Z 000000018002bbe4 f i libucrt:invalid_parameter.obj
 0001:0002abfc       ?check_synchronize_global_state_index@__crt_cached_ptd_host@@AEAA_KXZ 000000018002bbfc f i libucrt:invalid_parameter.obj
 0001:0002ac30       ?check_synchronize_per_thread_data@__crt_cached_ptd_host@@AEAAPEAU__acrt_ptd@@XZ 000000018002bc30 f i libucrt:invalid_parameter.obj
 0001:0002ac98       ?dangerous_get_state_array@?$dual_state_global@P6AXPEB_W00I_K@Z@__crt_state_management@@QEAAPEAP6AXPEB_W00I_K@ZXZ 000000018002bc98 f i libucrt:invalid_parameter.obj
 0001:0002ac9c       ?force_synchronize_global_state_index@__crt_cached_ptd_host@@AEAA_KAEBV__crt_scoped_get_last_error_reset@@@Z 000000018002bc9c f i libucrt:invalid_parameter.obj
 0001:0002aca8       ?force_synchronize_per_thread_data@__crt_cached_ptd_host@@AEAAPEAU__acrt_ptd@@XZ 000000018002bca8 f i libucrt:invalid_parameter.obj
 0001:0002acfc       ?get_current_global_state_index@__crt_cached_ptd_host@@QEAA_KXZ 000000018002bcfc f i libucrt:invalid_parameter.obj
 0001:0002ad3c       ?get_current_state_index@__crt_state_management@@YA_KAEBV__crt_scoped_get_last_error_reset@@@Z 000000018002bd3c f i libucrt:invalid_parameter.obj
 0001:0002ad40       ?get_current_state_index@__crt_state_management@@YA_KXZ 000000018002bd40 f i libucrt:invalid_parameter.obj
 0001:0002ad44       ?get_raw_ptd@__crt_cached_ptd_host@@QEAAPEAU__acrt_ptd@@XZ 000000018002bd44 f i libucrt:invalid_parameter.obj
 0001:0002adac       ?get_raw_ptd_noexit@__crt_cached_ptd_host@@QEAAPEAU__acrt_ptd@@XZ 000000018002bdac f i libucrt:invalid_parameter.obj
 0001:0002ae18       ?try_synchronize_per_thread_data@__crt_cached_ptd_host@@AEAAPEAU__acrt_ptd@@XZ 000000018002be18 f i libucrt:invalid_parameter.obj
 0001:0002ae7c       ?unsafe_value@?$cached@H@__crt_cached_ptd_host@@QEAAHXZ 000000018002be7c f i libucrt:invalid_parameter.obj
 0001:0002ae80       ?unsafe_value@?$cached@K@__crt_cached_ptd_host@@QEAAKXZ 000000018002be80 f i libucrt:invalid_parameter.obj
 0001:0002ae84       ?valid@?$cached@H@__crt_cached_ptd_host@@QEBA_NXZ 000000018002be84 f i libucrt:invalid_parameter.obj
 0001:0002ae88       ?valid@?$cached@K@__crt_cached_ptd_host@@QEBA_NXZ 000000018002be88 f i libucrt:invalid_parameter.obj
 0001:0002ae8c       ?value@?$dual_state_global@P6AXPEB_W00I_K@Z@__crt_state_management@@QEAAAEAP6AXPEB_W00I_K@ZAEAV__crt_cached_ptd_host@@@Z 000000018002be8c f i libucrt:invalid_parameter.obj
 0001:0002aed8       ?value@?$dual_state_global@P6AXPEB_W00I_K@Z@__crt_state_management@@QEAAAEAP6AXPEB_W00I_K@ZXZ 000000018002bed8 f i libucrt:invalid_parameter.obj
 0001:0002aedc       __acrt_call_reportfault    000000018002bedc f   libucrt:invalid_parameter.obj
 0001:0002b038       __acrt_enable_global_locale_sync 000000018002c038 f i libucrt:invalid_parameter.obj
 0001:0002b044       __acrt_initialize_invalid_parameter_handler 000000018002c044 f   libucrt:invalid_parameter.obj
 0001:0002b04c       __acrt_locale_changed      000000018002c04c f i libucrt:invalid_parameter.obj
 0001:0002b058       _get_invalid_parameter_handler 000000018002c058 f   libucrt:invalid_parameter.obj
 0001:0002b074       _get_thread_local_invalid_parameter_handler 000000018002c074 f   libucrt:invalid_parameter.obj
 0001:0002b090       _invalid_parameter         000000018002c090 f   libucrt:invalid_parameter.obj
 0001:0002b12c       _invalid_parameter_internal 000000018002c12c f   libucrt:invalid_parameter.obj
 0001:0002b1f8       _invalid_parameter_noinfo  000000018002c1f8 f   libucrt:invalid_parameter.obj
 0001:0002b218       _invalid_parameter_noinfo_noreturn 000000018002c218 f   libucrt:invalid_parameter.obj
 0001:0002b248       _invoke_watson             000000018002c248 f   libucrt:invalid_parameter.obj
 0001:0002b290       _set_invalid_parameter_handler 000000018002c290 f   libucrt:invalid_parameter.obj
 0001:0002b2c4       _set_thread_local_invalid_parameter_handler 000000018002c2c4 f   libucrt:invalid_parameter.obj
 0001:0002b2ec       ?get_doserrno@__crt_cached_ptd_host@@QEAA@XZ 000000018002c2ec f i libucrt:errno.obj
 0001:0002b2f4       ?get_errno@__crt_cached_ptd_host@@QEAA@XZ 000000018002c2f4 f i libucrt:errno.obj
 0001:0002b2fc       ?set@?$cached@H@__crt_cached_ptd_host@@QEAAHH@Z 000000018002c2fc f i libucrt:errno.obj
 0001:0002b308       ?set@?$cached@K@__crt_cached_ptd_host@@QEAAKK@Z 000000018002c308 f i libucrt:errno.obj
 0001:0002b314       __acrt_errno_from_os_error 000000018002c314 f   libucrt:errno.obj
 0001:0002b35c       __acrt_errno_map_os_error  000000018002c35c f   libucrt:errno.obj
 0001:0002b3a4       __acrt_errno_map_os_error_ptd 000000018002c3a4 f   libucrt:errno.obj
 0001:0002b3c8       __doserrno                 000000018002c3c8 f   libucrt:errno.obj
 0001:0002b3e8       _errno                     000000018002c3e8 f   libucrt:errno.obj
 0001:0002b408       _get_doserrno              000000018002c408 f   libucrt:errno.obj
 0001:0002b444       _get_errno                 000000018002c444 f   libucrt:errno.obj
 0001:0002b480       _set_doserrno              000000018002c480 f   libucrt:errno.obj
 0001:0002b4bc       _set_errno                 000000018002c4bc f   libucrt:errno.obj
 0001:0002b4f8       free                       000000018002c4f8 f   libucrt:free.obj
 0001:0002b50c       malloc                     000000018002c50c f   libucrt:malloc.obj
 0001:0002b514       _recalloc                  000000018002c514 f   libucrt:recalloc.obj
 0001:0002b51c       _recalloc_base             000000018002c51c f   libucrt:recalloc.obj
 0001:0002b6a8       wcsncpy_s                  000000018002c6a8 f   libucrt:wcsncpy_s.obj
 0001:0002c058       ??1?$__crt_simd_cleanup_guard@$00@@QEAA@XZ 000000018002d058 f i libucrt:strnlen.obj
 0001:0002c05c       ??1?$__crt_simd_cleanup_guard@$0A@@@QEAA@XZ 000000018002d05c f i libucrt:strnlen.obj
 0001:0002c060       ?compare_equals@?$__crt_simd_traits@$00E@@SA?AT__m256i@@T2@0@Z 000000018002d060 f i libucrt:strnlen.obj
 0001:0002c06c       ?compare_equals@?$__crt_simd_traits@$00G@@SA?AT__m256i@@T2@0@Z 000000018002d06c f i libucrt:strnlen.obj
 0001:0002c078       ?compare_equals@?$__crt_simd_traits@$0A@E@@SA?AT__m128i@@T2@0@Z 000000018002d078 f i libucrt:strnlen.obj
 0001:0002c084       ?compare_equals@?$__crt_simd_traits@$0A@G@@SA?AT__m128i@@T2@0@Z 000000018002d084 f i libucrt:strnlen.obj
 0001:0002c090       ?compute_byte_mask@?$__crt_simd_pack_traits@$00@@SAHT__m256i@@@Z 000000018002d090 f i libucrt:strnlen.obj
 0001:0002c09c       ?compute_byte_mask@?$__crt_simd_pack_traits@$0A@@@SAHT__m128i@@@Z 000000018002d09c f i libucrt:strnlen.obj
 0001:0002c0a8       ?get_zero_pack@?$__crt_simd_pack_traits@$00@@SA?AT__m256i@@XZ 000000018002d0a8 f i libucrt:strnlen.obj
 0001:0002c0b0       ?get_zero_pack@?$__crt_simd_pack_traits@$0A@@@SA?AT__m128i@@XZ 000000018002d0b0 f i libucrt:strnlen.obj
 0001:0002c0b4       strnlen                    000000018002d0b4 f   libucrt:strnlen.obj
 0001:0002c204       wcslen                     000000018002d204 f   libucrt:strnlen.obj
 0001:0002c330       wcsnlen                    000000018002d330 f   libucrt:strnlen.obj
 0001:0002c510       cosf                       000000018002d510 f   libucrt:cosf.obj
 0001:0002ca10       powf                       000000018002da10 f   libucrt:powf.obj
 0001:0002d8e0       sinf                       000000018002e8e0 f   libucrt:sinf.obj
 0001:0002dfd8       sqrtf                      000000018002efd8 f   libucrt:sqrtf.obj
 0001:0002e080       pow                        000000018002f080 f   libucrt:pow.obj
 0001:0002f790       wcscat_s                   0000000180030790 f   libucrt:wcscat_s.obj
 0001:0002f874       wcscpy_s                   0000000180030874 f   libucrt:wcscpy_s.obj
 0001:0002f8f0       strlen                     00000001800308f0 f   libucrt:strlen.obj
 0001:0002f998       _initterm                  0000000180030998 f   libucrt:initterm.obj
 0001:0002f9dc       _initterm_e                00000001800309dc f   libucrt:initterm.obj
 0001:0002fa44       _seh_filter_dll            0000000180030a44 f   libucrt:exception_filter.obj
 0001:0002fa58       _seh_filter_exe            0000000180030a58 f   libucrt:exception_filter.obj
 0001:0002fbdc       ??$?B$$A6AXPEAXK0@Z@__crt_fast_encoded_nullptr_t@@QEBAP6AXPEAXK0@ZXZ 0000000180030bdc f i libucrt:exit.obj
 0001:0002fc4c       ??$__crt_fast_decode_pointer@P6AXPEAXK0@Z@@YAP6AXPEAXK0@ZQ6AX0K0@Z@Z 0000000180030c4c f i libucrt:exit.obj
 0001:0002fc64       ??$__crt_fast_encode_pointer@P6AXPEAXK0@Z@@YAP6AXPEAXK0@ZQ6AX0K0@Z@Z 0000000180030c64 f i libucrt:exit.obj
 0001:0002fc84       ??$__crt_get_proc_address@P6AXI@Z@@YAP6AXI@ZQEAUHINSTANCE__@@QEBD@Z 0000000180030c84 f i libucrt:exit.obj
 0001:0002fc8c       ??$__crt_interlocked_read@J@@YAJPEDJ@Z 0000000180030c8c f i libucrt:exit.obj
 0001:0002fcb0       ??0?$__crt_unique_handle_t@U__crt_hmodule_traits@@@@QEAA@QEAUHINSTANCE__@@@Z 0000000180030cb0 f i libucrt:exit.obj
 0001:0002fcb8       ??1?$__crt_unique_handle_t@U__crt_hmodule_traits@@@@QEAA@XZ 0000000180030cb8 f i libucrt:exit.obj
 0001:0002fdb8       ?__acrt_select_exit_lock@@YA?AW4__acrt_lock_id@@XZ 0000000180030db8 f i libucrt:exit.obj
 0001:0002fdc0       ?__crt_fast_encode_pointer@@YA?AU__crt_fast_encoded_nullptr_t@@$$T@Z 0000000180030dc0 f i libucrt:exit.obj
 0001:0002fdc8       ?__crt_interlocked_read_32@@YAHPEDH@Z 0000000180030dc8 f i libucrt:exit.obj
 0001:0002fdd8       ?close@?$__crt_unique_handle_t@U__crt_hmodule_traits@@@@QEAAXXZ 0000000180030dd8 f i libucrt:exit.obj
 0001:0002fdfc       ?close@__crt_hmodule_traits@@SA_NPEAUHINSTANCE__@@@Z 0000000180030dfc f i libucrt:exit.obj
 0001:0002ff0c       ?get@?$__crt_unique_handle_t@U__crt_hmodule_traits@@@@QEBAPEAUHINSTANCE__@@XZ 0000000180030f0c f i libucrt:exit.obj
 0001:0002ff10       ?get_address_of@?$__crt_unique_handle_t@U__crt_hmodule_traits@@@@QEAAPEAPEAUHINSTANCE__@@XZ 0000000180030f10 f i libucrt:exit.obj
 0001:0002ff14       ?get_invalid_value@__crt_hmodule_traits@@SAPEAUHINSTANCE__@@XZ 0000000180030f14 f i libucrt:exit.obj
 0001:00030000       _Exit                      0000000180031000 f   libucrt:exit.obj
 0001:0003000c       __acrt_initialize_thread_local_exit_callback 000000018003100c f   libucrt:exit.obj
 0001:00030014       _c_exit                    0000000180031014 f   libucrt:exit.obj
 0001:00030024       _cexit                     0000000180031024 f   libucrt:exit.obj
 0001:00030034       _exit                      0000000180031034 f   libucrt:exit.obj
 0001:00030040       _is_c_termination_complete 0000000180031040 f   libucrt:exit.obj
 0001:00030048       _register_thread_local_exe_atexit_callback 0000000180031048 f   libucrt:exit.obj
 0001:00030088       exit                       0000000180031088 f   libucrt:exit.obj
 0001:00030094       quick_exit                 0000000180031094 f   libucrt:exit.obj
 0001:000300a0       ??$?RE@__crt_internal_free_policy@@QEBAXQEBE@Z 00000001800310a0 f i libucrt:argv_parsing.obj
 0001:000300a8       ??$?RPEAD@__crt_internal_free_policy@@QEBAXQEBQEAD@Z 00000001800310a8 f i libucrt:argv_parsing.obj
 0001:000300b0       ??$?RPEA_W@__crt_internal_free_policy@@QEBAXQEBQEA_W@Z 00000001800310b0 f i libucrt:argv_parsing.obj
 0001:000303ac       ??$get_module_file_name@$$TAEAY0BAF@DH@?$__crt_char_traits@D@@SAK$$QEA$$TAEAY0BAF@D$$QEAH@Z 00000001800313ac f i libucrt:argv_parsing.obj
 0001:000303b8       ??$get_module_file_name@$$TAEAY0BAF@_WH@?$__crt_char_traits@_W@@SAK$$QEA$$TAEAY0BAF@_W$$QEAH@Z 00000001800313b8 f i libucrt:argv_parsing.obj
 0001:00030734       ??$set_program_name@PEAD@?$__crt_char_traits@D@@SAX$$QEAPEAD@Z 0000000180031734 f i libucrt:argv_parsing.obj
 0001:00030740       ??$set_program_name@PEA_W@?$__crt_char_traits@_W@@SAX$$QEAPEA_W@Z 0000000180031740 f i libucrt:argv_parsing.obj
 0001:0003075c       ??0?$__crt_unique_heap_ptr@EU__crt_internal_free_policy@@@@QEAA@QEAE@Z 000000018003175c f i libucrt:argv_parsing.obj
 0001:00030764       ??0?$__crt_unique_heap_ptr@PEADU__crt_internal_free_policy@@@@QEAA@QEAPEAD@Z 0000000180031764 f i libucrt:argv_parsing.obj
 0001:0003076c       ??0?$__crt_unique_heap_ptr@PEA_WU__crt_internal_free_policy@@@@QEAA@QEAPEA_W@Z 000000018003176c f i libucrt:argv_parsing.obj
 0001:00030774       ??1?$__crt_unique_heap_ptr@EU__crt_internal_free_policy@@@@QEAA@XZ 0000000180031774 f i libucrt:argv_parsing.obj
 0001:00030790       ??1?$__crt_unique_heap_ptr@PEADU__crt_internal_free_policy@@@@QEAA@XZ 0000000180031790 f i libucrt:argv_parsing.obj
 0001:000307ac       ??1?$__crt_unique_heap_ptr@PEA_WU__crt_internal_free_policy@@@@QEAA@XZ 00000001800317ac f i libucrt:argv_parsing.obj
 0001:000307c8       ??B?$__crt_unique_heap_ptr@EU__crt_internal_free_policy@@@@QEBA_NXZ 00000001800317c8 f i libucrt:argv_parsing.obj
 0001:00030808       ?detach@?$__crt_unique_heap_ptr@EU__crt_internal_free_policy@@@@QEAAPEAEXZ 0000000180031808 f i libucrt:argv_parsing.obj
 0001:00030810       ?detach@?$__crt_unique_heap_ptr@PEADU__crt_internal_free_policy@@@@QEAAPEAPEADXZ 0000000180031810 f i libucrt:argv_parsing.obj
 0001:00030818       ?detach@?$__crt_unique_heap_ptr@PEA_WU__crt_internal_free_policy@@@@QEAAPEAPEA_WXZ 0000000180031818 f i libucrt:argv_parsing.obj
 0001:0003083c       ?get@?$__crt_unique_heap_ptr@EU__crt_internal_free_policy@@@@QEBAPEAEXZ 000000018003183c f i libucrt:argv_parsing.obj
 0001:00030840       ?get@?$__crt_unique_heap_ptr@PEADU__crt_internal_free_policy@@@@QEBAPEAPEADXZ 0000000180031840 f i libucrt:argv_parsing.obj
 0001:00030844       ?get@?$__crt_unique_heap_ptr@PEA_WU__crt_internal_free_policy@@@@QEBAPEAPEA_WXZ 0000000180031844 f i libucrt:argv_parsing.obj
 0001:00030848       ?get_address_of@?$__crt_unique_heap_ptr@PEADU__crt_internal_free_policy@@@@QEAAPEAPEAPEADXZ 0000000180031848 f i libucrt:argv_parsing.obj
 0001:0003084c       ?get_address_of@?$__crt_unique_heap_ptr@PEA_WU__crt_internal_free_policy@@@@QEAAPEAPEAPEA_WXZ 000000018003184c f i libucrt:argv_parsing.obj
 0001:00030870       ?is_valid@?$__crt_unique_heap_ptr@EU__crt_internal_free_policy@@@@QEBA_NXZ 0000000180031870 f i libucrt:argv_parsing.obj
 0001:00030878       ?release@?$__crt_unique_heap_ptr@EU__crt_internal_free_policy@@@@QEAAXXZ 0000000180031878 f i libucrt:argv_parsing.obj
 0001:00030894       ?release@?$__crt_unique_heap_ptr@PEADU__crt_internal_free_policy@@@@QEAAXXZ 0000000180031894 f i libucrt:argv_parsing.obj
 0001:000308b0       ?release@?$__crt_unique_heap_ptr@PEA_WU__crt_internal_free_policy@@@@QEAAXXZ 00000001800318b0 f i libucrt:argv_parsing.obj
 0001:000308e8       __acrt_allocate_buffer_for_argv 00000001800318e8 f   libucrt:argv_parsing.obj
 0001:00030948       _configure_narrow_argv     0000000180031948 f   libucrt:argv_parsing.obj
 0001:00030ad0       _configure_wide_argv       0000000180031ad0 f   libucrt:argv_parsing.obj
 0001:00030c54       _set_pgmptr                0000000180031c54 f i libucrt:argv_parsing.obj
 0001:00030c5c       _set_wpgmptr               0000000180031c5c f i libucrt:argv_parsing.obj
 0001:00030c64       ??$?R_W@__crt_internal_free_policy@@QEBAXQEB_W@Z 0000000180031c64 f i libucrt:environment_initialization.obj
 0001:0003118c       ??$get_environment_from_os@$$V@?$__crt_char_traits@D@@SAPEADXZ 000000018003218c f i libucrt:environment_initialization.obj
 0001:00031194       ??$get_environment_from_os@$$V@?$__crt_char_traits@_W@@SAPEA_WXZ 0000000180032194 f i libucrt:environment_initialization.obj
 0001:00031338       ??$set_variable_in_environment_nolock@PEADH@?$__crt_char_traits@D@@SAH$$QEAPEAD$$QEAH@Z 0000000180032338 f i libucrt:environment_initialization.obj
 0001:00031344       ??$set_variable_in_environment_nolock@PEA_WH@?$__crt_char_traits@_W@@SAH$$QEAPEA_W$$QEAH@Z 0000000180032344 f i libucrt:environment_initialization.obj
 0001:00031350       ??$tcscpy_s@PEADAEB_KAEAPEAD@?$__crt_char_traits@D@@SAH$$QEAPEADAEB_KAEAPEAD@Z 0000000180032350 f i libucrt:environment_initialization.obj
 0001:00031360       ??$tcscpy_s@PEA_WAEB_KAEAPEA_W@?$__crt_char_traits@_W@@SAH$$QEAPEA_WAEB_KAEAPEA_W@Z 0000000180032360 f i libucrt:environment_initialization.obj
 0001:00031370       ??$tcslen@AEAPEAD@?$__crt_char_traits@D@@SA_KAEAPEAD@Z 0000000180032370 f i libucrt:environment_initialization.obj
 0001:00031384       ??$tcslen@AEAPEA_W@?$__crt_char_traits@_W@@SA_KAEAPEA_W@Z 0000000180032384 f i libucrt:environment_initialization.obj
 0001:00031398       ??$uninitialize@A6AXAEAPEAPEAD@_E@?$dual_state_global@PEAPEAD@__crt_state_management@@QEAAXA6AXAEAPEAPEAD@_E@Z 0000000180032398 f i libucrt:environment_initialization.obj
 0001:000313f0       ??$uninitialize@A6AXAEAPEAPEA_W@_E@?$dual_state_global@PEAPEA_W@__crt_state_management@@QEAAXA6AXAEAPEAPEA_W@_E@Z 00000001800323f0 f i libucrt:environment_initialization.obj
 0001:00031480       ??0?$__crt_unique_heap_ptr@_WU__crt_internal_free_policy@@@@QEAA@QEA_W@Z 0000000180032480 f i libucrt:environment_initialization.obj
 0001:00031488       ??1?$__crt_unique_heap_ptr@_WU__crt_internal_free_policy@@@@QEAA@XZ 0000000180032488 f i libucrt:environment_initialization.obj
 0001:000314a4       ??B?$__crt_unique_heap_ptr@PEADU__crt_internal_free_policy@@@@QEBA_NXZ 00000001800324a4 f i libucrt:environment_initialization.obj
 0001:000314ac       ??B?$__crt_unique_heap_ptr@PEA_WU__crt_internal_free_policy@@@@QEBA_NXZ 00000001800324ac f i libucrt:environment_initialization.obj
 0001:000314b4       ??B?$__crt_unique_heap_ptr@_WU__crt_internal_free_policy@@@@QEBA_NXZ 00000001800324b4 f i libucrt:environment_initialization.obj
 0001:000314bc       ?__crt_compute_required_transform_buffer_count@@YA_KIQEBD@Z 00000001800324bc f i libucrt:environment_initialization.obj
 0001:000314e0       ?__crt_compute_required_transform_buffer_count@@YA_KIQEB_W@Z 00000001800324e0 f i libucrt:environment_initialization.obj
 0001:00031510       ?__crt_transform_string@@YA_KIQEBDQEA_W_K@Z 0000000180032510 f i libucrt:environment_initialization.obj
 0001:00031534       ?__crt_transform_string@@YA_KIQEB_WQEAD_K@Z 0000000180032534 f i libucrt:environment_initialization.obj
 0001:00031564       ?detach@?$__crt_unique_heap_ptr@DU__crt_internal_free_policy@@@@QEAAPEADXZ 0000000180032564 f i libucrt:environment_initialization.obj
 0001:0003156c       ?detach@?$__crt_unique_heap_ptr@_WU__crt_internal_free_policy@@@@QEAAPEA_WXZ 000000018003256c f i libucrt:environment_initialization.obj
 0001:00031574       ?get@?$__crt_unique_heap_ptr@_WU__crt_internal_free_policy@@@@QEBAPEA_WXZ 0000000180032574 f i libucrt:environment_initialization.obj
 0001:000315a8       ?initialize@?$dual_state_global@PEAPEAD@__crt_state_management@@QEAAXQEAPEAD@Z 00000001800325a8 f i libucrt:environment_initialization.obj
 0001:000315b8       ?initialize@?$dual_state_global@PEAPEA_W@__crt_state_management@@QEAAXQEAPEA_W@Z 00000001800325b8 f i libucrt:environment_initialization.obj
 0001:000315c8       ?is_valid@?$__crt_unique_heap_ptr@PEADU__crt_internal_free_policy@@@@QEBA_NXZ 00000001800325c8 f i libucrt:environment_initialization.obj
 0001:000315d0       ?is_valid@?$__crt_unique_heap_ptr@PEA_WU__crt_internal_free_policy@@@@QEBA_NXZ 00000001800325d0 f i libucrt:environment_initialization.obj
 0001:000315d8       ?is_valid@?$__crt_unique_heap_ptr@_WU__crt_internal_free_policy@@@@QEBA_NXZ 00000001800325d8 f i libucrt:environment_initialization.obj
 0001:000315ec       ?release@?$__crt_unique_heap_ptr@_WU__crt_internal_free_policy@@@@QEAAXXZ 00000001800325ec f i libucrt:environment_initialization.obj
 0001:00031608       ?value@?$dual_state_global@PEAPEAD@__crt_state_management@@QEAAAEAPEAPEADXZ 0000000180032608 f i libucrt:environment_initialization.obj
 0001:0003160c       ?value@?$dual_state_global@PEAPEA_W@__crt_state_management@@QEAAAEAPEAPEA_WXZ 000000018003260c f i libucrt:environment_initialization.obj
 0001:00031610       __dcrt_get_or_create_narrow_environment_nolock 0000000180032610 f   libucrt:environment_initialization.obj
 0001:0003164c       __dcrt_get_or_create_wide_environment_nolock 000000018003264c f   libucrt:environment_initialization.obj
 0001:00031688       __dcrt_uninitialize_environments_nolock 0000000180032688 f   libucrt:environment_initialization.obj
 0001:000316cc       __p__environ               00000001800326cc f   libucrt:environment_initialization.obj
 0001:000316d4       __p__wenviron              00000001800326d4 f   libucrt:environment_initialization.obj
 0001:000316dc       _get_initial_narrow_environment 00000001800326dc f   libucrt:environment_initialization.obj
 0001:0003172c       _get_initial_wide_environment 000000018003272c f   libucrt:environment_initialization.obj
 0001:0003177c       _initialize_narrow_environment 000000018003277c f   libucrt:environment_initialization.obj
 0001:00031784       _initialize_wide_environment 0000000180032784 f   libucrt:environment_initialization.obj
 0001:0003178c       _invoke_watson_if_error    000000018003278c f i libucrt:environment_initialization.obj
 0001:000317c0       ??$?B$$A6AXXZ@__crt_fast_encoded_nullptr_t@@QEBAP6AXXZXZ 00000001800327c0 f i libucrt:onexit.obj
 0001:000317c8       ??$?BP6AXXZ@__crt_fast_encoded_nullptr_t@@QEBAPEAP6AXXZXZ 00000001800327c8 f i libucrt:onexit.obj
 0001:000317d0       ??$?RP6AXXZ@__crt_internal_free_policy@@QEBAXQEBQ6AXXZ@Z 00000001800327d0 f i libucrt:onexit.obj
 0001:000318a8       ??$__crt_fast_decode_pointer@P6AXXZ@@YAP6AXXZQ6AXXZ@Z 00000001800328a8 f i libucrt:onexit.obj
 0001:000318c0       ??$__crt_fast_decode_pointer@PEAP6AXXZ@@YAPEAP6AXXZQEAP6AXXZ@Z 00000001800328c0 f i libucrt:onexit.obj
 0001:000318d8       ??$__crt_fast_encode_pointer@P6AHXZ@@YAP6AHXZQ6AHXZ@Z 00000001800328d8 f i libucrt:onexit.obj
 0001:000318f8       ??$__crt_fast_encode_pointer@P6AXXZ@@YAP6AXXZQ6AXXZ@Z 00000001800328f8 f i libucrt:onexit.obj
 0001:00031918       ??$__crt_fast_encode_pointer@PEAP6AXXZ@@YAPEAP6AXXZQEAP6AXXZ@Z 0000000180032918 f i libucrt:onexit.obj
 0001:0003196c       ??0?$__crt_unique_heap_ptr@P6AXXZU__crt_internal_free_policy@@@@QEAA@QEAP6AXXZ@Z 000000018003296c f i libucrt:onexit.obj
 0001:00031974       ??1?$__crt_unique_heap_ptr@P6AXXZU__crt_internal_free_policy@@@@QEAA@XZ 0000000180032974 f i libucrt:onexit.obj
 0001:00031990       ??1scoped_global_state_reset@__crt_state_management@@QEAA@XZ 0000000180032990 f i libucrt:onexit.obj
 0001:00031c84       ?detach@?$__crt_unique_heap_ptr@P6AXXZU__crt_internal_free_policy@@@@QEAAPEAP6AXXZXZ 0000000180032c84 f i libucrt:onexit.obj
 0001:00031c8c       ?release@?$__crt_unique_heap_ptr@P6AXXZU__crt_internal_free_policy@@@@QEAAXXZ 0000000180032c8c f i libucrt:onexit.obj
 0001:00031ca8       _crt_at_quick_exit         0000000180032ca8 f   libucrt:onexit.obj
 0001:00031cb8       _crt_atexit                0000000180032cb8 f   libucrt:onexit.obj
 0001:00031cc8       _execute_onexit_table      0000000180032cc8 f   libucrt:onexit.obj
 0001:00031d0c       _initialize_onexit_table   0000000180032d0c f   libucrt:onexit.obj
 0001:00031d34       _register_onexit_function  0000000180032d34 f   libucrt:onexit.obj
 0001:00031f14       ??$?BX@__crt_fast_encoded_nullptr_t@@QEBAPEAXXZ 0000000180032f14 f i libucrt:initialization.obj
 0001:00031f1c       ??$__crt_fast_encode_pointer@PEAX@@YAPEAXQEAX@Z 0000000180032f1c f i libucrt:initialization.obj
 0001:00031fd8       ?__acrt_stdio_is_initialized@@YA_NXZ 0000000180032fd8 f i libucrt:initialization.obj
 0001:00031fe4       ?initialize@?$dual_state_global@PEAU__crt_locale_data@@@__crt_state_management@@QEAAXQEAU__crt_locale_data@@@Z 0000000180032fe4 f i libucrt:initialization.obj
 0001:00031ff4       __acrt_initialize          0000000180032ff4 f   libucrt:initialization.obj
 0001:00032008       __acrt_thread_attach       0000000180033008 f   libucrt:initialization.obj
 0001:0003201c       __acrt_thread_detach       000000018003301c f   libucrt:initialization.obj
 0001:0003202c       __acrt_uninitialize        000000018003302c f   libucrt:initialization.obj
 0001:00032064       __acrt_uninitialize_critical 0000000180033064 f   libucrt:initialization.obj
 0001:00032074       ??$?B$$A6AH_K@Z@__crt_fast_encoded_nullptr_t@@QEBAP6AH_K@ZXZ 0000000180033074 f i libucrt:new_handler.obj
 0001:0003207c       ??$__crt_fast_decode_pointer@P6AH_K@Z@@YAP6AH_K@ZQ6AH0@Z@Z 000000018003307c f i libucrt:new_handler.obj
 0001:00032094       ??$__crt_fast_encode_pointer@P6AH_K@Z@@YAP6AH_K@ZQ6AH0@Z@Z 0000000180033094 f i libucrt:new_handler.obj
 0001:000320b4       ?_set_new_handler@@YAP6AH_K@ZH@Z 00000001800330b4 f   libucrt:new_handler.obj
 0001:000320c0       ?initialize@?$dual_state_global@P6AH_K@Z@__crt_state_management@@QEAAXQ6AH_K@Z@Z 00000001800330c0 f i libucrt:new_handler.obj
 0001:000320d0       ?value@?$dual_state_global@P6AH_K@Z@__crt_state_management@@QEAAAEAP6AH_K@ZXZ 00000001800330d0 f i libucrt:new_handler.obj
 0001:000320d4       __acrt_initialize_new_handler 00000001800330d4 f   libucrt:new_handler.obj
 0001:000320dc       _callnewh                  00000001800330dc f   libucrt:new_handler.obj
 0001:0003211c       _query_new_handler         000000018003311c f   libucrt:new_handler.obj
 0001:00032154       _set_new_handler           0000000180033154 f   libucrt:new_handler.obj
 0001:000321c4       _get_terminate             00000001800331c4 f   libucrt:terminate.obj
 0001:000321e8       set_terminate              00000001800331e8 f   libucrt:terminate.obj
 0001:00032214       terminate                  0000000180033214 f   libucrt:terminate.obj
 0001:000322a4       strcpy_s                   00000001800332a4 f   libucrt:strcpy_s.obj
 0001:00032378       strcat_s                   0000000180033378 f   libucrt:strcat_s.obj
 0001:000323e4       ??$?0AEBV?$stream_output_adapter@D@__crt_stdio_output@@AEB_KAEBQEBDAEAV__crt_cached_ptd_host@@AEBQEAD@?$format_validation_base@DV?$stream_output_adapter@D@__crt_stdio_output@@@__crt_stdio_output@@IEAA@AEBV?$stream_output_adapter@D@1@AEB_KAEBQEBDAEAV__crt_cached_ptd_host@@AEBQEAD@Z 00000001800333e4 f i libucrt:output.obj
 0001:00032454       ??$?0AEBV?$stream_output_adapter@D@__crt_stdio_output@@AEB_KAEBQEBDAEAV__crt_cached_ptd_host@@AEBQEAD@?$positional_parameter_base@DV?$stream_output_adapter@D@__crt_stdio_output@@@__crt_stdio_output@@IEAA@AEBV?$stream_output_adapter@D@1@AEB_KAEBQEBDAEAV__crt_cached_ptd_host@@AEBQEAD@Z 0000000180033454 f i libucrt:output.obj
 0001:000324e4       ??$?0AEBV?$stream_output_adapter@D@__crt_stdio_output@@AEB_KAEBQEBDAEAV__crt_cached_ptd_host@@AEBQEAD@?$standard_base@DV?$stream_output_adapter@D@__crt_stdio_output@@@__crt_stdio_output@@IEAA@AEBV?$stream_output_adapter@D@1@AEB_KAEBQEBDAEAV__crt_cached_ptd_host@@AEBQEAD@Z 00000001800334e4 f i libucrt:output.obj
 0001:00032554       ??$?0AEBV?$stream_output_adapter@_W@__crt_stdio_output@@AEB_KAEBQEB_WAEAV__crt_cached_ptd_host@@AEBQEAD@?$format_validation_base@_WV?$stream_output_adapter@_W@__crt_stdio_output@@@__crt_stdio_output@@IEAA@AEBV?$stream_output_adapter@_W@1@AEB_KAEBQEB_WAEAV__crt_cached_ptd_host@@AEBQEAD@Z 0000000180033554 f i libucrt:output.obj
 0001:000325c8       ??$?0AEBV?$stream_output_adapter@_W@__crt_stdio_output@@AEB_KAEBQEB_WAEAV__crt_cached_ptd_host@@AEBQEAD@?$positional_parameter_base@_WV?$stream_output_adapter@_W@__crt_stdio_output@@@__crt_stdio_output@@IEAA@AEBV?$stream_output_adapter@_W@1@AEB_KAEBQEB_WAEAV__crt_cached_ptd_host@@AEBQEAD@Z 00000001800335c8 f i libucrt:output.obj
 0001:0003265c       ??$?0AEBV?$stream_output_adapter@_W@__crt_stdio_output@@AEB_KAEBQEB_WAEAV__crt_cached_ptd_host@@AEBQEAD@?$standard_base@_WV?$stream_output_adapter@_W@__crt_stdio_output@@@__crt_stdio_output@@IEAA@AEBV?$stream_output_adapter@_W@1@AEB_KAEBQEB_WAEAV__crt_cached_ptd_host@@AEBQEAD@Z 000000018003365c f i libucrt:output.obj
 0001:000326d0       ??$?0AEBV?$string_output_adapter@D@__crt_stdio_output@@AEB_KAEBQEBDAEAV__crt_cached_ptd_host@@AEBQEAD@?$format_validation_base@DV?$string_output_adapter@D@__crt_stdio_output@@@__crt_stdio_output@@IEAA@AEBV?$string_output_adapter@D@1@AEB_KAEBQEBDAEAV__crt_cached_ptd_host@@AEBQEAD@Z 00000001800336d0 f i libucrt:output.obj
 0001:00032740       ??$?0AEBV?$string_output_adapter@D@__crt_stdio_output@@AEB_KAEBQEBDAEAV__crt_cached_ptd_host@@AEBQEAD@?$positional_parameter_base@DV?$string_output_adapter@D@__crt_stdio_output@@@__crt_stdio_output@@IEAA@AEBV?$string_output_adapter@D@1@AEB_KAEBQEBDAEAV__crt_cached_ptd_host@@AEBQEAD@Z 0000000180033740 f i libucrt:output.obj
 0001:000327d0       ??$?0AEBV?$string_output_adapter@D@__crt_stdio_output@@AEB_KAEBQEBDAEAV__crt_cached_ptd_host@@AEBQEAD@?$standard_base@DV?$string_output_adapter@D@__crt_stdio_output@@@__crt_stdio_output@@IEAA@AEBV?$string_output_adapter@D@1@AEB_KAEBQEBDAEAV__crt_cached_ptd_host@@AEBQEAD@Z 00000001800337d0 f i libucrt:output.obj
 0001:00032840       ??$?0AEBV?$string_output_adapter@_W@__crt_stdio_output@@AEB_KAEBQEB_WAEAV__crt_cached_ptd_host@@AEBQEAD@?$format_validation_base@_WV?$string_output_adapter@_W@__crt_stdio_output@@@__crt_stdio_output@@IEAA@AEBV?$string_output_adapter@_W@1@AEB_KAEBQEB_WAEAV__crt_cached_ptd_host@@AEBQEAD@Z 0000000180033840 f i libucrt:output.obj
 0001:000328b4       ??$?0AEBV?$string_output_adapter@_W@__crt_stdio_output@@AEB_KAEBQEB_WAEAV__crt_cached_ptd_host@@AEBQEAD@?$positional_parameter_base@_WV?$string_output_adapter@_W@__crt_stdio_output@@@__crt_stdio_output@@IEAA@AEBV?$string_output_adapter@_W@1@AEB_KAEBQEB_WAEAV__crt_cached_ptd_host@@AEBQEAD@Z 00000001800338b4 f i libucrt:output.obj
 0001:00032948       ??$?0AEBV?$string_output_adapter@_W@__crt_stdio_output@@AEB_KAEBQEB_WAEAV__crt_cached_ptd_host@@AEBQEAD@?$standard_base@_WV?$string_output_adapter@_W@__crt_stdio_output@@@__crt_stdio_output@@IEAA@AEBV?$string_output_adapter@_W@1@AEB_KAEBQEB_WAEAV__crt_cached_ptd_host@@AEBQEAD@Z 0000000180033948 f i libucrt:output.obj
 0001:00032c2c       ??$_tcstol_internal@DPEAPEAD$0A@@@YAJAEAV__crt_cached_ptd_host@@QEBDQEAPEADH@Z 0000000180033c2c f i libucrt:output.obj
 0001:00032c5c       ??$_tcstol_internal@_WPEAPEA_W$0A@@@YAJAEAV__crt_cached_ptd_host@@QEB_WQEAPEA_WH@Z 0000000180033c5c f i libucrt:output.obj
 0001:00033d9c       ??$count@D@formatting_buffer@__crt_stdio_output@@QEBA_KXZ 0000000180034d9c f i libucrt:output.obj
 0001:00033db8       ??$count@_W@formatting_buffer@__crt_stdio_output@@QEBA_KXZ 0000000180034db8 f i libucrt:output.obj
 0001:00033dd4       ??$data@D@formatting_buffer@__crt_stdio_output@@QEAAPEADXZ 0000000180034dd4 f i libucrt:output.obj
 0001:00033de4       ??$data@_W@formatting_buffer@__crt_stdio_output@@QEAAPEA_WXZ 0000000180034de4 f i libucrt:output.obj
 0001:00033df4       ??$ensure_buffer_is_big_enough@D@formatting_buffer@__crt_stdio_output@@QEAA_N_KAEAV__crt_cached_ptd_host@@@Z 0000000180034df4 f i libucrt:output.obj
 0001:00033e9c       ??$ensure_buffer_is_big_enough@_W@formatting_buffer@__crt_stdio_output@@QEAA_N_KAEAV__crt_cached_ptd_host@@@Z 0000000180034e9c f i libucrt:output.obj
 0001:00033f48       ??$extract_argument_from_va_list@C_J@?$positional_parameter_base@DV?$stream_output_adapter@D@__crt_stdio_output@@@__crt_stdio_output@@IEAA_NAEA_J@Z 0000000180034f48 f i libucrt:output.obj
 0001:00034054       ??$extract_argument_from_va_list@C_J@?$positional_parameter_base@DV?$string_output_adapter@D@__crt_stdio_output@@@__crt_stdio_output@@IEAA_NAEA_J@Z 0000000180035054 f i libucrt:output.obj
 0001:00034160       ??$extract_argument_from_va_list@C_J@?$positional_parameter_base@_WV?$stream_output_adapter@_W@__crt_stdio_output@@@__crt_stdio_output@@IEAA_NAEA_J@Z 0000000180035160 f i libucrt:output.obj
 0001:0003426c       ??$extract_argument_from_va_list@C_J@?$positional_parameter_base@_WV?$string_output_adapter@_W@__crt_stdio_output@@@__crt_stdio_output@@IEAA_NAEA_J@Z 000000018003526c f i libucrt:output.obj
 0001:00034378       ??$extract_argument_from_va_list@C_J@?$standard_base@DV?$stream_output_adapter@D@__crt_stdio_output@@@__crt_stdio_output@@IEAA_NAEA_J@Z 0000000180035378 f i libucrt:output.obj
 0001:00034390       ??$extract_argument_from_va_list@C_J@?$standard_base@DV?$string_output_adapter@D@__crt_stdio_output@@@__crt_stdio_output@@IEAA_NAEA_J@Z 0000000180035390 f i libucrt:output.obj
 0001:000343a8       ??$extract_argument_from_va_list@C_J@?$standard_base@_WV?$stream_output_adapter@_W@__crt_stdio_output@@@__crt_stdio_output@@IEAA_NAEA_J@Z 00000001800353a8 f i libucrt:output.obj
 0001:000343c0       ??$extract_argument_from_va_list@C_J@?$standard_base@_WV?$string_output_adapter@_W@__crt_stdio_output@@@__crt_stdio_output@@IEAA_NAEA_J@Z 00000001800353c0 f i libucrt:output.obj
 0001:000343d8       ??$extract_argument_from_va_list@E_J@?$positional_parameter_base@DV?$stream_output_adapter@D@__crt_stdio_output@@@__crt_stdio_output@@IEAA_NAEA_J@Z 00000001800353d8 f i libucrt:output.obj
 0001:000344e0       ??$extract_argument_from_va_list@E_J@?$positional_parameter_base@DV?$string_output_adapter@D@__crt_stdio_output@@@__crt_stdio_output@@IEAA_NAEA_J@Z 00000001800354e0 f i libucrt:output.obj
 0001:000345e8       ??$extract_argument_from_va_list@E_J@?$positional_parameter_base@_WV?$stream_output_adapter@_W@__crt_stdio_output@@@__crt_stdio_output@@IEAA_NAEA_J@Z 00000001800355e8 f i libucrt:output.obj
 0001:000346f4       ??$extract_argument_from_va_list@E_J@?$positional_parameter_base@_WV?$string_output_adapter@_W@__crt_stdio_output@@@__crt_stdio_output@@IEAA_NAEA_J@Z 00000001800356f4 f i libucrt:output.obj
 0001:00034800       ??$extract_argument_from_va_list@E_J@?$standard_base@DV?$stream_output_adapter@D@__crt_stdio_output@@@__crt_stdio_output@@IEAA_NAEA_J@Z 0000000180035800 f i libucrt:output.obj
 0001:00034818       ??$extract_argument_from_va_list@E_J@?$standard_base@DV?$string_output_adapter@D@__crt_stdio_output@@@__crt_stdio_output@@IEAA_NAEA_J@Z 0000000180035818 f i libucrt:output.obj
 0001:00034830       ??$extract_argument_from_va_list@E_J@?$standard_base@_WV?$stream_output_adapter@_W@__crt_stdio_output@@@__crt_stdio_output@@IEAA_NAEA_J@Z 0000000180035830 f i libucrt:output.obj
 0001:00034848       ??$extract_argument_from_va_list@E_J@?$standard_base@_WV?$string_output_adapter@_W@__crt_stdio_output@@@__crt_stdio_output@@IEAA_NAEA_J@Z 0000000180035848 f i libucrt:output.obj
 0001:00034860       ??$extract_argument_from_va_list@F_J@?$positional_parameter_base@DV?$stream_output_adapter@D@__crt_stdio_output@@@__crt_stdio_output@@IEAA_NAEA_J@Z 0000000180035860 f i libucrt:output.obj
 0001:0003496c       ??$extract_argument_from_va_list@F_J@?$positional_parameter_base@DV?$string_output_adapter@D@__crt_stdio_output@@@__crt_stdio_output@@IEAA_NAEA_J@Z 000000018003596c f i libucrt:output.obj
 0001:00034a78       ??$extract_argument_from_va_list@F_J@?$positional_parameter_base@_WV?$stream_output_adapter@_W@__crt_stdio_output@@@__crt_stdio_output@@IEAA_NAEA_J@Z 0000000180035a78 f i libucrt:output.obj
 0001:00034b84       ??$extract_argument_from_va_list@F_J@?$positional_parameter_base@_WV?$string_output_adapter@_W@__crt_stdio_output@@@__crt_stdio_output@@IEAA_NAEA_J@Z 0000000180035b84 f i libucrt:output.obj
 0001:00034c90       ??$extract_argument_from_va_list@F_J@?$standard_base@DV?$stream_output_adapter@D@__crt_stdio_output@@@__crt_stdio_output@@IEAA_NAEA_J@Z 0000000180035c90 f i libucrt:output.obj
 0001:00034ca8       ??$extract_argument_from_va_list@F_J@?$standard_base@DV?$string_output_adapter@D@__crt_stdio_output@@@__crt_stdio_output@@IEAA_NAEA_J@Z 0000000180035ca8 f i libucrt:output.obj
 0001:00034cc0       ??$extract_argument_from_va_list@F_J@?$standard_base@_WV?$stream_output_adapter@_W@__crt_stdio_output@@@__crt_stdio_output@@IEAA_NAEA_J@Z 0000000180035cc0 f i libucrt:output.obj
 0001:00034cd8       ??$extract_argument_from_va_list@F_J@?$standard_base@_WV?$string_output_adapter@_W@__crt_stdio_output@@@__crt_stdio_output@@IEAA_NAEA_J@Z 0000000180035cd8 f i libucrt:output.obj
 0001:00034cf0       ??$extract_argument_from_va_list@GD@?$positional_parameter_base@DV?$stream_output_adapter@D@__crt_stdio_output@@@__crt_stdio_output@@IEAA_NAEAD@Z 0000000180035cf0 f i libucrt:output.obj
 0001:00034df4       ??$extract_argument_from_va_list@GD@?$positional_parameter_base@DV?$string_output_adapter@D@__crt_stdio_output@@@__crt_stdio_output@@IEAA_NAEAD@Z 0000000180035df4 f i libucrt:output.obj
 0001:00034ef8       ??$extract_argument_from_va_list@GD@?$standard_base@DV?$stream_output_adapter@D@__crt_stdio_output@@@__crt_stdio_output@@IEAA_NAEAD@Z 0000000180035ef8 f i libucrt:output.obj
 0001:00034f0c       ??$extract_argument_from_va_list@GD@?$standard_base@DV?$string_output_adapter@D@__crt_stdio_output@@@__crt_stdio_output@@IEAA_NAEAD@Z 0000000180035f0c f i libucrt:output.obj
 0001:00034f20       ??$extract_argument_from_va_list@G_J@?$positional_parameter_base@DV?$stream_output_adapter@D@__crt_stdio_output@@@__crt_stdio_output@@IEAA_NAEA_J@Z 0000000180035f20 f i libucrt:output.obj
 0001:00035028       ??$extract_argument_from_va_list@G_J@?$positional_parameter_base@DV?$string_output_adapter@D@__crt_stdio_output@@@__crt_stdio_output@@IEAA_NAEA_J@Z 0000000180036028 f i libucrt:output.obj
 0001:00035130       ??$extract_argument_from_va_list@G_J@?$positional_parameter_base@_WV?$stream_output_adapter@_W@__crt_stdio_output@@@__crt_stdio_output@@IEAA_NAEA_J@Z 0000000180036130 f i libucrt:output.obj
 0001:0003523c       ??$extract_argument_from_va_list@G_J@?$positional_parameter_base@_WV?$string_output_adapter@_W@__crt_stdio_output@@@__crt_stdio_output@@IEAA_NAEA_J@Z 000000018003623c f i libucrt:output.obj
 0001:00035348       ??$extract_argument_from_va_list@G_J@?$standard_base@DV?$stream_output_adapter@D@__crt_stdio_output@@@__crt_stdio_output@@IEAA_NAEA_J@Z 0000000180036348 f i libucrt:output.obj
 0001:00035360       ??$extract_argument_from_va_list@G_J@?$standard_base@DV?$string_output_adapter@D@__crt_stdio_output@@@__crt_stdio_output@@IEAA_NAEA_J@Z 0000000180036360 f i libucrt:output.obj
 0001:00035378       ??$extract_argument_from_va_list@G_J@?$standard_base@_WV?$stream_output_adapter@_W@__crt_stdio_output@@@__crt_stdio_output@@IEAA_NAEA_J@Z 0000000180036378 f i libucrt:output.obj
 0001:00035390       ??$extract_argument_from_va_list@G_J@?$standard_base@_WV?$string_output_adapter@_W@__crt_stdio_output@@@__crt_stdio_output@@IEAA_NAEA_J@Z 0000000180036390 f i libucrt:output.obj
 0001:000353a8       ??$extract_argument_from_va_list@H_J@?$positional_parameter_base@DV?$stream_output_adapter@D@__crt_stdio_output@@@__crt_stdio_output@@IEAA_NAEA_J@Z 00000001800363a8 f i libucrt:output.obj
 0001:000354b0       ??$extract_argument_from_va_list@H_J@?$positional_parameter_base@DV?$string_output_adapter@D@__crt_stdio_output@@@__crt_stdio_output@@IEAA_NAEA_J@Z 00000001800364b0 f i libucrt:output.obj
 0001:000355b8       ??$extract_argument_from_va_list@H_J@?$positional_parameter_base@_WV?$stream_output_adapter@_W@__crt_stdio_output@@@__crt_stdio_output@@IEAA_NAEA_J@Z 00000001800365b8 f i libucrt:output.obj
 0001:000356c4       ??$extract_argument_from_va_list@H_J@?$positional_parameter_base@_WV?$string_output_adapter@_W@__crt_stdio_output@@@__crt_stdio_output@@IEAA_NAEA_J@Z 00000001800366c4 f i libucrt:output.obj
 0001:000357d0       ??$extract_argument_from_va_list@H_J@?$standard_base@DV?$stream_output_adapter@D@__crt_stdio_output@@@__crt_stdio_output@@IEAA_NAEA_J@Z 00000001800367d0 f i libucrt:output.obj
 0001:000357e8       ??$extract_argument_from_va_list@H_J@?$standard_base@DV?$string_output_adapter@D@__crt_stdio_output@@@__crt_stdio_output@@IEAA_NAEA_J@Z 00000001800367e8 f i libucrt:output.obj
 0001:00035800       ??$extract_argument_from_va_list@H_J@?$standard_base@_WV?$stream_output_adapter@_W@__crt_stdio_output@@@__crt_stdio_output@@IEAA_NAEA_J@Z 0000000180036800 f i libucrt:output.obj
 0001:00035818       ??$extract_argument_from_va_list@H_J@?$standard_base@_WV?$string_output_adapter@_W@__crt_stdio_output@@@__crt_stdio_output@@IEAA_NAEA_J@Z 0000000180036818 f i libucrt:output.obj
 0001:00035830       ??$extract_argument_from_va_list@I_J@?$positional_parameter_base@DV?$stream_output_adapter@D@__crt_stdio_output@@@__crt_stdio_output@@IEAA_NAEA_J@Z 0000000180036830 f i libucrt:output.obj
 0001:00035938       ??$extract_argument_from_va_list@I_J@?$positional_parameter_base@DV?$string_output_adapter@D@__crt_stdio_output@@@__crt_stdio_output@@IEAA_NAEA_J@Z 0000000180036938 f i libucrt:output.obj
 0001:00035a40       ??$extract_argument_from_va_list@I_J@?$positional_parameter_base@_WV?$stream_output_adapter@_W@__crt_stdio_output@@@__crt_stdio_output@@IEAA_NAEA_J@Z 0000000180036a40 f i libucrt:output.obj
 0001:00035b48       ??$extract_argument_from_va_list@I_J@?$positional_parameter_base@_WV?$string_output_adapter@_W@__crt_stdio_output@@@__crt_stdio_output@@IEAA_NAEA_J@Z 0000000180036b48 f i libucrt:output.obj
 0001:00035c50       ??$extract_argument_from_va_list@I_J@?$standard_base@DV?$stream_output_adapter@D@__crt_stdio_output@@@__crt_stdio_output@@IEAA_NAEA_J@Z 0000000180036c50 f i libucrt:output.obj
 0001:00035c68       ??$extract_argument_from_va_list@I_J@?$standard_base@DV?$string_output_adapter@D@__crt_stdio_output@@@__crt_stdio_output@@IEAA_NAEA_J@Z 0000000180036c68 f i libucrt:output.obj
 0001:00035c80       ??$extract_argument_from_va_list@I_J@?$standard_base@_WV?$stream_output_adapter@_W@__crt_stdio_output@@@__crt_stdio_output@@IEAA_NAEA_J@Z 0000000180036c80 f i libucrt:output.obj
 0001:00035c98       ??$extract_argument_from_va_list@I_J@?$standard_base@_WV?$string_output_adapter@_W@__crt_stdio_output@@@__crt_stdio_output@@IEAA_NAEA_J@Z 0000000180036c98 f i libucrt:output.obj
 0001:00035cb0       ??$extract_argument_from_va_list@PEADPEAD@?$positional_parameter_base@DV?$stream_output_adapter@D@__crt_stdio_output@@@__crt_stdio_output@@IEAA_NAEAPEAD@Z 0000000180036cb0 f i libucrt:output.obj
 0001:00035db8       ??$extract_argument_from_va_list@PEADPEAD@?$positional_parameter_base@DV?$string_output_adapter@D@__crt_stdio_output@@@__crt_stdio_output@@IEAA_NAEAPEAD@Z 0000000180036db8 f i libucrt:output.obj
 0001:00035ec0       ??$extract_argument_from_va_list@PEADPEAD@?$positional_parameter_base@_WV?$stream_output_adapter@_W@__crt_stdio_output@@@__crt_stdio_output@@IEAA_NAEAPEAD@Z 0000000180036ec0 f i libucrt:output.obj
 0001:00035fcc       ??$extract_argument_from_va_list@PEADPEAD@?$positional_parameter_base@_WV?$string_output_adapter@_W@__crt_stdio_output@@@__crt_stdio_output@@IEAA_NAEAPEAD@Z 0000000180036fcc f i libucrt:output.obj
 0001:000360d8       ??$extract_argument_from_va_list@PEADPEAD@?$standard_base@DV?$stream_output_adapter@D@__crt_stdio_output@@@__crt_stdio_output@@IEAA_NAEAPEAD@Z 00000001800370d8 f i libucrt:output.obj
 0001:000360f0       ??$extract_argument_from_va_list@PEADPEAD@?$standard_base@DV?$string_output_adapter@D@__crt_stdio_output@@@__crt_stdio_output@@IEAA_NAEAPEAD@Z 00000001800370f0 f i libucrt:output.obj
 0001:00036108       ??$extract_argument_from_va_list@PEADPEAD@?$standard_base@_WV?$stream_output_adapter@_W@__crt_stdio_output@@@__crt_stdio_output@@IEAA_NAEAPEAD@Z 0000000180037108 f i libucrt:output.obj
 0001:00036120       ??$extract_argument_from_va_list@PEADPEAD@?$standard_base@_WV?$string_output_adapter@_W@__crt_stdio_output@@@__crt_stdio_output@@IEAA_NAEAPEAD@Z 0000000180037120 f i libucrt:output.obj
 0001:00036138       ??$extract_argument_from_va_list@PEAUansi_string@?1??type_case_Z@?$output_processor@DV?$stream_output_adapter@D@__crt_stdio_output@@V?$format_validation_base@DV?$stream_output_adapter@D@__crt_stdio_output@@@2@@__crt_stdio_output@@AEAA_NXZ@PEAU1?1??234@AEAA_NXZ@@?$standard_base@DV?$stream_output_adapter@D@__crt_stdio_output@@@__crt_stdio_output@@IEAA_NAEAPEAUansi_string@?1??type_case_Z@?$output_processor@DV?$stream_output_adapter@D@__crt_stdio_output@@V?$format_validation_base@DV?$stream_output_adapter@D@__crt_stdio_output@@@2@@1@AEAA_NXZ@@Z 0000000180037138 f i libucrt:output.obj
 0001:00036150       ??$extract_argument_from_va_list@PEAUansi_string@?1??type_case_Z@?$output_processor@DV?$stream_output_adapter@D@__crt_stdio_output@@V?$positional_parameter_base@DV?$stream_output_adapter@D@__crt_stdio_output@@@2@@__crt_stdio_output@@AEAA_NXZ@PEAU1?1??234@AEAA_NXZ@@?$positional_parameter_base@DV?$stream_output_adapter@D@__crt_stdio_output@@@__crt_stdio_output@@IEAA_NAEAPEAUansi_string@?1??type_case_Z@?$output_processor@DV?$stream_output_adapter@D@__crt_stdio_output@@V?$positional_parameter_base@DV?$stream_output_adapter@D@__crt_stdio_output@@@2@@1@AEAA_NXZ@@Z 0000000180037150 f i libucrt:output.obj
 0001:00036258       ??$extract_argument_from_va_list@PEAUansi_string@?1??type_case_Z@?$output_processor@DV?$stream_output_adapter@D@__crt_stdio_output@@V?$positional_parameter_base@DV?$stream_output_adapter@D@__crt_stdio_output@@@2@@__crt_stdio_output@@AEAA_NXZ@PEAU1?1??234@AEAA_NXZ@@?$standard_base@DV?$stream_output_adapter@D@__crt_stdio_output@@@__crt_stdio_output@@IEAA_NAEAPEAUansi_string@?1??type_case_Z@?$output_processor@DV?$stream_output_adapter@D@__crt_stdio_output@@V?$positional_parameter_base@DV?$stream_output_adapter@D@__crt_stdio_output@@@2@@1@AEAA_NXZ@@Z 0000000180037258 f i libucrt:output.obj
 0001:00036270       ??$extract_argument_from_va_list@PEAUansi_string@?1??type_case_Z@?$output_processor@DV?$stream_output_adapter@D@__crt_stdio_output@@V?$standard_base@DV?$stream_output_adapter@D@__crt_stdio_output@@@2@@__crt_stdio_output@@AEAA_NXZ@PEAU1?1??234@AEAA_NXZ@@?$standard_base@DV?$stream_output_adapter@D@__crt_stdio_output@@@__crt_stdio_output@@IEAA_NAEAPEAUansi_string@?1??type_case_Z@?$output_processor@DV?$stream_output_adapter@D@__crt_stdio_output@@V?$standard_base@DV?$stream_output_adapter@D@__crt_stdio_output@@@2@@1@AEAA_NXZ@@Z 0000000180037270 f i libucrt:output.obj
 0001:00036288       ??$extract_argument_from_va_list@PEAUansi_string@?1??type_case_Z@?$output_processor@DV?$string_output_adapter@D@__crt_stdio_output@@V?$format_validation_base@DV?$string_output_adapter@D@__crt_stdio_output@@@2@@__crt_stdio_output@@AEAA_NXZ@PEAU1?1??234@AEAA_NXZ@@?$standard_base@DV?$string_output_adapter@D@__crt_stdio_output@@@__crt_stdio_output@@IEAA_NAEAPEAUansi_string@?1??type_case_Z@?$output_processor@DV?$string_output_adapter@D@__crt_stdio_output@@V?$format_validation_base@DV?$string_output_adapter@D@__crt_stdio_output@@@2@@1@AEAA_NXZ@@Z 0000000180037288 f i libucrt:output.obj
 0001:000362a0       ??$extract_argument_from_va_list@PEAUansi_string@?1??type_case_Z@?$output_processor@DV?$string_output_adapter@D@__crt_stdio_output@@V?$positional_parameter_base@DV?$string_output_adapter@D@__crt_stdio_output@@@2@@__crt_stdio_output@@AEAA_NXZ@PEAU1?1??234@AEAA_NXZ@@?$positional_parameter_base@DV?$string_output_adapter@D@__crt_stdio_output@@@__crt_stdio_output@@IEAA_NAEAPEAUansi_string@?1??type_case_Z@?$output_processor@DV?$string_output_adapter@D@__crt_stdio_output@@V?$positional_parameter_base@DV?$string_output_adapter@D@__crt_stdio_output@@@2@@1@AEAA_NXZ@@Z 00000001800372a0 f i libucrt:output.obj
 0001:000363a8       ??$extract_argument_from_va_list@PEAUansi_string@?1??type_case_Z@?$output_processor@DV?$string_output_adapter@D@__crt_stdio_output@@V?$positional_parameter_base@DV?$string_output_adapter@D@__crt_stdio_output@@@2@@__crt_stdio_output@@AEAA_NXZ@PEAU1?1??234@AEAA_NXZ@@?$standard_base@DV?$string_output_adapter@D@__crt_stdio_output@@@__crt_stdio_output@@IEAA_NAEAPEAUansi_string@?1??type_case_Z@?$output_processor@DV?$string_output_adapter@D@__crt_stdio_output@@V?$positional_parameter_base@DV?$string_output_adapter@D@__crt_stdio_output@@@2@@1@AEAA_NXZ@@Z 00000001800373a8 f i libucrt:output.obj
 0001:000363c0       ??$extract_argument_from_va_list@PEAUansi_string@?1??type_case_Z@?$output_processor@DV?$string_output_adapter@D@__crt_stdio_output@@V?$standard_base@DV?$string_output_adapter@D@__crt_stdio_output@@@2@@__crt_stdio_output@@AEAA_NXZ@PEAU1?1??234@AEAA_NXZ@@?$standard_base@DV?$string_output_adapter@D@__crt_stdio_output@@@__crt_stdio_output@@IEAA_NAEAPEAUansi_string@?1??type_case_Z@?$output_processor@DV?$string_output_adapter@D@__crt_stdio_output@@V?$standard_base@DV?$string_output_adapter@D@__crt_stdio_output@@@2@@1@AEAA_NXZ@@Z 00000001800373c0 f i libucrt:output.obj
 0001:000363d8       ??$extract_argument_from_va_list@PEAUansi_string@?1??type_case_Z@?$output_processor@_WV?$stream_output_adapter@_W@__crt_stdio_output@@V?$format_validation_base@_WV?$stream_output_adapter@_W@__crt_stdio_output@@@2@@__crt_stdio_output@@AEAA_NXZ@PEAU1?1??234@AEAA_NXZ@@?$standard_base@_WV?$stream_output_adapter@_W@__crt_stdio_output@@@__crt_stdio_output@@IEAA_NAEAPEAUansi_string@?1??type_case_Z@?$output_processor@_WV?$stream_output_adapter@_W@__crt_stdio_output@@V?$format_validation_base@_WV?$stream_output_adapter@_W@__crt_stdio_output@@@2@@1@AEAA_NXZ@@Z 00000001800373d8 f i libucrt:output.obj
 0001:000363f0       ??$extract_argument_from_va_list@PEAUansi_string@?1??type_case_Z@?$output_processor@_WV?$stream_output_adapter@_W@__crt_stdio_output@@V?$positional_parameter_base@_WV?$stream_output_adapter@_W@__crt_stdio_output@@@2@@__crt_stdio_output@@AEAA_NXZ@PEAU1?1??234@AEAA_NXZ@@?$positional_parameter_base@_WV?$stream_output_adapter@_W@__crt_stdio_output@@@__crt_stdio_output@@IEAA_NAEAPEAUansi_string@?1??type_case_Z@?$output_processor@_WV?$stream_output_adapter@_W@__crt_stdio_output@@V?$positional_parameter_base@_WV?$stream_output_adapter@_W@__crt_stdio_output@@@2@@1@AEAA_NXZ@@Z 00000001800373f0 f i libucrt:output.obj
 0001:000364fc       ??$extract_argument_from_va_list@PEAUansi_string@?1??type_case_Z@?$output_processor@_WV?$stream_output_adapter@_W@__crt_stdio_output@@V?$positional_parameter_base@_WV?$stream_output_adapter@_W@__crt_stdio_output@@@2@@__crt_stdio_output@@AEAA_NXZ@PEAU1?1??234@AEAA_NXZ@@?$standard_base@_WV?$stream_output_adapter@_W@__crt_stdio_output@@@__crt_stdio_output@@IEAA_NAEAPEAUansi_string@?1??type_case_Z@?$output_processor@_WV?$stream_output_adapter@_W@__crt_stdio_output@@V?$positional_parameter_base@_WV?$stream_output_adapter@_W@__crt_stdio_output@@@2@@1@AEAA_NXZ@@Z 00000001800374fc f i libucrt:output.obj
 0001:00036514       ??$extract_argument_from_va_list@PEAUansi_string@?1??type_case_Z@?$output_processor@_WV?$stream_output_adapter@_W@__crt_stdio_output@@V?$standard_base@_WV?$stream_output_adapter@_W@__crt_stdio_output@@@2@@__crt_stdio_output@@AEAA_NXZ@PEAU1?1??234@AEAA_NXZ@@?$standard_base@_WV?$stream_output_adapter@_W@__crt_stdio_output@@@__crt_stdio_output@@IEAA_NAEAPEAUansi_string@?1??type_case_Z@?$output_processor@_WV?$stream_output_adapter@_W@__crt_stdio_output@@V?$standard_base@_WV?$stream_output_adapter@_W@__crt_stdio_output@@@2@@1@AEAA_NXZ@@Z 0000000180037514 f i libucrt:output.obj
 0001:0003652c       ??$extract_argument_from_va_list@PEAUansi_string@?1??type_case_Z@?$output_processor@_WV?$string_output_adapter@_W@__crt_stdio_output@@V?$format_validation_base@_WV?$string_output_adapter@_W@__crt_stdio_output@@@2@@__crt_stdio_output@@AEAA_NXZ@PEAU1?1??234@AEAA_NXZ@@?$standard_base@_WV?$string_output_adapter@_W@__crt_stdio_output@@@__crt_stdio_output@@IEAA_NAEAPEAUansi_string@?1??type_case_Z@?$output_processor@_WV?$string_output_adapter@_W@__crt_stdio_output@@V?$format_validation_base@_WV?$string_output_adapter@_W@__crt_stdio_output@@@2@@1@AEAA_NXZ@@Z 000000018003752c f i libucrt:output.obj
 0001:00036544       ??$extract_argument_from_va_list@PEAUansi_string@?1??type_case_Z@?$output_processor@_WV?$string_output_adapter@_W@__crt_stdio_output@@V?$positional_parameter_base@_WV?$string_output_adapter@_W@__crt_stdio_output@@@2@@__crt_stdio_output@@AEAA_NXZ@PEAU1?1??234@AEAA_NXZ@@?$positional_parameter_base@_WV?$string_output_adapter@_W@__crt_stdio_output@@@__crt_stdio_output@@IEAA_NAEAPEAUansi_string@?1??type_case_Z@?$output_processor@_WV?$string_output_adapter@_W@__crt_stdio_output@@V?$positional_parameter_base@_WV?$string_output_adapter@_W@__crt_stdio_output@@@2@@1@AEAA_NXZ@@Z 0000000180037544 f i libucrt:output.obj
 0001:00036650       ??$extract_argument_from_va_list@PEAUansi_string@?1??type_case_Z@?$output_processor@_WV?$string_output_adapter@_W@__crt_stdio_output@@V?$positional_parameter_base@_WV?$string_output_adapter@_W@__crt_stdio_output@@@2@@__crt_stdio_output@@AEAA_NXZ@PEAU1?1??234@AEAA_NXZ@@?$standard_base@_WV?$string_output_adapter@_W@__crt_stdio_output@@@__crt_stdio_output@@IEAA_NAEAPEAUansi_string@?1??type_case_Z@?$output_processor@_WV?$string_output_adapter@_W@__crt_stdio_output@@V?$positional_parameter_base@_WV?$string_output_adapter@_W@__crt_stdio_output@@@2@@1@AEAA_NXZ@@Z 0000000180037650 f i libucrt:output.obj
 0001:00036668       ??$extract_argument_from_va_list@PEAUansi_string@?1??type_case_Z@?$output_processor@_WV?$string_output_adapter@_W@__crt_stdio_output@@V?$standard_base@_WV?$string_output_adapter@_W@__crt_stdio_output@@@2@@__crt_stdio_output@@AEAA_NXZ@PEAU1?1??234@AEAA_NXZ@@?$standard_base@_WV?$string_output_adapter@_W@__crt_stdio_output@@@__crt_stdio_output@@IEAA_NAEAPEAUansi_string@?1??type_case_Z@?$output_processor@_WV?$string_output_adapter@_W@__crt_stdio_output@@V?$standard_base@_WV?$string_output_adapter@_W@__crt_stdio_output@@@2@@1@AEAA_NXZ@@Z 0000000180037668 f i libucrt:output.obj
 0001:00036680       ??$extract_argument_from_va_list@PEAXPEAX@?$positional_parameter_base@DV?$stream_output_adapter@D@__crt_stdio_output@@@__crt_stdio_output@@IEAA_NAEAPEAX@Z 0000000180037680 f i libucrt:output.obj
 0001:00036788       ??$extract_argument_from_va_list@PEAXPEAX@?$positional_parameter_base@DV?$string_output_adapter@D@__crt_stdio_output@@@__crt_stdio_output@@IEAA_NAEAPEAX@Z 0000000180037788 f i libucrt:output.obj
 0001:00036890       ??$extract_argument_from_va_list@PEAXPEAX@?$positional_parameter_base@_WV?$stream_output_adapter@_W@__crt_stdio_output@@@__crt_stdio_output@@IEAA_NAEAPEAX@Z 0000000180037890 f i libucrt:output.obj
 0001:0003699c       ??$extract_argument_from_va_list@PEAXPEAX@?$positional_parameter_base@_WV?$string_output_adapter@_W@__crt_stdio_output@@@__crt_stdio_output@@IEAA_NAEAPEAX@Z 000000018003799c f i libucrt:output.obj
 0001:00036aa8       ??$extract_argument_from_va_list@PEAXPEAX@?$standard_base@DV?$stream_output_adapter@D@__crt_stdio_output@@@__crt_stdio_output@@IEAA_NAEAPEAX@Z 0000000180037aa8 f i libucrt:output.obj
 0001:00036ac0       ??$extract_argument_from_va_list@PEAXPEAX@?$standard_base@DV?$string_output_adapter@D@__crt_stdio_output@@@__crt_stdio_output@@IEAA_NAEAPEAX@Z 0000000180037ac0 f i libucrt:output.obj
 0001:00036ad8       ??$extract_argument_from_va_list@PEAXPEAX@?$standard_base@_WV?$stream_output_adapter@_W@__crt_stdio_output@@@__crt_stdio_output@@IEAA_NAEAPEAX@Z 0000000180037ad8 f i libucrt:output.obj
 0001:00036af0       ??$extract_argument_from_va_list@PEAXPEAX@?$standard_base@_WV?$string_output_adapter@_W@__crt_stdio_output@@@__crt_stdio_output@@IEAA_NAEAPEAX@Z 0000000180037af0 f i libucrt:output.obj
 0001:00036b08       ??$extract_argument_from_va_list@U_CRT_DOUBLE@@U1@@?$positional_parameter_base@DV?$stream_output_adapter@D@__crt_stdio_output@@@__crt_stdio_output@@IEAA_NAEAU_CRT_DOUBLE@@@Z 0000000180037b08 f i libucrt:output.obj
 0001:00036c10       ??$extract_argument_from_va_list@U_CRT_DOUBLE@@U1@@?$positional_parameter_base@DV?$string_output_adapter@D@__crt_stdio_output@@@__crt_stdio_output@@IEAA_NAEAU_CRT_DOUBLE@@@Z 0000000180037c10 f i libucrt:output.obj
 0001:00036d18       ??$extract_argument_from_va_list@U_CRT_DOUBLE@@U1@@?$positional_parameter_base@_WV?$stream_output_adapter@_W@__crt_stdio_output@@@__crt_stdio_output@@IEAA_NAEAU_CRT_DOUBLE@@@Z 0000000180037d18 f i libucrt:output.obj
 0001:00036e24       ??$extract_argument_from_va_list@U_CRT_DOUBLE@@U1@@?$positional_parameter_base@_WV?$string_output_adapter@_W@__crt_stdio_output@@@__crt_stdio_output@@IEAA_NAEAU_CRT_DOUBLE@@@Z 0000000180037e24 f i libucrt:output.obj
 0001:00036f30       ??$extract_argument_from_va_list@U_CRT_DOUBLE@@U1@@?$standard_base@DV?$stream_output_adapter@D@__crt_stdio_output@@@__crt_stdio_output@@IEAA_NAEAU_CRT_DOUBLE@@@Z 0000000180037f30 f i libucrt:output.obj
 0001:00036f48       ??$extract_argument_from_va_list@U_CRT_DOUBLE@@U1@@?$standard_base@DV?$string_output_adapter@D@__crt_stdio_output@@@__crt_stdio_output@@IEAA_NAEAU_CRT_DOUBLE@@@Z 0000000180037f48 f i libucrt:output.obj
 0001:00036f60       ??$extract_argument_from_va_list@U_CRT_DOUBLE@@U1@@?$standard_base@_WV?$stream_output_adapter@_W@__crt_stdio_output@@@__crt_stdio_output@@IEAA_NAEAU_CRT_DOUBLE@@@Z 0000000180037f60 f i libucrt:output.obj
 0001:00036f78       ??$extract_argument_from_va_list@U_CRT_DOUBLE@@U1@@?$standard_base@_WV?$string_output_adapter@_W@__crt_stdio_output@@@__crt_stdio_output@@IEAA_NAEAU_CRT_DOUBLE@@@Z 0000000180037f78 f i libucrt:output.obj
 0001:00036f90       ??$extract_argument_from_va_list@_J_J@?$positional_parameter_base@DV?$stream_output_adapter@D@__crt_stdio_output@@@__crt_stdio_output@@IEAA_NAEA_J@Z 0000000180037f90 f i libucrt:output.obj
 0001:00037098       ??$extract_argument_from_va_list@_J_J@?$positional_parameter_base@DV?$string_output_adapter@D@__crt_stdio_output@@@__crt_stdio_output@@IEAA_NAEA_J@Z 0000000180038098 f i libucrt:output.obj
 0001:000371a0       ??$extract_argument_from_va_list@_J_J@?$positional_parameter_base@_WV?$stream_output_adapter@_W@__crt_stdio_output@@@__crt_stdio_output@@IEAA_NAEA_J@Z 00000001800381a0 f i libucrt:output.obj
 0001:000372ac       ??$extract_argument_from_va_list@_J_J@?$positional_parameter_base@_WV?$string_output_adapter@_W@__crt_stdio_output@@@__crt_stdio_output@@IEAA_NAEA_J@Z 00000001800382ac f i libucrt:output.obj
 0001:000373b8       ??$extract_argument_from_va_list@_J_J@?$standard_base@DV?$stream_output_adapter@D@__crt_stdio_output@@@__crt_stdio_output@@IEAA_NAEA_J@Z 00000001800383b8 f i libucrt:output.obj
 0001:000373d0       ??$extract_argument_from_va_list@_J_J@?$standard_base@DV?$string_output_adapter@D@__crt_stdio_output@@@__crt_stdio_output@@IEAA_NAEA_J@Z 00000001800383d0 f i libucrt:output.obj
 0001:000373e8       ??$extract_argument_from_va_list@_J_J@?$standard_base@_WV?$stream_output_adapter@_W@__crt_stdio_output@@@__crt_stdio_output@@IEAA_NAEA_J@Z 00000001800383e8 f i libucrt:output.obj
 0001:00037400       ??$extract_argument_from_va_list@_J_J@?$standard_base@_WV?$string_output_adapter@_W@__crt_stdio_output@@@__crt_stdio_output@@IEAA_NAEA_J@Z 0000000180038400 f i libucrt:output.obj
 0001:00037418       ??$extract_argument_from_va_list@_K_J@?$positional_parameter_base@DV?$stream_output_adapter@D@__crt_stdio_output@@@__crt_stdio_output@@IEAA_NAEA_J@Z 0000000180038418 f i libucrt:output.obj
 0001:00037520       ??$extract_argument_from_va_list@_K_J@?$positional_parameter_base@DV?$string_output_adapter@D@__crt_stdio_output@@@__crt_stdio_output@@IEAA_NAEA_J@Z 0000000180038520 f i libucrt:output.obj
 0001:00037628       ??$extract_argument_from_va_list@_K_J@?$positional_parameter_base@_WV?$stream_output_adapter@_W@__crt_stdio_output@@@__crt_stdio_output@@IEAA_NAEA_J@Z 0000000180038628 f i libucrt:output.obj
 0001:00037734       ??$extract_argument_from_va_list@_K_J@?$positional_parameter_base@_WV?$string_output_adapter@_W@__crt_stdio_output@@@__crt_stdio_output@@IEAA_NAEA_J@Z 0000000180038734 f i libucrt:output.obj
 0001:00037840       ??$extract_argument_from_va_list@_K_J@?$standard_base@DV?$stream_output_adapter@D@__crt_stdio_output@@@__crt_stdio_output@@IEAA_NAEA_J@Z 0000000180038840 f i libucrt:output.obj
 0001:00037858       ??$extract_argument_from_va_list@_K_J@?$standard_base@DV?$string_output_adapter@D@__crt_stdio_output@@@__crt_stdio_output@@IEAA_NAEA_J@Z 0000000180038858 f i libucrt:output.obj
 0001:00037870       ??$extract_argument_from_va_list@_K_J@?$standard_base@_WV?$stream_output_adapter@_W@__crt_stdio_output@@@__crt_stdio_output@@IEAA_NAEA_J@Z 0000000180038870 f i libucrt:output.obj
 0001:00037888       ??$extract_argument_from_va_list@_K_J@?$standard_base@_WV?$string_output_adapter@_W@__crt_stdio_output@@@__crt_stdio_output@@IEAA_NAEA_J@Z 0000000180038888 f i libucrt:output.obj
 0001:000378a0       ??$extract_argument_from_va_list@_W_W@?$positional_parameter_base@DV?$stream_output_adapter@D@__crt_stdio_output@@@__crt_stdio_output@@IEAA_NAEA_W@Z 00000001800388a0 f i libucrt:output.obj
 0001:000379a8       ??$extract_argument_from_va_list@_W_W@?$positional_parameter_base@DV?$string_output_adapter@D@__crt_stdio_output@@@__crt_stdio_output@@IEAA_NAEA_W@Z 00000001800389a8 f i libucrt:output.obj
 0001:00037ab0       ??$extract_argument_from_va_list@_W_W@?$positional_parameter_base@_WV?$stream_output_adapter@_W@__crt_stdio_output@@@__crt_stdio_output@@IEAA_NAEA_W@Z 0000000180038ab0 f i libucrt:output.obj
 0001:00037bbc       ??$extract_argument_from_va_list@_W_W@?$positional_parameter_base@_WV?$string_output_adapter@_W@__crt_stdio_output@@@__crt_stdio_output@@IEAA_NAEA_W@Z 0000000180038bbc f i libucrt:output.obj
 0001:00037cc8       ??$extract_argument_from_va_list@_W_W@?$standard_base@DV?$stream_output_adapter@D@__crt_stdio_output@@@__crt_stdio_output@@IEAA_NAEA_W@Z 0000000180038cc8 f i libucrt:output.obj
 0001:00037ce0       ??$extract_argument_from_va_list@_W_W@?$standard_base@DV?$string_output_adapter@D@__crt_stdio_output@@@__crt_stdio_output@@IEAA_NAEA_W@Z 0000000180038ce0 f i libucrt:output.obj
 0001:00037cf8       ??$extract_argument_from_va_list@_W_W@?$standard_base@_WV?$stream_output_adapter@_W@__crt_stdio_output@@@__crt_stdio_output@@IEAA_NAEA_W@Z 0000000180038cf8 f i libucrt:output.obj
 0001:00037d10       ??$extract_argument_from_va_list@_W_W@?$standard_base@_WV?$string_output_adapter@_W@__crt_stdio_output@@@__crt_stdio_output@@IEAA_NAEA_W@Z 0000000180038d10 f i libucrt:output.obj
 0001:00037d28       ??$get_parameter_type@D@?$positional_parameter_base@DV?$stream_output_adapter@D@__crt_stdio_output@@@__crt_stdio_output@@CA?AW4parameter_type@01@PEAD@Z 0000000180038d28 f i libucrt:output.obj
 0001:00037d30       ??$get_parameter_type@D@?$positional_parameter_base@DV?$string_output_adapter@D@__crt_stdio_output@@@__crt_stdio_output@@CA?AW4parameter_type@01@PEAD@Z 0000000180038d30 f i libucrt:output.obj
 0001:00037d38       ??$get_parameter_type@D@?$positional_parameter_base@_WV?$stream_output_adapter@_W@__crt_stdio_output@@@__crt_stdio_output@@CA?AW4parameter_type@01@PEAD@Z 0000000180038d38 f i libucrt:output.obj
 0001:00037d40       ??$get_parameter_type@D@?$positional_parameter_base@_WV?$string_output_adapter@_W@__crt_stdio_output@@@__crt_stdio_output@@CA?AW4parameter_type@01@PEAD@Z 0000000180038d40 f i libucrt:output.obj
 0001:00037d48       ??$get_parameter_type@Uansi_string@?1??type_case_Z@?$output_processor@DV?$stream_output_adapter@D@__crt_stdio_output@@V?$positional_parameter_base@DV?$stream_output_adapter@D@__crt_stdio_output@@@2@@__crt_stdio_output@@AEAA_NXZ@@?$positional_parameter_base@DV?$stream_output_adapter@D@__crt_stdio_output@@@__crt_stdio_output@@CA?AW4parameter_type@01@PEAUansi_string@?1??type_case_Z@?$output_processor@DV?$stream_output_adapter@D@__crt_stdio_output@@V?$positional_parameter_base@DV?$stream_output_adapter@D@__crt_stdio_output@@@2@@1@AEAA_NXZ@@Z 0000000180038d48 f i libucrt:output.obj
 0001:00037d50       ??$get_parameter_type@Uansi_string@?1??type_case_Z@?$output_processor@DV?$string_output_adapter@D@__crt_stdio_output@@V?$positional_parameter_base@DV?$string_output_adapter@D@__crt_stdio_output@@@2@@__crt_stdio_output@@AEAA_NXZ@@?$positional_parameter_base@DV?$string_output_adapter@D@__crt_stdio_output@@@__crt_stdio_output@@CA?AW4parameter_type@01@PEAUansi_string@?1??type_case_Z@?$output_processor@DV?$string_output_adapter@D@__crt_stdio_output@@V?$positional_parameter_base@DV?$string_output_adapter@D@__crt_stdio_output@@@2@@1@AEAA_NXZ@@Z 0000000180038d50 f i libucrt:output.obj
 0001:00037d58       ??$get_parameter_type@Uansi_string@?1??type_case_Z@?$output_processor@_WV?$stream_output_adapter@_W@__crt_stdio_output@@V?$positional_parameter_base@_WV?$stream_output_adapter@_W@__crt_stdio_output@@@2@@__crt_stdio_output@@AEAA_NXZ@@?$positional_parameter_base@_WV?$stream_output_adapter@_W@__crt_stdio_output@@@__crt_stdio_output@@CA?AW4parameter_type@01@PEAUansi_string@?1??type_case_Z@?$output_processor@_WV?$stream_output_adapter@_W@__crt_stdio_output@@V?$positional_parameter_base@_WV?$stream_output_adapter@_W@__crt_stdio_output@@@2@@1@AEAA_NXZ@@Z 0000000180038d58 f i libucrt:output.obj
 0001:00037d60       ??$get_parameter_type@Uansi_string@?1??type_case_Z@?$output_processor@_WV?$string_output_adapter@_W@__crt_stdio_output@@V?$positional_parameter_base@_WV?$string_output_adapter@_W@__crt_stdio_output@@@2@@__crt_stdio_output@@AEAA_NXZ@@?$positional_parameter_base@_WV?$string_output_adapter@_W@__crt_stdio_output@@@__crt_stdio_output@@CA?AW4parameter_type@01@PEAUansi_string@?1??type_case_Z@?$output_processor@_WV?$string_output_adapter@_W@__crt_stdio_output@@V?$positional_parameter_base@_WV?$string_output_adapter@_W@__crt_stdio_output@@@2@@1@AEAA_NXZ@@Z 0000000180038d60 f i libucrt:output.obj
 0001:00037d68       ??$get_parameter_type@X@?$positional_parameter_base@DV?$stream_output_adapter@D@__crt_stdio_output@@@__crt_stdio_output@@CA?AW4parameter_type@01@PEAX@Z 0000000180038d68 f i libucrt:output.obj
 0001:00037d70       ??$get_parameter_type@X@?$positional_parameter_base@DV?$string_output_adapter@D@__crt_stdio_output@@@__crt_stdio_output@@CA?AW4parameter_type@01@PEAX@Z 0000000180038d70 f i libucrt:output.obj
 0001:00037d78       ??$get_parameter_type@X@?$positional_parameter_base@_WV?$stream_output_adapter@_W@__crt_stdio_output@@@__crt_stdio_output@@CA?AW4parameter_type@01@PEAX@Z 0000000180038d78 f i libucrt:output.obj
 0001:00037d80       ??$get_parameter_type@X@?$positional_parameter_base@_WV?$string_output_adapter@_W@__crt_stdio_output@@@__crt_stdio_output@@CA?AW4parameter_type@01@PEAX@Z 0000000180038d80 f i libucrt:output.obj
 0001:00037d88       ??$is_character_specifier@D@?$positional_parameter_base@DV?$stream_output_adapter@D@__crt_stdio_output@@@__crt_stdio_output@@CA_ND@Z 0000000180038d88 f i libucrt:output.obj
 0001:00037d94       ??$is_character_specifier@D@?$positional_parameter_base@DV?$string_output_adapter@D@__crt_stdio_output@@@__crt_stdio_output@@CA_ND@Z 0000000180038d94 f i libucrt:output.obj
 0001:00037da0       ??$is_character_specifier@_W@?$positional_parameter_base@_WV?$stream_output_adapter@_W@__crt_stdio_output@@@__crt_stdio_output@@CA_N_W@Z 0000000180038da0 f i libucrt:output.obj
 0001:00037db0       ??$is_character_specifier@_W@?$positional_parameter_base@_WV?$string_output_adapter@_W@__crt_stdio_output@@@__crt_stdio_output@@CA_N_W@Z 0000000180038db0 f i libucrt:output.obj
 0001:00037dc0       ??$is_integral_specifier@D@?$positional_parameter_base@DV?$stream_output_adapter@D@__crt_stdio_output@@@__crt_stdio_output@@CA_ND@Z 0000000180038dc0 f i libucrt:output.obj
 0001:00037de4       ??$is_integral_specifier@D@?$positional_parameter_base@DV?$string_output_adapter@D@__crt_stdio_output@@@__crt_stdio_output@@CA_ND@Z 0000000180038de4 f i libucrt:output.obj
 0001:00037e08       ??$is_integral_specifier@_W@?$positional_parameter_base@_WV?$stream_output_adapter@_W@__crt_stdio_output@@@__crt_stdio_output@@CA_N_W@Z 0000000180038e08 f i libucrt:output.obj
 0001:00037e30       ??$is_integral_specifier@_W@?$positional_parameter_base@_WV?$string_output_adapter@_W@__crt_stdio_output@@@__crt_stdio_output@@CA_N_W@Z 0000000180038e30 f i libucrt:output.obj
 0001:00037e58       ??$is_overflow_condition@K@__crt_strtox@@YA_NIK@Z 0000000180038e58 f i libucrt:output.obj
 0001:00037e80       ??$is_pointer_specifier@D@?$positional_parameter_base@DV?$stream_output_adapter@D@__crt_stdio_output@@@__crt_stdio_output@@CA_ND@Z 0000000180038e80 f i libucrt:output.obj
 0001:00037e88       ??$is_pointer_specifier@D@?$positional_parameter_base@DV?$string_output_adapter@D@__crt_stdio_output@@@__crt_stdio_output@@CA_ND@Z 0000000180038e88 f i libucrt:output.obj
 0001:00037e90       ??$is_pointer_specifier@_W@?$positional_parameter_base@_WV?$stream_output_adapter@_W@__crt_stdio_output@@@__crt_stdio_output@@CA_N_W@Z 0000000180038e90 f i libucrt:output.obj
 0001:00037e98       ??$is_pointer_specifier@_W@?$positional_parameter_base@_WV?$string_output_adapter@_W@__crt_stdio_output@@@__crt_stdio_output@@CA_N_W@Z 0000000180038e98 f i libucrt:output.obj
 0001:00037ea0       ??$is_string_specifier@D@?$positional_parameter_base@DV?$stream_output_adapter@D@__crt_stdio_output@@@__crt_stdio_output@@CA_ND@Z 0000000180038ea0 f i libucrt:output.obj
 0001:00037eac       ??$is_string_specifier@D@?$positional_parameter_base@DV?$string_output_adapter@D@__crt_stdio_output@@@__crt_stdio_output@@CA_ND@Z 0000000180038eac f i libucrt:output.obj
 0001:00037eb8       ??$is_string_specifier@_W@?$positional_parameter_base@_WV?$stream_output_adapter@_W@__crt_stdio_output@@@__crt_stdio_output@@CA_N_W@Z 0000000180038eb8 f i libucrt:output.obj
 0001:00037ec8       ??$is_string_specifier@_W@?$positional_parameter_base@_WV?$string_output_adapter@_W@__crt_stdio_output@@@__crt_stdio_output@@CA_N_W@Z 0000000180038ec8 f i libucrt:output.obj
 0001:00037ed8       ??$is_wide_character_specifier@D@__crt_stdio_output@@YA_N_KDW4length_modifier@0@@Z 0000000180038ed8 f i libucrt:output.obj
 0001:00037f00       ??$is_wide_character_specifier@_W@__crt_stdio_output@@YA_N_K_WW4length_modifier@0@@Z 0000000180038f00 f i libucrt:output.obj
 0001:00037f40       ??$make_c_string_character_source@DPEAPEAD@__crt_strtox@@YA?AV?$c_string_character_source@D@0@QEBDQEAPEAD@Z 0000000180038f40 f i libucrt:output.obj
 0001:00037f54       ??$make_c_string_character_source@_WPEAPEA_W@__crt_strtox@@YA?AV?$c_string_character_source@_W@0@QEB_WQEAPEA_W@Z 0000000180038f54 f i libucrt:output.obj
 0001:00037f68       ??$parse_integer@KV?$c_string_character_source@D@__crt_strtox@@$0A@@__crt_strtox@@YAKAEAV__crt_cached_ptd_host@@V?$c_string_character_source@D@0@H_N@Z 0000000180038f68 f i libucrt:output.obj
 0001:0003821c       ??$parse_integer@KV?$c_string_character_source@_W@__crt_strtox@@$0A@@__crt_strtox@@YAKAEAV__crt_cached_ptd_host@@V?$c_string_character_source@_W@0@H_N@Z 000000018003921c f i libucrt:output.obj
 0001:00038994       ??$peek_va_arg@C@__crt_stdio_output@@YACPEAD@Z 0000000180039994 f i libucrt:output.obj
 0001:00038998       ??$peek_va_arg@E@__crt_stdio_output@@YAEPEAD@Z 0000000180039998 f i libucrt:output.obj
 0001:0003899c       ??$peek_va_arg@F@__crt_stdio_output@@YAFPEAD@Z 000000018003999c f i libucrt:output.obj
 0001:000389a0       ??$peek_va_arg@G@__crt_stdio_output@@YAGPEAD@Z 00000001800399a0 f i libucrt:output.obj
 0001:000389a4       ??$peek_va_arg@H@__crt_stdio_output@@YAHPEAD@Z 00000001800399a4 f i libucrt:output.obj
 0001:000389a8       ??$peek_va_arg@I@__crt_stdio_output@@YAIPEAD@Z 00000001800399a8 f i libucrt:output.obj
 0001:000389ac       ??$peek_va_arg@PEAD@__crt_stdio_output@@YAPEADPEAD@Z 00000001800399ac f i libucrt:output.obj
 0001:000389b0       ??$peek_va_arg@PEAUansi_string@?1??type_case_Z@?$output_processor@DV?$stream_output_adapter@D@__crt_stdio_output@@V?$positional_parameter_base@DV?$stream_output_adapter@D@__crt_stdio_output@@@2@@__crt_stdio_output@@AEAA_NXZ@@__crt_stdio_output@@YAPEAUansi_string@?1??type_case_Z@?$output_processor@DV?$stream_output_adapter@D@__crt_stdio_output@@V?$positional_parameter_base@DV?$stream_output_adapter@D@__crt_stdio_output@@@2@@0@AEAA_NXZ@PEAD@Z 00000001800399b0 f i libucrt:output.obj
 0001:000389b4       ??$peek_va_arg@PEAUansi_string@?1??type_case_Z@?$output_processor@DV?$string_output_adapter@D@__crt_stdio_output@@V?$positional_parameter_base@DV?$string_output_adapter@D@__crt_stdio_output@@@2@@__crt_stdio_output@@AEAA_NXZ@@__crt_stdio_output@@YAPEAUansi_string@?1??type_case_Z@?$output_processor@DV?$string_output_adapter@D@__crt_stdio_output@@V?$positional_parameter_base@DV?$string_output_adapter@D@__crt_stdio_output@@@2@@0@AEAA_NXZ@PEAD@Z 00000001800399b4 f i libucrt:output.obj
 0001:000389b8       ??$peek_va_arg@PEAUansi_string@?1??type_case_Z@?$output_processor@_WV?$stream_output_adapter@_W@__crt_stdio_output@@V?$positional_parameter_base@_WV?$stream_output_adapter@_W@__crt_stdio_output@@@2@@__crt_stdio_output@@AEAA_NXZ@@__crt_stdio_output@@YAPEAUansi_string@?1??type_case_Z@?$output_processor@_WV?$stream_output_adapter@_W@__crt_stdio_output@@V?$positional_parameter_base@_WV?$stream_output_adapter@_W@__crt_stdio_output@@@2@@0@AEAA_NXZ@PEAD@Z 00000001800399b8 f i libucrt:output.obj
 0001:000389bc       ??$peek_va_arg@PEAUansi_string@?1??type_case_Z@?$output_processor@_WV?$string_output_adapter@_W@__crt_stdio_output@@V?$positional_parameter_base@_WV?$string_output_adapter@_W@__crt_stdio_output@@@2@@__crt_stdio_output@@AEAA_NXZ@@__crt_stdio_output@@YAPEAUansi_string@?1??type_case_Z@?$output_processor@_WV?$string_output_adapter@_W@__crt_stdio_output@@V?$positional_parameter_base@_WV?$string_output_adapter@_W@__crt_stdio_output@@@2@@0@AEAA_NXZ@PEAD@Z 00000001800399bc f i libucrt:output.obj
 0001:000389c0       ??$peek_va_arg@PEAX@__crt_stdio_output@@YAPEAXPEAD@Z 00000001800399c0 f i libucrt:output.obj
 0001:000389c4       ??$peek_va_arg@U_CRT_DOUBLE@@@__crt_stdio_output@@YA?AU_CRT_DOUBLE@@PEAD@Z 00000001800399c4 f i libucrt:output.obj
 0001:000389c8       ??$peek_va_arg@_J@__crt_stdio_output@@YA_JPEAD@Z 00000001800399c8 f i libucrt:output.obj
 0001:000389cc       ??$peek_va_arg@_K@__crt_stdio_output@@YA_KPEAD@Z 00000001800399cc f i libucrt:output.obj
 0001:000389d0       ??$peek_va_arg@_W@__crt_stdio_output@@YA_WPEAD@Z 00000001800399d0 f i libucrt:output.obj
 0001:000389d4       ??$puttc_nolock_internal@AEBDPEAU_iobuf@@AEAV__crt_cached_ptd_host@@@?$__crt_char_traits@D@@SAHAEBD$$QEAPEAU_iobuf@@AEAV__crt_cached_ptd_host@@@Z 00000001800399d4 f i libucrt:output.obj
 0001:000389e0       ??$puttc_nolock_internal@AEB_WPEAU_iobuf@@AEAV__crt_cached_ptd_host@@@?$__crt_char_traits@_W@@SAGAEB_W$$QEAPEAU_iobuf@@AEAV__crt_cached_ptd_host@@@Z 00000001800399e0 f i libucrt:output.obj
 0001:000389ec       ??$read_va_arg@C@__crt_stdio_output@@YACAEAPEAD@Z 00000001800399ec f i libucrt:output.obj
 0001:000389fc       ??$read_va_arg@E@__crt_stdio_output@@YAEAEAPEAD@Z 00000001800399fc f i libucrt:output.obj
 0001:00038a0c       ??$read_va_arg@F@__crt_stdio_output@@YAFAEAPEAD@Z 0000000180039a0c f i libucrt:output.obj
 0001:00038a1c       ??$read_va_arg@G@__crt_stdio_output@@YAGAEAPEAD@Z 0000000180039a1c f i libucrt:output.obj
 0001:00038a2c       ??$read_va_arg@H@__crt_stdio_output@@YAHAEAPEAD@Z 0000000180039a2c f i libucrt:output.obj
 0001:00038a3c       ??$read_va_arg@I@__crt_stdio_output@@YAIAEAPEAD@Z 0000000180039a3c f i libucrt:output.obj
 0001:00038a4c       ??$read_va_arg@PEAD@__crt_stdio_output@@YAPEADAEAPEAD@Z 0000000180039a4c f i libucrt:output.obj
 0001:00038a5c       ??$read_va_arg@PEAUansi_string@?1??type_case_Z@?$output_processor@DV?$stream_output_adapter@D@__crt_stdio_output@@V?$format_validation_base@DV?$stream_output_adapter@D@__crt_stdio_output@@@2@@__crt_stdio_output@@AEAA_NXZ@@__crt_stdio_output@@YAPEAUansi_string@?1??type_case_Z@?$output_processor@DV?$stream_output_adapter@D@__crt_stdio_output@@V?$format_validation_base@DV?$stream_output_adapter@D@__crt_stdio_output@@@2@@0@AEAA_NXZ@AEAPEAD@Z 0000000180039a5c f i libucrt:output.obj
 0001:00038a6c       ??$read_va_arg@PEAUansi_string@?1??type_case_Z@?$output_processor@DV?$stream_output_adapter@D@__crt_stdio_output@@V?$positional_parameter_base@DV?$stream_output_adapter@D@__crt_stdio_output@@@2@@__crt_stdio_output@@AEAA_NXZ@@__crt_stdio_output@@YAPEAUansi_string@?1??type_case_Z@?$output_processor@DV?$stream_output_adapter@D@__crt_stdio_output@@V?$positional_parameter_base@DV?$stream_output_adapter@D@__crt_stdio_output@@@2@@0@AEAA_NXZ@AEAPEAD@Z 0000000180039a6c f i libucrt:output.obj
 0001:00038a7c       ??$read_va_arg@PEAUansi_string@?1??type_case_Z@?$output_processor@DV?$stream_output_adapter@D@__crt_stdio_output@@V?$standard_base@DV?$stream_output_adapter@D@__crt_stdio_output@@@2@@__crt_stdio_output@@AEAA_NXZ@@__crt_stdio_output@@YAPEAUansi_string@?1??type_case_Z@?$output_processor@DV?$stream_output_adapter@D@__crt_stdio_output@@V?$standard_base@DV?$stream_output_adapter@D@__crt_stdio_output@@@2@@0@AEAA_NXZ@AEAPEAD@Z 0000000180039a7c f i libucrt:output.obj
 0001:00038a8c       ??$read_va_arg@PEAUansi_string@?1??type_case_Z@?$output_processor@DV?$string_output_adapter@D@__crt_stdio_output@@V?$format_validation_base@DV?$string_output_adapter@D@__crt_stdio_output@@@2@@__crt_stdio_output@@AEAA_NXZ@@__crt_stdio_output@@YAPEAUansi_string@?1??type_case_Z@?$output_processor@DV?$string_output_adapter@D@__crt_stdio_output@@V?$format_validation_base@DV?$string_output_adapter@D@__crt_stdio_output@@@2@@0@AEAA_NXZ@AEAPEAD@Z 0000000180039a8c f i libucrt:output.obj
 0001:00038a9c       ??$read_va_arg@PEAUansi_string@?1??type_case_Z@?$output_processor@DV?$string_output_adapter@D@__crt_stdio_output@@V?$positional_parameter_base@DV?$string_output_adapter@D@__crt_stdio_output@@@2@@__crt_stdio_output@@AEAA_NXZ@@__crt_stdio_output@@YAPEAUansi_string@?1??type_case_Z@?$output_processor@DV?$string_output_adapter@D@__crt_stdio_output@@V?$positional_parameter_base@DV?$string_output_adapter@D@__crt_stdio_output@@@2@@0@AEAA_NXZ@AEAPEAD@Z 0000000180039a9c f i libucrt:output.obj
 0001:00038aac       ??$read_va_arg@PEAUansi_string@?1??type_case_Z@?$output_processor@DV?$string_output_adapter@D@__crt_stdio_output@@V?$standard_base@DV?$string_output_adapter@D@__crt_stdio_output@@@2@@__crt_stdio_output@@AEAA_NXZ@@__crt_stdio_output@@YAPEAUansi_string@?1??type_case_Z@?$output_processor@DV?$string_output_adapter@D@__crt_stdio_output@@V?$standard_base@DV?$string_output_adapter@D@__crt_stdio_output@@@2@@0@AEAA_NXZ@AEAPEAD@Z 0000000180039aac f i libucrt:output.obj
 0001:00038abc       ??$read_va_arg@PEAUansi_string@?1??type_case_Z@?$output_processor@_WV?$stream_output_adapter@_W@__crt_stdio_output@@V?$format_validation_base@_WV?$stream_output_adapter@_W@__crt_stdio_output@@@2@@__crt_stdio_output@@AEAA_NXZ@@__crt_stdio_output@@YAPEAUansi_string@?1??type_case_Z@?$output_processor@_WV?$stream_output_adapter@_W@__crt_stdio_output@@V?$format_validation_base@_WV?$stream_output_adapter@_W@__crt_stdio_output@@@2@@0@AEAA_NXZ@AEAPEAD@Z 0000000180039abc f i libucrt:output.obj
 0001:00038acc       ??$read_va_arg@PEAUansi_string@?1??type_case_Z@?$output_processor@_WV?$stream_output_adapter@_W@__crt_stdio_output@@V?$positional_parameter_base@_WV?$stream_output_adapter@_W@__crt_stdio_output@@@2@@__crt_stdio_output@@AEAA_NXZ@@__crt_stdio_output@@YAPEAUansi_string@?1??type_case_Z@?$output_processor@_WV?$stream_output_adapter@_W@__crt_stdio_output@@V?$positional_parameter_base@_WV?$stream_output_adapter@_W@__crt_stdio_output@@@2@@0@AEAA_NXZ@AEAPEAD@Z 0000000180039acc f i libucrt:output.obj
 0001:00038adc       ??$read_va_arg@PEAUansi_string@?1??type_case_Z@?$output_processor@_WV?$stream_output_adapter@_W@__crt_stdio_output@@V?$standard_base@_WV?$stream_output_adapter@_W@__crt_stdio_output@@@2@@__crt_stdio_output@@AEAA_NXZ@@__crt_stdio_output@@YAPEAUansi_string@?1??type_case_Z@?$output_processor@_WV?$stream_output_adapter@_W@__crt_stdio_output@@V?$standard_base@_WV?$stream_output_adapter@_W@__crt_stdio_output@@@2@@0@AEAA_NXZ@AEAPEAD@Z 0000000180039adc f i libucrt:output.obj
 0001:00038aec       ??$read_va_arg@PEAUansi_string@?1??type_case_Z@?$output_processor@_WV?$string_output_adapter@_W@__crt_stdio_output@@V?$format_validation_base@_WV?$string_output_adapter@_W@__crt_stdio_output@@@2@@__crt_stdio_output@@AEAA_NXZ@@__crt_stdio_output@@YAPEAUansi_string@?1??type_case_Z@?$output_processor@_WV?$string_output_adapter@_W@__crt_stdio_output@@V?$format_validation_base@_WV?$string_output_adapter@_W@__crt_stdio_output@@@2@@0@AEAA_NXZ@AEAPEAD@Z 0000000180039aec f i libucrt:output.obj
 0001:00038afc       ??$read_va_arg@PEAUansi_string@?1??type_case_Z@?$output_processor@_WV?$string_output_adapter@_W@__crt_stdio_output@@V?$positional_parameter_base@_WV?$string_output_adapter@_W@__crt_stdio_output@@@2@@__crt_stdio_output@@AEAA_NXZ@@__crt_stdio_output@@YAPEAUansi_string@?1??type_case_Z@?$output_processor@_WV?$string_output_adapter@_W@__crt_stdio_output@@V?$positional_parameter_base@_WV?$string_output_adapter@_W@__crt_stdio_output@@@2@@0@AEAA_NXZ@AEAPEAD@Z 0000000180039afc f i libucrt:output.obj
 0001:00038b0c       ??$read_va_arg@PEAUansi_string@?1??type_case_Z@?$output_processor@_WV?$string_output_adapter@_W@__crt_stdio_output@@V?$standard_base@_WV?$string_output_adapter@_W@__crt_stdio_output@@@2@@__crt_stdio_output@@AEAA_NXZ@@__crt_stdio_output@@YAPEAUansi_string@?1??type_case_Z@?$output_processor@_WV?$string_output_adapter@_W@__crt_stdio_output@@V?$standard_base@_WV?$string_output_adapter@_W@__crt_stdio_output@@@2@@0@AEAA_NXZ@AEAPEAD@Z 0000000180039b0c f i libucrt:output.obj
 0001:00038b1c       ??$read_va_arg@PEAX@__crt_stdio_output@@YAPEAXAEAPEAD@Z 0000000180039b1c f i libucrt:output.obj
 0001:00038b2c       ??$read_va_arg@U_CRT_DOUBLE@@@__crt_stdio_output@@YA?AU_CRT_DOUBLE@@AEAPEAD@Z 0000000180039b2c f i libucrt:output.obj
 0001:00038b3c       ??$read_va_arg@_J@__crt_stdio_output@@YA_JAEAPEAD@Z 0000000180039b3c f i libucrt:output.obj
 0001:00038b4c       ??$read_va_arg@_K@__crt_stdio_output@@YA_KAEAPEAD@Z 0000000180039b4c f i libucrt:output.obj
 0001:00038b5c       ??$read_va_arg@_W@__crt_stdio_output@@YA_WAEAPEAD@Z 0000000180039b5c f i libucrt:output.obj
 0001:00038b6c       ??$scratch_count@D@formatting_buffer@__crt_stdio_output@@QEBA_KXZ 0000000180039b6c f i libucrt:output.obj
 0001:00038b88       ??$scratch_data@D@formatting_buffer@__crt_stdio_output@@QEAAPEADXZ 0000000180039b88 f i libucrt:output.obj
 0001:00038bac       ??$type_case_integer@$07@?$output_processor@DV?$stream_output_adapter@D@__crt_stdio_output@@V?$format_validation_base@DV?$stream_output_adapter@D@__crt_stdio_output@@@2@@__crt_stdio_output@@AEAA_N_N@Z 0000000180039bac f i libucrt:output.obj
 0001:00038db0       ??$type_case_integer@$07@?$output_processor@DV?$stream_output_adapter@D@__crt_stdio_output@@V?$positional_parameter_base@DV?$stream_output_adapter@D@__crt_stdio_output@@@2@@__crt_stdio_output@@AEAA_N_N@Z 0000000180039db0 f i libucrt:output.obj
 0001:00038fdc       ??$type_case_integer@$07@?$output_processor@DV?$stream_output_adapter@D@__crt_stdio_output@@V?$standard_base@DV?$stream_output_adapter@D@__crt_stdio_output@@@2@@__crt_stdio_output@@AEAA_N_N@Z 0000000180039fdc f i libucrt:output.obj
 0001:000391e0       ??$type_case_integer@$07@?$output_processor@DV?$string_output_adapter@D@__crt_stdio_output@@V?$format_validation_base@DV?$string_output_adapter@D@__crt_stdio_output@@@2@@__crt_stdio_output@@AEAA_N_N@Z 000000018003a1e0 f i libucrt:output.obj
 0001:000393e4       ??$type_case_integer@$07@?$output_processor@DV?$string_output_adapter@D@__crt_stdio_output@@V?$positional_parameter_base@DV?$string_output_adapter@D@__crt_stdio_output@@@2@@__crt_stdio_output@@AEAA_N_N@Z 000000018003a3e4 f i libucrt:output.obj
 0001:00039610       ??$type_case_integer@$07@?$output_processor@DV?$string_output_adapter@D@__crt_stdio_output@@V?$standard_base@DV?$string_output_adapter@D@__crt_stdio_output@@@2@@__crt_stdio_output@@AEAA_N_N@Z 000000018003a610 f i libucrt:output.obj
 0001:00039814       ??$type_case_integer@$07@?$output_processor@_WV?$stream_output_adapter@_W@__crt_stdio_output@@V?$format_validation_base@_WV?$stream_output_adapter@_W@__crt_stdio_output@@@2@@__crt_stdio_output@@AEAA_N_N@Z 000000018003a814 f i libucrt:output.obj
 0001:00039a20       ??$type_case_integer@$07@?$output_processor@_WV?$stream_output_adapter@_W@__crt_stdio_output@@V?$positional_parameter_base@_WV?$stream_output_adapter@_W@__crt_stdio_output@@@2@@__crt_stdio_output@@AEAA_N_N@Z 000000018003aa20 f i libucrt:output.obj
 0001:00039c54       ??$type_case_integer@$07@?$output_processor@_WV?$stream_output_adapter@_W@__crt_stdio_output@@V?$standard_base@_WV?$stream_output_adapter@_W@__crt_stdio_output@@@2@@__crt_stdio_output@@AEAA_N_N@Z 000000018003ac54 f i libucrt:output.obj
 0001:00039e60       ??$type_case_integer@$07@?$output_processor@_WV?$string_output_adapter@_W@__crt_stdio_output@@V?$format_validation_base@_WV?$string_output_adapter@_W@__crt_stdio_output@@@2@@__crt_stdio_output@@AEAA_N_N@Z 000000018003ae60 f i libucrt:output.obj
 0001:0003a06c       ??$type_case_integer@$07@?$output_processor@_WV?$string_output_adapter@_W@__crt_stdio_output@@V?$positional_parameter_base@_WV?$string_output_adapter@_W@__crt_stdio_output@@@2@@__crt_stdio_output@@AEAA_N_N@Z 000000018003b06c f i libucrt:output.obj
 0001:0003a2a0       ??$type_case_integer@$07@?$output_processor@_WV?$string_output_adapter@_W@__crt_stdio_output@@V?$standard_base@_WV?$string_output_adapter@_W@__crt_stdio_output@@@2@@__crt_stdio_output@@AEAA_N_N@Z 000000018003b2a0 f i libucrt:output.obj
 0001:0003a4ac       ??$type_case_integer@$09@?$output_processor@DV?$stream_output_adapter@D@__crt_stdio_output@@V?$format_validation_base@DV?$stream_output_adapter@D@__crt_stdio_output@@@2@@__crt_stdio_output@@AEAA_N_N@Z 000000018003b4ac f i libucrt:output.obj
 0001:0003a6b0       ??$type_case_integer@$09@?$output_processor@DV?$stream_output_adapter@D@__crt_stdio_output@@V?$positional_parameter_base@DV?$stream_output_adapter@D@__crt_stdio_output@@@2@@__crt_stdio_output@@AEAA_N_N@Z 000000018003b6b0 f i libucrt:output.obj
 0001:0003a8dc       ??$type_case_integer@$09@?$output_processor@DV?$stream_output_adapter@D@__crt_stdio_output@@V?$standard_base@DV?$stream_output_adapter@D@__crt_stdio_output@@@2@@__crt_stdio_output@@AEAA_N_N@Z 000000018003b8dc f i libucrt:output.obj
 0001:0003aae0       ??$type_case_integer@$09@?$output_processor@DV?$string_output_adapter@D@__crt_stdio_output@@V?$format_validation_base@DV?$string_output_adapter@D@__crt_stdio_output@@@2@@__crt_stdio_output@@AEAA_N_N@Z 000000018003bae0 f i libucrt:output.obj
 0001:0003ace4       ??$type_case_integer@$09@?$output_processor@DV?$string_output_adapter@D@__crt_stdio_output@@V?$positional_parameter_base@DV?$string_output_adapter@D@__crt_stdio_output@@@2@@__crt_stdio_output@@AEAA_N_N@Z 000000018003bce4 f i libucrt:output.obj
 0001:0003af10       ??$type_case_integer@$09@?$output_processor@DV?$string_output_adapter@D@__crt_stdio_output@@V?$standard_base@DV?$string_output_adapter@D@__crt_stdio_output@@@2@@__crt_stdio_output@@AEAA_N_N@Z 000000018003bf10 f i libucrt:output.obj
 0001:0003b114       ??$type_case_integer@$09@?$output_processor@_WV?$stream_output_adapter@_W@__crt_stdio_output@@V?$format_validation_base@_WV?$stream_output_adapter@_W@__crt_stdio_output@@@2@@__crt_stdio_output@@AEAA_N_N@Z 000000018003c114 f i libucrt:output.obj
 0001:0003b320       ??$type_case_integer@$09@?$output_processor@_WV?$stream_output_adapter@_W@__crt_stdio_output@@V?$positional_parameter_base@_WV?$stream_output_adapter@_W@__crt_stdio_output@@@2@@__crt_stdio_output@@AEAA_N_N@Z 000000018003c320 f i libucrt:output.obj
 0001:0003b554       ??$type_case_integer@$09@?$output_processor@_WV?$stream_output_adapter@_W@__crt_stdio_output@@V?$standard_base@_WV?$stream_output_adapter@_W@__crt_stdio_output@@@2@@__crt_stdio_output@@AEAA_N_N@Z 000000018003c554 f i libucrt:output.obj
 0001:0003b760       ??$type_case_integer@$09@?$output_processor@_WV?$string_output_adapter@_W@__crt_stdio_output@@V?$format_validation_base@_WV?$string_output_adapter@_W@__crt_stdio_output@@@2@@__crt_stdio_output@@AEAA_N_N@Z 000000018003c760 f i libucrt:output.obj
 0001:0003b96c       ??$type_case_integer@$09@?$output_processor@_WV?$string_output_adapter@_W@__crt_stdio_output@@V?$positional_parameter_base@_WV?$string_output_adapter@_W@__crt_stdio_output@@@2@@__crt_stdio_output@@AEAA_N_N@Z 000000018003c96c f i libucrt:output.obj
 0001:0003bba0       ??$type_case_integer@$09@?$output_processor@_WV?$string_output_adapter@_W@__crt_stdio_output@@V?$standard_base@_WV?$string_output_adapter@_W@__crt_stdio_output@@@2@@__crt_stdio_output@@AEAA_N_N@Z 000000018003cba0 f i libucrt:output.obj
 0001:0003bdac       ??$type_case_integer@$0BA@@?$output_processor@DV?$stream_output_adapter@D@__crt_stdio_output@@V?$format_validation_base@DV?$stream_output_adapter@D@__crt_stdio_output@@@2@@__crt_stdio_output@@AEAA_N_N@Z 000000018003cdac f i libucrt:output.obj
 0001:0003bfb0       ??$type_case_integer@$0BA@@?$output_processor@DV?$stream_output_adapter@D@__crt_stdio_output@@V?$positional_parameter_base@DV?$stream_output_adapter@D@__crt_stdio_output@@@2@@__crt_stdio_output@@AEAA_N_N@Z 000000018003cfb0 f i libucrt:output.obj
 0001:0003c1dc       ??$type_case_integer@$0BA@@?$output_processor@DV?$stream_output_adapter@D@__crt_stdio_output@@V?$standard_base@DV?$stream_output_adapter@D@__crt_stdio_output@@@2@@__crt_stdio_output@@AEAA_N_N@Z 000000018003d1dc f i libucrt:output.obj
 0001:0003c3e0       ??$type_case_integer@$0BA@@?$output_processor@DV?$string_output_adapter@D@__crt_stdio_output@@V?$format_validation_base@DV?$string_output_adapter@D@__crt_stdio_output@@@2@@__crt_stdio_output@@AEAA_N_N@Z 000000018003d3e0 f i libucrt:output.obj
 0001:0003c5e4       ??$type_case_integer@$0BA@@?$output_processor@DV?$string_output_adapter@D@__crt_stdio_output@@V?$positional_parameter_base@DV?$string_output_adapter@D@__crt_stdio_output@@@2@@__crt_stdio_output@@AEAA_N_N@Z 000000018003d5e4 f i libucrt:output.obj
 0001:0003c810       ??$type_case_integer@$0BA@@?$output_processor@DV?$string_output_adapter@D@__crt_stdio_output@@V?$standard_base@DV?$string_output_adapter@D@__crt_stdio_output@@@2@@__crt_stdio_output@@AEAA_N_N@Z 000000018003d810 f i libucrt:output.obj
 0001:0003ca14       ??$type_case_integer@$0BA@@?$output_processor@_WV?$stream_output_adapter@_W@__crt_stdio_output@@V?$format_validation_base@_WV?$stream_output_adapter@_W@__crt_stdio_output@@@2@@__crt_stdio_output@@AEAA_N_N@Z 000000018003da14 f i libucrt:output.obj
 0001:0003cc20       ??$type_case_integer@$0BA@@?$output_processor@_WV?$stream_output_adapter@_W@__crt_stdio_output@@V?$positional_parameter_base@_WV?$stream_output_adapter@_W@__crt_stdio_output@@@2@@__crt_stdio_output@@AEAA_N_N@Z 000000018003dc20 f i libucrt:output.obj
 0001:0003ce54       ??$type_case_integer@$0BA@@?$output_processor@_WV?$stream_output_adapter@_W@__crt_stdio_output@@V?$standard_base@_WV?$stream_output_adapter@_W@__crt_stdio_output@@@2@@__crt_stdio_output@@AEAA_N_N@Z 000000018003de54 f i libucrt:output.obj
 0001:0003d060       ??$type_case_integer@$0BA@@?$output_processor@_WV?$string_output_adapter@_W@__crt_stdio_output@@V?$format_validation_base@_WV?$string_output_adapter@_W@__crt_stdio_output@@@2@@__crt_stdio_output@@AEAA_N_N@Z 000000018003e060 f i libucrt:output.obj
 0001:0003d26c       ??$type_case_integer@$0BA@@?$output_processor@_WV?$string_output_adapter@_W@__crt_stdio_output@@V?$positional_parameter_base@_WV?$string_output_adapter@_W@__crt_stdio_output@@@2@@__crt_stdio_output@@AEAA_N_N@Z 000000018003e26c f i libucrt:output.obj
 0001:0003d4a0       ??$type_case_integer@$0BA@@?$output_processor@_WV?$string_output_adapter@_W@__crt_stdio_output@@V?$standard_base@_WV?$string_output_adapter@_W@__crt_stdio_output@@@2@@__crt_stdio_output@@AEAA_N_N@Z 000000018003e4a0 f i libucrt:output.obj
 0001:0003d6ac       ??$type_case_integer_parse_into_buffer@I$07@?$output_processor@DV?$stream_output_adapter@D@__crt_stdio_output@@V?$format_validation_base@DV?$stream_output_adapter@D@__crt_stdio_output@@@2@@__crt_stdio_output@@AEAAXI_N@Z 000000018003e6ac f i libucrt:output.obj
 0001:0003d71c       ??$type_case_integer_parse_into_buffer@I$07@?$output_processor@DV?$stream_output_adapter@D@__crt_stdio_output@@V?$positional_parameter_base@DV?$stream_output_adapter@D@__crt_stdio_output@@@2@@__crt_stdio_output@@AEAAXI_N@Z 000000018003e71c f i libucrt:output.obj
 0001:0003d78c       ??$type_case_integer_parse_into_buffer@I$07@?$output_processor@DV?$stream_output_adapter@D@__crt_stdio_output@@V?$standard_base@DV?$stream_output_adapter@D@__crt_stdio_output@@@2@@__crt_stdio_output@@AEAAXI_N@Z 000000018003e78c f i libucrt:output.obj
 0001:0003d7fc       ??$type_case_integer_parse_into_buffer@I$07@?$output_processor@DV?$string_output_adapter@D@__crt_stdio_output@@V?$format_validation_base@DV?$string_output_adapter@D@__crt_stdio_output@@@2@@__crt_stdio_output@@AEAAXI_N@Z 000000018003e7fc f i libucrt:output.obj
 0001:0003d86c       ??$type_case_integer_parse_into_buffer@I$07@?$output_processor@DV?$string_output_adapter@D@__crt_stdio_output@@V?$positional_parameter_base@DV?$string_output_adapter@D@__crt_stdio_output@@@2@@__crt_stdio_output@@AEAAXI_N@Z 000000018003e86c f i libucrt:output.obj
 0001:0003d8dc       ??$type_case_integer_parse_into_buffer@I$07@?$output_processor@DV?$string_output_adapter@D@__crt_stdio_output@@V?$standard_base@DV?$string_output_adapter@D@__crt_stdio_output@@@2@@__crt_stdio_output@@AEAAXI_N@Z 000000018003e8dc f i libucrt:output.obj
 0001:0003d94c       ??$type_case_integer_parse_into_buffer@I$07@?$output_processor@_WV?$stream_output_adapter@_W@__crt_stdio_output@@V?$format_validation_base@_WV?$stream_output_adapter@_W@__crt_stdio_output@@@2@@__crt_stdio_output@@AEAAXI_N@Z 000000018003e94c f i libucrt:output.obj
 0001:0003d9d0       ??$type_case_integer_parse_into_buffer@I$07@?$output_processor@_WV?$stream_output_adapter@_W@__crt_stdio_output@@V?$positional_parameter_base@_WV?$stream_output_adapter@_W@__crt_stdio_output@@@2@@__crt_stdio_output@@AEAAXI_N@Z 000000018003e9d0 f i libucrt:output.obj
 0001:0003da54       ??$type_case_integer_parse_into_buffer@I$07@?$output_processor@_WV?$stream_output_adapter@_W@__crt_stdio_output@@V?$standard_base@_WV?$stream_output_adapter@_W@__crt_stdio_output@@@2@@__crt_stdio_output@@AEAAXI_N@Z 000000018003ea54 f i libucrt:output.obj
 0001:0003dad8       ??$type_case_integer_parse_into_buffer@I$07@?$output_processor@_WV?$string_output_adapter@_W@__crt_stdio_output@@V?$format_validation_base@_WV?$string_output_adapter@_W@__crt_stdio_output@@@2@@__crt_stdio_output@@AEAAXI_N@Z 000000018003ead8 f i libucrt:output.obj
 0001:0003db5c       ??$type_case_integer_parse_into_buffer@I$07@?$output_processor@_WV?$string_output_adapter@_W@__crt_stdio_output@@V?$positional_parameter_base@_WV?$string_output_adapter@_W@__crt_stdio_output@@@2@@__crt_stdio_output@@AEAAXI_N@Z 000000018003eb5c f i libucrt:output.obj
 0001:0003dbe0       ??$type_case_integer_parse_into_buffer@I$07@?$output_processor@_WV?$string_output_adapter@_W@__crt_stdio_output@@V?$standard_base@_WV?$string_output_adapter@_W@__crt_stdio_output@@@2@@__crt_stdio_output@@AEAAXI_N@Z 000000018003ebe0 f i libucrt:output.obj
 0001:0003dc64       ??$type_case_integer_parse_into_buffer@I$09@?$output_processor@DV?$stream_output_adapter@D@__crt_stdio_output@@V?$format_validation_base@DV?$stream_output_adapter@D@__crt_stdio_output@@@2@@__crt_stdio_output@@AEAAXI_N@Z 000000018003ec64 f i libucrt:output.obj
 0001:0003dd10       ??$type_case_integer_parse_into_buffer@I$09@?$output_processor@DV?$stream_output_adapter@D@__crt_stdio_output@@V?$positional_parameter_base@DV?$stream_output_adapter@D@__crt_stdio_output@@@2@@__crt_stdio_output@@AEAAXI_N@Z 000000018003ed10 f i libucrt:output.obj
 0001:0003ddbc       ??$type_case_integer_parse_into_buffer@I$09@?$output_processor@DV?$stream_output_adapter@D@__crt_stdio_output@@V?$standard_base@DV?$stream_output_adapter@D@__crt_stdio_output@@@2@@__crt_stdio_output@@AEAAXI_N@Z 000000018003edbc f i libucrt:output.obj
 0001:0003de68       ??$type_case_integer_parse_into_buffer@I$09@?$output_processor@DV?$string_output_adapter@D@__crt_stdio_output@@V?$format_validation_base@DV?$string_output_adapter@D@__crt_stdio_output@@@2@@__crt_stdio_output@@AEAAXI_N@Z 000000018003ee68 f i libucrt:output.obj
 0001:0003df14       ??$type_case_integer_parse_into_buffer@I$09@?$output_processor@DV?$string_output_adapter@D@__crt_stdio_output@@V?$positional_parameter_base@DV?$string_output_adapter@D@__crt_stdio_output@@@2@@__crt_stdio_output@@AEAAXI_N@Z 000000018003ef14 f i libucrt:output.obj
 0001:0003dfc0       ??$type_case_integer_parse_into_buffer@I$09@?$output_processor@DV?$string_output_adapter@D@__crt_stdio_output@@V?$standard_base@DV?$string_output_adapter@D@__crt_stdio_output@@@2@@__crt_stdio_output@@AEAAXI_N@Z 000000018003efc0 f i libucrt:output.obj
 0001:0003e06c       ??$type_case_integer_parse_into_buffer@I$09@?$output_processor@_WV?$stream_output_adapter@_W@__crt_stdio_output@@V?$format_validation_base@_WV?$stream_output_adapter@_W@__crt_stdio_output@@@2@@__crt_stdio_output@@AEAAXI_N@Z 000000018003f06c f i libucrt:output.obj
 0001:0003e12c       ??$type_case_integer_parse_into_buffer@I$09@?$output_processor@_WV?$stream_output_adapter@_W@__crt_stdio_output@@V?$positional_parameter_base@_WV?$stream_output_adapter@_W@__crt_stdio_output@@@2@@__crt_stdio_output@@AEAAXI_N@Z 000000018003f12c f i libucrt:output.obj
 0001:0003e1ec       ??$type_case_integer_parse_into_buffer@I$09@?$output_processor@_WV?$stream_output_adapter@_W@__crt_stdio_output@@V?$standard_base@_WV?$stream_output_adapter@_W@__crt_stdio_output@@@2@@__crt_stdio_output@@AEAAXI_N@Z 000000018003f1ec f i libucrt:output.obj
 0001:0003e2ac       ??$type_case_integer_parse_into_buffer@I$09@?$output_processor@_WV?$string_output_adapter@_W@__crt_stdio_output@@V?$format_validation_base@_WV?$string_output_adapter@_W@__crt_stdio_output@@@2@@__crt_stdio_output@@AEAAXI_N@Z 000000018003f2ac f i libucrt:output.obj
 0001:0003e36c       ??$type_case_integer_parse_into_buffer@I$09@?$output_processor@_WV?$string_output_adapter@_W@__crt_stdio_output@@V?$positional_parameter_base@_WV?$string_output_adapter@_W@__crt_stdio_output@@@2@@__crt_stdio_output@@AEAAXI_N@Z 000000018003f36c f i libucrt:output.obj
 0001:0003e42c       ??$type_case_integer_parse_into_buffer@I$09@?$output_processor@_WV?$string_output_adapter@_W@__crt_stdio_output@@V?$standard_base@_WV?$string_output_adapter@_W@__crt_stdio_output@@@2@@__crt_stdio_output@@AEAAXI_N@Z 000000018003f42c f i libucrt:output.obj
 0001:0003e4ec       ??$type_case_integer_parse_into_buffer@I$0BA@@?$output_processor@DV?$stream_output_adapter@D@__crt_stdio_output@@V?$format_validation_base@DV?$stream_output_adapter@D@__crt_stdio_output@@@2@@__crt_stdio_output@@AEAAXI_N@Z 000000018003f4ec f i libucrt:output.obj
 0001:0003e570       ??$type_case_integer_parse_into_buffer@I$0BA@@?$output_processor@DV?$stream_output_adapter@D@__crt_stdio_output@@V?$positional_parameter_base@DV?$stream_output_adapter@D@__crt_stdio_output@@@2@@__crt_stdio_output@@AEAAXI_N@Z 000000018003f570 f i libucrt:output.obj
 0001:0003e5f4       ??$type_case_integer_parse_into_buffer@I$0BA@@?$output_processor@DV?$stream_output_adapter@D@__crt_stdio_output@@V?$standard_base@DV?$stream_output_adapter@D@__crt_stdio_output@@@2@@__crt_stdio_output@@AEAAXI_N@Z 000000018003f5f4 f i libucrt:output.obj
 0001:0003e678       ??$type_case_integer_parse_into_buffer@I$0BA@@?$output_processor@DV?$string_output_adapter@D@__crt_stdio_output@@V?$format_validation_base@DV?$string_output_adapter@D@__crt_stdio_output@@@2@@__crt_stdio_output@@AEAAXI_N@Z 000000018003f678 f i libucrt:output.obj
 0001:0003e6fc       ??$type_case_integer_parse_into_buffer@I$0BA@@?$output_processor@DV?$string_output_adapter@D@__crt_stdio_output@@V?$positional_parameter_base@DV?$string_output_adapter@D@__crt_stdio_output@@@2@@__crt_stdio_output@@AEAAXI_N@Z 000000018003f6fc f i libucrt:output.obj
 0001:0003e780       ??$type_case_integer_parse_into_buffer@I$0BA@@?$output_processor@DV?$string_output_adapter@D@__crt_stdio_output@@V?$standard_base@DV?$string_output_adapter@D@__crt_stdio_output@@@2@@__crt_stdio_output@@AEAAXI_N@Z 000000018003f780 f i libucrt:output.obj
 0001:0003e804       ??$type_case_integer_parse_into_buffer@I$0BA@@?$output_processor@_WV?$stream_output_adapter@_W@__crt_stdio_output@@V?$format_validation_base@_WV?$stream_output_adapter@_W@__crt_stdio_output@@@2@@__crt_stdio_output@@AEAAXI_N@Z 000000018003f804 f i libucrt:output.obj
 0001:0003e8a4       ??$type_case_integer_parse_into_buffer@I$0BA@@?$output_processor@_WV?$stream_output_adapter@_W@__crt_stdio_output@@V?$positional_parameter_base@_WV?$stream_output_adapter@_W@__crt_stdio_output@@@2@@__crt_stdio_output@@AEAAXI_N@Z 000000018003f8a4 f i libucrt:output.obj
 0001:0003e944       ??$type_case_integer_parse_into_buffer@I$0BA@@?$output_processor@_WV?$stream_output_adapter@_W@__crt_stdio_output@@V?$standard_base@_WV?$stream_output_adapter@_W@__crt_stdio_output@@@2@@__crt_stdio_output@@AEAAXI_N@Z 000000018003f944 f i libucrt:output.obj
 0001:0003e9e4       ??$type_case_integer_parse_into_buffer@I$0BA@@?$output_processor@_WV?$string_output_adapter@_W@__crt_stdio_output@@V?$format_validation_base@_WV?$string_output_adapter@_W@__crt_stdio_output@@@2@@__crt_stdio_output@@AEAAXI_N@Z 000000018003f9e4 f i libucrt:output.obj
 0001:0003ea84       ??$type_case_integer_parse_into_buffer@I$0BA@@?$output_processor@_WV?$string_output_adapter@_W@__crt_stdio_output@@V?$positional_parameter_base@_WV?$string_output_adapter@_W@__crt_stdio_output@@@2@@__crt_stdio_output@@AEAAXI_N@Z 000000018003fa84 f i libucrt:output.obj
 0001:0003eb24       ??$type_case_integer_parse_into_buffer@I$0BA@@?$output_processor@_WV?$string_output_adapter@_W@__crt_stdio_output@@V?$standard_base@_WV?$string_output_adapter@_W@__crt_stdio_output@@@2@@__crt_stdio_output@@AEAAXI_N@Z 000000018003fb24 f i libucrt:output.obj
 0001:0003ebc4       ??$type_case_integer_parse_into_buffer@_K$07@?$output_processor@DV?$stream_output_adapter@D@__crt_stdio_output@@V?$format_validation_base@DV?$stream_output_adapter@D@__crt_stdio_output@@@2@@__crt_stdio_output@@AEAAX_K_N@Z 000000018003fbc4 f i libucrt:output.obj
 0001:0003ec34       ??$type_case_integer_parse_into_buffer@_K$07@?$output_processor@DV?$stream_output_adapter@D@__crt_stdio_output@@V?$positional_parameter_base@DV?$stream_output_adapter@D@__crt_stdio_output@@@2@@__crt_stdio_output@@AEAAX_K_N@Z 000000018003fc34 f i libucrt:output.obj
 0001:0003eca4       ??$type_case_integer_parse_into_buffer@_K$07@?$output_processor@DV?$stream_output_adapter@D@__crt_stdio_output@@V?$standard_base@DV?$stream_output_adapter@D@__crt_stdio_output@@@2@@__crt_stdio_output@@AEAAX_K_N@Z 000000018003fca4 f i libucrt:output.obj
 0001:0003ed14       ??$type_case_integer_parse_into_buffer@_K$07@?$output_processor@DV?$string_output_adapter@D@__crt_stdio_output@@V?$format_validation_base@DV?$string_output_adapter@D@__crt_stdio_output@@@2@@__crt_stdio_output@@AEAAX_K_N@Z 000000018003fd14 f i libucrt:output.obj
 0001:0003ed84       ??$type_case_integer_parse_into_buffer@_K$07@?$output_processor@DV?$string_output_adapter@D@__crt_stdio_output@@V?$positional_parameter_base@DV?$string_output_adapter@D@__crt_stdio_output@@@2@@__crt_stdio_output@@AEAAX_K_N@Z 000000018003fd84 f i libucrt:output.obj
 0001:0003edf4       ??$type_case_integer_parse_into_buffer@_K$07@?$output_processor@DV?$string_output_adapter@D@__crt_stdio_output@@V?$standard_base@DV?$string_output_adapter@D@__crt_stdio_output@@@2@@__crt_stdio_output@@AEAAX_K_N@Z 000000018003fdf4 f i libucrt:output.obj
 0001:0003ee64       ??$type_case_integer_parse_into_buffer@_K$07@?$output_processor@_WV?$stream_output_adapter@_W@__crt_stdio_output@@V?$format_validation_base@_WV?$stream_output_adapter@_W@__crt_stdio_output@@@2@@__crt_stdio_output@@AEAAX_K_N@Z 000000018003fe64 f i libucrt:output.obj
 0001:0003eeec       ??$type_case_integer_parse_into_buffer@_K$07@?$output_processor@_WV?$stream_output_adapter@_W@__crt_stdio_output@@V?$positional_parameter_base@_WV?$stream_output_adapter@_W@__crt_stdio_output@@@2@@__crt_stdio_output@@AEAAX_K_N@Z 000000018003feec f i libucrt:output.obj
 0001:0003ef74       ??$type_case_integer_parse_into_buffer@_K$07@?$output_processor@_WV?$stream_output_adapter@_W@__crt_stdio_output@@V?$standard_base@_WV?$stream_output_adapter@_W@__crt_stdio_output@@@2@@__crt_stdio_output@@AEAAX_K_N@Z 000000018003ff74 f i libucrt:output.obj
 0001:0003effc       ??$type_case_integer_parse_into_buffer@_K$07@?$output_processor@_WV?$string_output_adapter@_W@__crt_stdio_output@@V?$format_validation_base@_WV?$string_output_adapter@_W@__crt_stdio_output@@@2@@__crt_stdio_output@@AEAAX_K_N@Z 000000018003fffc f i libucrt:output.obj
 0001:0003f084       ??$type_case_integer_parse_into_buffer@_K$07@?$output_processor@_WV?$string_output_adapter@_W@__crt_stdio_output@@V?$positional_parameter_base@_WV?$string_output_adapter@_W@__crt_stdio_output@@@2@@__crt_stdio_output@@AEAAX_K_N@Z 0000000180040084 f i libucrt:output.obj
 0001:0003f10c       ??$type_case_integer_parse_into_buffer@_K$07@?$output_processor@_WV?$string_output_adapter@_W@__crt_stdio_output@@V?$standard_base@_WV?$string_output_adapter@_W@__crt_stdio_output@@@2@@__crt_stdio_output@@AEAAX_K_N@Z 000000018004010c f i libucrt:output.obj
 0001:0003f194       ??$type_case_integer_parse_into_buffer@_K$09@?$output_processor@DV?$stream_output_adapter@D@__crt_stdio_output@@V?$format_validation_base@DV?$stream_output_adapter@D@__crt_stdio_output@@@2@@__crt_stdio_output@@AEAAX_K_N@Z 0000000180040194 f i libucrt:output.obj
 0001:0003f244       ??$type_case_integer_parse_into_buffer@_K$09@?$output_processor@DV?$stream_output_adapter@D@__crt_stdio_output@@V?$positional_parameter_base@DV?$stream_output_adapter@D@__crt_stdio_output@@@2@@__crt_stdio_output@@AEAAX_K_N@Z 0000000180040244 f i libucrt:output.obj
 0001:0003f2f4       ??$type_case_integer_parse_into_buffer@_K$09@?$output_processor@DV?$stream_output_adapter@D@__crt_stdio_output@@V?$standard_base@DV?$stream_output_adapter@D@__crt_stdio_output@@@2@@__crt_stdio_output@@AEAAX_K_N@Z 00000001800402f4 f i libucrt:output.obj
 0001:0003f3a4       ??$type_case_integer_parse_into_buffer@_K$09@?$output_processor@DV?$string_output_adapter@D@__crt_stdio_output@@V?$format_validation_base@DV?$string_output_adapter@D@__crt_stdio_output@@@2@@__crt_stdio_output@@AEAAX_K_N@Z 00000001800403a4 f i libucrt:output.obj
 0001:0003f454       ??$type_case_integer_parse_into_buffer@_K$09@?$output_processor@DV?$string_output_adapter@D@__crt_stdio_output@@V?$positional_parameter_base@DV?$string_output_adapter@D@__crt_stdio_output@@@2@@__crt_stdio_output@@AEAAX_K_N@Z 0000000180040454 f i libucrt:output.obj
 0001:0003f504       ??$type_case_integer_parse_into_buffer@_K$09@?$output_processor@DV?$string_output_adapter@D@__crt_stdio_output@@V?$standard_base@DV?$string_output_adapter@D@__crt_stdio_output@@@2@@__crt_stdio_output@@AEAAX_K_N@Z 0000000180040504 f i libucrt:output.obj
 0001:0003f5b4       ??$type_case_integer_parse_into_buffer@_K$09@?$output_processor@_WV?$stream_output_adapter@_W@__crt_stdio_output@@V?$format_validation_base@_WV?$stream_output_adapter@_W@__crt_stdio_output@@@2@@__crt_stdio_output@@AEAAX_K_N@Z 00000001800405b4 f i libucrt:output.obj
 0001:0003f678       ??$type_case_integer_parse_into_buffer@_K$09@?$output_processor@_WV?$stream_output_adapter@_W@__crt_stdio_output@@V?$positional_parameter_base@_WV?$stream_output_adapter@_W@__crt_stdio_output@@@2@@__crt_stdio_output@@AEAAX_K_N@Z 0000000180040678 f i libucrt:output.obj
 0001:0003f73c       ??$type_case_integer_parse_into_buffer@_K$09@?$output_processor@_WV?$stream_output_adapter@_W@__crt_stdio_output@@V?$standard_base@_WV?$stream_output_adapter@_W@__crt_stdio_output@@@2@@__crt_stdio_output@@AEAAX_K_N@Z 000000018004073c f i libucrt:output.obj
 0001:0003f800       ??$type_case_integer_parse_into_buffer@_K$09@?$output_processor@_WV?$string_output_adapter@_W@__crt_stdio_output@@V?$format_validation_base@_WV?$string_output_adapter@_W@__crt_stdio_output@@@2@@__crt_stdio_output@@AEAAX_K_N@Z 0000000180040800 f i libucrt:output.obj
 0001:0003f8c4       ??$type_case_integer_parse_into_buffer@_K$09@?$output_processor@_WV?$string_output_adapter@_W@__crt_stdio_output@@V?$positional_parameter_base@_WV?$string_output_adapter@_W@__crt_stdio_output@@@2@@__crt_stdio_output@@AEAAX_K_N@Z 00000001800408c4 f i libucrt:output.obj
 0001:0003f988       ??$type_case_integer_parse_into_buffer@_K$09@?$output_processor@_WV?$string_output_adapter@_W@__crt_stdio_output@@V?$standard_base@_WV?$string_output_adapter@_W@__crt_stdio_output@@@2@@__crt_stdio_output@@AEAAX_K_N@Z 0000000180040988 f i libucrt:output.obj
 0001:0003fa4c       ??$type_case_integer_parse_into_buffer@_K$0BA@@?$output_processor@DV?$stream_output_adapter@D@__crt_stdio_output@@V?$format_validation_base@DV?$stream_output_adapter@D@__crt_stdio_output@@@2@@__crt_stdio_output@@AEAAX_K_N@Z 0000000180040a4c f i libucrt:output.obj
 0001:0003fad0       ??$type_case_integer_parse_into_buffer@_K$0BA@@?$output_processor@DV?$stream_output_adapter@D@__crt_stdio_output@@V?$positional_parameter_base@DV?$stream_output_adapter@D@__crt_stdio_output@@@2@@__crt_stdio_output@@AEAAX_K_N@Z 0000000180040ad0 f i libucrt:output.obj
 0001:0003fb54       ??$type_case_integer_parse_into_buffer@_K$0BA@@?$output_processor@DV?$stream_output_adapter@D@__crt_stdio_output@@V?$standard_base@DV?$stream_output_adapter@D@__crt_stdio_output@@@2@@__crt_stdio_output@@AEAAX_K_N@Z 0000000180040b54 f i libucrt:output.obj
 0001:0003fbd8       ??$type_case_integer_parse_into_buffer@_K$0BA@@?$output_processor@DV?$string_output_adapter@D@__crt_stdio_output@@V?$format_validation_base@DV?$string_output_adapter@D@__crt_stdio_output@@@2@@__crt_stdio_output@@AEAAX_K_N@Z 0000000180040bd8 f i libucrt:output.obj
 0001:0003fc5c       ??$type_case_integer_parse_into_buffer@_K$0BA@@?$output_processor@DV?$string_output_adapter@D@__crt_stdio_output@@V?$positional_parameter_base@DV?$string_output_adapter@D@__crt_stdio_output@@@2@@__crt_stdio_output@@AEAAX_K_N@Z 0000000180040c5c f i libucrt:output.obj
 0001:0003fce0       ??$type_case_integer_parse_into_buffer@_K$0BA@@?$output_processor@DV?$string_output_adapter@D@__crt_stdio_output@@V?$standard_base@DV?$string_output_adapter@D@__crt_stdio_output@@@2@@__crt_stdio_output@@AEAAX_K_N@Z 0000000180040ce0 f i libucrt:output.obj
 0001:0003fd64       ??$type_case_integer_parse_into_buffer@_K$0BA@@?$output_processor@_WV?$stream_output_adapter@_W@__crt_stdio_output@@V?$format_validation_base@_WV?$stream_output_adapter@_W@__crt_stdio_output@@@2@@__crt_stdio_output@@AEAAX_K_N@Z 0000000180040d64 f i libucrt:output.obj
 0001:0003fe04       ??$type_case_integer_parse_into_buffer@_K$0BA@@?$output_processor@_WV?$stream_output_adapter@_W@__crt_stdio_output@@V?$positional_parameter_base@_WV?$stream_output_adapter@_W@__crt_stdio_output@@@2@@__crt_stdio_output@@AEAAX_K_N@Z 0000000180040e04 f i libucrt:output.obj
 0001:0003fea4       ??$type_case_integer_parse_into_buffer@_K$0BA@@?$output_processor@_WV?$stream_output_adapter@_W@__crt_stdio_output@@V?$standard_base@_WV?$stream_output_adapter@_W@__crt_stdio_output@@@2@@__crt_stdio_output@@AEAAX_K_N@Z 0000000180040ea4 f i libucrt:output.obj
 0001:0003ff44       ??$type_case_integer_parse_into_buffer@_K$0BA@@?$output_processor@_WV?$string_output_adapter@_W@__crt_stdio_output@@V?$format_validation_base@_WV?$string_output_adapter@_W@__crt_stdio_output@@@2@@__crt_stdio_output@@AEAAX_K_N@Z 0000000180040f44 f i libucrt:output.obj
 0001:0003ffe4       ??$type_case_integer_parse_into_buffer@_K$0BA@@?$output_processor@_WV?$string_output_adapter@_W@__crt_stdio_output@@V?$positional_parameter_base@_WV?$string_output_adapter@_W@__crt_stdio_output@@@2@@__crt_stdio_output@@AEAAX_K_N@Z 0000000180040fe4 f i libucrt:output.obj
 0001:00040084       ??$type_case_integer_parse_into_buffer@_K$0BA@@?$output_processor@_WV?$string_output_adapter@_W@__crt_stdio_output@@V?$standard_base@_WV?$string_output_adapter@_W@__crt_stdio_output@@@2@@__crt_stdio_output@@AEAAX_K_N@Z 0000000180041084 f i libucrt:output.obj
 0001:00040124       ??$write_multiple_characters@V?$stream_output_adapter@D@__crt_stdio_output@@D@__crt_stdio_output@@YAXAEBV?$stream_output_adapter@D@0@DHQEAHAEAV__crt_cached_ptd_host@@@Z 0000000180041124 f i libucrt:output.obj
 0001:000401b8       ??$write_multiple_characters@V?$stream_output_adapter@_W@__crt_stdio_output@@D@__crt_stdio_output@@YAXAEBV?$stream_output_adapter@_W@0@DHQEAHAEAV__crt_cached_ptd_host@@@Z 00000001800411b8 f i libucrt:output.obj
 0001:00040250       ??$write_multiple_characters@V?$string_output_adapter@D@__crt_stdio_output@@D@__crt_stdio_output@@YAXAEBV?$string_output_adapter@D@0@DHQEAHAEAV__crt_cached_ptd_host@@@Z 0000000180041250 f i libucrt:output.obj
 0001:000402c8       ??$write_multiple_characters@V?$string_output_adapter@_W@__crt_stdio_output@@D@__crt_stdio_output@@YAXAEBV?$string_output_adapter@_W@0@DHQEAHAEAV__crt_cached_ptd_host@@@Z 00000001800412c8 f i libucrt:output.obj
 0001:000404a8       ??0?$c_string_character_source@D@__crt_strtox@@QEAA@QEBDQEAPEBD@Z 00000001800414a8 f i libucrt:output.obj
 0001:000404bc       ??0?$c_string_character_source@_W@__crt_strtox@@QEAA@QEB_WQEAPEB_W@Z 00000001800414bc f i libucrt:output.obj
 0001:000404d0       ??0?$common_data@D@__crt_stdio_output@@IEAA@AEAV__crt_cached_ptd_host@@@Z 00000001800414d0 f i libucrt:output.obj
 0001:0004050c       ??0?$common_data@_W@__crt_stdio_output@@IEAA@AEAV__crt_cached_ptd_host@@@Z 000000018004150c f i libucrt:output.obj
 0001:0004054c       ??0?$output_adapter_data@DV?$stream_output_adapter@D@__crt_stdio_output@@@__crt_stdio_output@@IEAA@AEBV?$stream_output_adapter@D@1@_KQEBDAEAV__crt_cached_ptd_host@@QEAD@Z 000000018004154c f i libucrt:output.obj
 0001:000405ac       ??0?$output_adapter_data@DV?$string_output_adapter@D@__crt_stdio_output@@@__crt_stdio_output@@IEAA@AEBV?$string_output_adapter@D@1@_KQEBDAEAV__crt_cached_ptd_host@@QEAD@Z 00000001800415ac f i libucrt:output.obj
 0001:0004060c       ??0?$output_adapter_data@_WV?$stream_output_adapter@_W@__crt_stdio_output@@@__crt_stdio_output@@IEAA@AEBV?$stream_output_adapter@_W@1@_KQEB_WAEAV__crt_cached_ptd_host@@QEAD@Z 000000018004160c f i libucrt:output.obj
 0001:00040670       ??0?$output_adapter_data@_WV?$string_output_adapter@_W@__crt_stdio_output@@@__crt_stdio_output@@IEAA@AEBV?$string_output_adapter@_W@1@_KQEB_WAEAV__crt_cached_ptd_host@@QEAD@Z 0000000180041670 f i libucrt:output.obj
 0001:000406d4       ??0?$output_processor@DV?$stream_output_adapter@D@__crt_stdio_output@@V?$format_validation_base@DV?$stream_output_adapter@D@__crt_stdio_output@@@2@@__crt_stdio_output@@QEAA@AEBV?$stream_output_adapter@D@1@_KQEBDAEAV__crt_cached_ptd_host@@QEAD@Z 00000001800416d4 f i libucrt:output.obj
 0001:0004073c       ??0?$output_processor@DV?$stream_output_adapter@D@__crt_stdio_output@@V?$positional_parameter_base@DV?$stream_output_adapter@D@__crt_stdio_output@@@2@@__crt_stdio_output@@QEAA@AEBV?$stream_output_adapter@D@1@_KQEBDAEAV__crt_cached_ptd_host@@QEAD@Z 000000018004173c f i libucrt:output.obj
 0001:000407c0       ??0?$output_processor@DV?$stream_output_adapter@D@__crt_stdio_output@@V?$standard_base@DV?$stream_output_adapter@D@__crt_stdio_output@@@2@@__crt_stdio_output@@QEAA@AEBV?$stream_output_adapter@D@1@_KQEBDAEAV__crt_cached_ptd_host@@QEAD@Z 00000001800417c0 f i libucrt:output.obj
 0001:00040828       ??0?$output_processor@DV?$string_output_adapter@D@__crt_stdio_output@@V?$format_validation_base@DV?$string_output_adapter@D@__crt_stdio_output@@@2@@__crt_stdio_output@@QEAA@AEBV?$string_output_adapter@D@1@_KQEBDAEAV__crt_cached_ptd_host@@QEAD@Z 0000000180041828 f i libucrt:output.obj
 0001:00040890       ??0?$output_processor@DV?$string_output_adapter@D@__crt_stdio_output@@V?$positional_parameter_base@DV?$string_output_adapter@D@__crt_stdio_output@@@2@@__crt_stdio_output@@QEAA@AEBV?$string_output_adapter@D@1@_KQEBDAEAV__crt_cached_ptd_host@@QEAD@Z 0000000180041890 f i libucrt:output.obj
 0001:00040914       ??0?$output_processor@DV?$string_output_adapter@D@__crt_stdio_output@@V?$standard_base@DV?$string_output_adapter@D@__crt_stdio_output@@@2@@__crt_stdio_output@@QEAA@AEBV?$string_output_adapter@D@1@_KQEBDAEAV__crt_cached_ptd_host@@QEAD@Z 0000000180041914 f i libucrt:output.obj
 0001:0004097c       ??0?$output_processor@_WV?$stream_output_adapter@_W@__crt_stdio_output@@V?$format_validation_base@_WV?$stream_output_adapter@_W@__crt_stdio_output@@@2@@__crt_stdio_output@@QEAA@AEBV?$stream_output_adapter@_W@1@_KQEB_WAEAV__crt_cached_ptd_host@@QEAD@Z 000000018004197c f i libucrt:output.obj
 0001:000409e8       ??0?$output_processor@_WV?$stream_output_adapter@_W@__crt_stdio_output@@V?$positional_parameter_base@_WV?$stream_output_adapter@_W@__crt_stdio_output@@@2@@__crt_stdio_output@@QEAA@AEBV?$stream_output_adapter@_W@1@_KQEB_WAEAV__crt_cached_ptd_host@@QEAD@Z 00000001800419e8 f i libucrt:output.obj
 0001:00040a70       ??0?$output_processor@_WV?$stream_output_adapter@_W@__crt_stdio_output@@V?$standard_base@_WV?$stream_output_adapter@_W@__crt_stdio_output@@@2@@__crt_stdio_output@@QEAA@AEBV?$stream_output_adapter@_W@1@_KQEB_WAEAV__crt_cached_ptd_host@@QEAD@Z 0000000180041a70 f i libucrt:output.obj
 0001:00040adc       ??0?$output_processor@_WV?$string_output_adapter@_W@__crt_stdio_output@@V?$format_validation_base@_WV?$string_output_adapter@_W@__crt_stdio_output@@@2@@__crt_stdio_output@@QEAA@AEBV?$string_output_adapter@_W@1@_KQEB_WAEAV__crt_cached_ptd_host@@QEAD@Z 0000000180041adc f i libucrt:output.obj
 0001:00040b48       ??0?$output_processor@_WV?$string_output_adapter@_W@__crt_stdio_output@@V?$positional_parameter_base@_WV?$string_output_adapter@_W@__crt_stdio_output@@@2@@__crt_stdio_output@@QEAA@AEBV?$string_output_adapter@_W@1@_KQEB_WAEAV__crt_cached_ptd_host@@QEAD@Z 0000000180041b48 f i libucrt:output.obj
 0001:00040bd0       ??0?$output_processor@_WV?$string_output_adapter@_W@__crt_stdio_output@@V?$standard_base@_WV?$string_output_adapter@_W@__crt_stdio_output@@@2@@__crt_stdio_output@@QEAA@AEBV?$string_output_adapter@_W@1@_KQEB_WAEAV__crt_cached_ptd_host@@QEAD@Z 0000000180041bd0 f i libucrt:output.obj
 0001:00040c3c       ??0?$stream_output_adapter@D@__crt_stdio_output@@QEAA@QEAU_iobuf@@@Z 0000000180041c3c f i libucrt:output.obj
 0001:00040c44       ??0?$stream_output_adapter@_W@__crt_stdio_output@@QEAA@QEAU_iobuf@@@Z 0000000180041c44 f i libucrt:output.obj
 0001:00040c4c       ??0?$string_output_adapter@D@__crt_stdio_output@@QEAA@QEAU?$string_output_adapter_context@D@1@@Z 0000000180041c4c f i libucrt:output.obj
 0001:00040c54       ??0?$string_output_adapter@_W@__crt_stdio_output@@QEAA@QEAU?$string_output_adapter_context@_W@1@@Z 0000000180041c54 f i libucrt:output.obj
 0001:00040c5c       ??0__acrt_stdio_temporary_buffering_guard@@QEAA@QEAU_iobuf@@AEAV__crt_cached_ptd_host@@@Z 0000000180041c5c f i libucrt:output.obj
 0001:00040c80       ??0__crt_stdio_stream@@QEAA@QEAU_iobuf@@@Z 0000000180041c80 f i libucrt:output.obj
 0001:00040c88       ??0formatting_buffer@__crt_stdio_output@@QEAA@XZ 0000000180041c88 f i libucrt:output.obj
 0001:00040c9c       ??0guard@?$cached@H@__crt_cached_ptd_host@@QEAA@AEAU12@@Z 0000000180041c9c f i libucrt:output.obj
 0001:00040cb0       ??1?$c_string_character_source@D@__crt_strtox@@QEAA@XZ 0000000180041cb0 f i libucrt:output.obj
 0001:00040cc0       ??1?$c_string_character_source@_W@__crt_strtox@@QEAA@XZ 0000000180041cc0 f i libucrt:output.obj
 0001:00040cd0       ??1?$common_data@D@__crt_stdio_output@@QEAA@XZ 0000000180041cd0 f i libucrt:output.obj
 0001:00040cf4       ??1?$common_data@_W@__crt_stdio_output@@QEAA@XZ 0000000180041cf4 f i libucrt:output.obj
 0001:00040d18       ??1?$format_validation_base@DV?$stream_output_adapter@D@__crt_stdio_output@@@__crt_stdio_output@@QEAA@XZ 0000000180041d18 f i libucrt:output.obj
 0001:00040d3c       ??1?$format_validation_base@DV?$string_output_adapter@D@__crt_stdio_output@@@__crt_stdio_output@@QEAA@XZ 0000000180041d3c f i libucrt:output.obj
 0001:00040d60       ??1?$format_validation_base@_WV?$stream_output_adapter@_W@__crt_stdio_output@@@__crt_stdio_output@@QEAA@XZ 0000000180041d60 f i libucrt:output.obj
 0001:00040d84       ??1?$format_validation_base@_WV?$string_output_adapter@_W@__crt_stdio_output@@@__crt_stdio_output@@QEAA@XZ 0000000180041d84 f i libucrt:output.obj
 0001:00040da8       ??1?$output_adapter_data@DV?$stream_output_adapter@D@__crt_stdio_output@@@__crt_stdio_output@@QEAA@XZ 0000000180041da8 f i libucrt:output.obj
 0001:00040dcc       ??1?$output_adapter_data@DV?$string_output_adapter@D@__crt_stdio_output@@@__crt_stdio_output@@QEAA@XZ 0000000180041dcc f i libucrt:output.obj
 0001:00040df0       ??1?$output_adapter_data@_WV?$stream_output_adapter@_W@__crt_stdio_output@@@__crt_stdio_output@@QEAA@XZ 0000000180041df0 f i libucrt:output.obj
 0001:00040e14       ??1?$output_adapter_data@_WV?$string_output_adapter@_W@__crt_stdio_output@@@__crt_stdio_output@@QEAA@XZ 0000000180041e14 f i libucrt:output.obj
 0001:00040e38       ??1?$output_processor@DV?$stream_output_adapter@D@__crt_stdio_output@@V?$format_validation_base@DV?$stream_output_adapter@D@__crt_stdio_output@@@2@@__crt_stdio_output@@QEAA@XZ 0000000180041e38 f i libucrt:output.obj
 0001:00040e5c       ??1?$output_processor@DV?$stream_output_adapter@D@__crt_stdio_output@@V?$positional_parameter_base@DV?$stream_output_adapter@D@__crt_stdio_output@@@2@@__crt_stdio_output@@QEAA@XZ 0000000180041e5c f i libucrt:output.obj
 0001:00040e80       ??1?$output_processor@DV?$stream_output_adapter@D@__crt_stdio_output@@V?$standard_base@DV?$stream_output_adapter@D@__crt_stdio_output@@@2@@__crt_stdio_output@@QEAA@XZ 0000000180041e80 f i libucrt:output.obj
 0001:00040ea4       ??1?$output_processor@DV?$string_output_adapter@D@__crt_stdio_output@@V?$format_validation_base@DV?$string_output_adapter@D@__crt_stdio_output@@@2@@__crt_stdio_output@@QEAA@XZ 0000000180041ea4 f i libucrt:output.obj
 0001:00040ec8       ??1?$output_processor@DV?$string_output_adapter@D@__crt_stdio_output@@V?$positional_parameter_base@DV?$string_output_adapter@D@__crt_stdio_output@@@2@@__crt_stdio_output@@QEAA@XZ 0000000180041ec8 f i libucrt:output.obj
 0001:00040eec       ??1?$output_processor@DV?$string_output_adapter@D@__crt_stdio_output@@V?$standard_base@DV?$string_output_adapter@D@__crt_stdio_output@@@2@@__crt_stdio_output@@QEAA@XZ 0000000180041eec f i libucrt:output.obj
 0001:00040f10       ??1?$output_processor@_WV?$stream_output_adapter@_W@__crt_stdio_output@@V?$format_validation_base@_WV?$stream_output_adapter@_W@__crt_stdio_output@@@2@@__crt_stdio_output@@QEAA@XZ 0000000180041f10 f i libucrt:output.obj
 0001:00040f34       ??1?$output_processor@_WV?$stream_output_adapter@_W@__crt_stdio_output@@V?$positional_parameter_base@_WV?$stream_output_adapter@_W@__crt_stdio_output@@@2@@__crt_stdio_output@@QEAA@XZ 0000000180041f34 f i libucrt:output.obj
 0001:00040f58       ??1?$output_processor@_WV?$stream_output_adapter@_W@__crt_stdio_output@@V?$standard_base@_WV?$stream_output_adapter@_W@__crt_stdio_output@@@2@@__crt_stdio_output@@QEAA@XZ 0000000180041f58 f i libucrt:output.obj
 0001:00040f7c       ??1?$output_processor@_WV?$string_output_adapter@_W@__crt_stdio_output@@V?$format_validation_base@_WV?$string_output_adapter@_W@__crt_stdio_output@@@2@@__crt_stdio_output@@QEAA@XZ 0000000180041f7c f i libucrt:output.obj
 0001:00040fa0       ??1?$output_processor@_WV?$string_output_adapter@_W@__crt_stdio_output@@V?$positional_parameter_base@_WV?$string_output_adapter@_W@__crt_stdio_output@@@2@@__crt_stdio_output@@QEAA@XZ 0000000180041fa0 f i libucrt:output.obj
 0001:00040fc4       ??1?$output_processor@_WV?$string_output_adapter@_W@__crt_stdio_output@@V?$standard_base@_WV?$string_output_adapter@_W@__crt_stdio_output@@@2@@__crt_stdio_output@@QEAA@XZ 0000000180041fc4 f i libucrt:output.obj
 0001:00040fe8       ??1?$positional_parameter_base@DV?$stream_output_adapter@D@__crt_stdio_output@@@__crt_stdio_output@@QEAA@XZ 0000000180041fe8 f i libucrt:output.obj
 0001:0004100c       ??1?$positional_parameter_base@DV?$string_output_adapter@D@__crt_stdio_output@@@__crt_stdio_output@@QEAA@XZ 000000018004200c f i libucrt:output.obj
 0001:00041030       ??1?$positional_parameter_base@_WV?$stream_output_adapter@_W@__crt_stdio_output@@@__crt_stdio_output@@QEAA@XZ 0000000180042030 f i libucrt:output.obj
 0001:00041054       ??1?$positional_parameter_base@_WV?$string_output_adapter@_W@__crt_stdio_output@@@__crt_stdio_output@@QEAA@XZ 0000000180042054 f i libucrt:output.obj
 0001:00041078       ??1?$standard_base@DV?$stream_output_adapter@D@__crt_stdio_output@@@__crt_stdio_output@@QEAA@XZ 0000000180042078 f i libucrt:output.obj
 0001:0004109c       ??1?$standard_base@DV?$string_output_adapter@D@__crt_stdio_output@@@__crt_stdio_output@@QEAA@XZ 000000018004209c f i libucrt:output.obj
 0001:000410c0       ??1?$standard_base@_WV?$stream_output_adapter@_W@__crt_stdio_output@@@__crt_stdio_output@@QEAA@XZ 00000001800420c0 f i libucrt:output.obj
 0001:000410e4       ??1?$standard_base@_WV?$string_output_adapter@_W@__crt_stdio_output@@@__crt_stdio_output@@QEAA@XZ 00000001800420e4 f i libucrt:output.obj
 0001:00041108       ??1__acrt_stdio_temporary_buffering_guard@@QEAA@XZ 0000000180042108 f i libucrt:output.obj
 0001:00041118       ??1formatting_buffer@__crt_stdio_output@@QEAA@XZ 0000000180042118 f i libucrt:output.obj
 0001:0004113c       ??1guard@?$cached@H@__crt_cached_ptd_host@@QEAA@XZ 000000018004213c f i libucrt:output.obj
 0001:00041150       ??4?$__crt_unique_heap_ptr@DU__crt_internal_free_policy@@@@QEAAAEAV0@$$QEAV0@@Z 0000000180042150 f i libucrt:output.obj
 0001:00041184       ??A?$spectre_mitigated_lookup_table@Ustate_transition_pair@__crt_stdio_output@@$0IA@@__crt_stdio_output@@QEBAAEBUstate_transition_pair@1@_K@Z 0000000180042184 f i libucrt:output.obj
 0001:0004118c       ??C__crt_stdio_stream@@QEBAPEAU__crt_stdio_stream_data@@XZ 000000018004218c f i libucrt:output.obj
 0001:000418d4       ?adjust_hexit@?$output_processor@DV?$stream_output_adapter@D@__crt_stdio_output@@V?$format_validation_base@DV?$stream_output_adapter@D@__crt_stdio_output@@@2@@__crt_stdio_output@@CADH_N@Z 00000001800428d4 f i libucrt:output.obj
 0001:000418e0       ?adjust_hexit@?$output_processor@DV?$stream_output_adapter@D@__crt_stdio_output@@V?$positional_parameter_base@DV?$stream_output_adapter@D@__crt_stdio_output@@@2@@__crt_stdio_output@@CADH_N@Z 00000001800428e0 f i libucrt:output.obj
 0001:000418ec       ?adjust_hexit@?$output_processor@DV?$stream_output_adapter@D@__crt_stdio_output@@V?$standard_base@DV?$stream_output_adapter@D@__crt_stdio_output@@@2@@__crt_stdio_output@@CADH_N@Z 00000001800428ec f i libucrt:output.obj
 0001:000418f8       ?adjust_hexit@?$output_processor@DV?$string_output_adapter@D@__crt_stdio_output@@V?$format_validation_base@DV?$string_output_adapter@D@__crt_stdio_output@@@2@@__crt_stdio_output@@CADH_N@Z 00000001800428f8 f i libucrt:output.obj
 0001:00041904       ?adjust_hexit@?$output_processor@DV?$string_output_adapter@D@__crt_stdio_output@@V?$positional_parameter_base@DV?$string_output_adapter@D@__crt_stdio_output@@@2@@__crt_stdio_output@@CADH_N@Z 0000000180042904 f i libucrt:output.obj
 0001:00041910       ?adjust_hexit@?$output_processor@DV?$string_output_adapter@D@__crt_stdio_output@@V?$standard_base@DV?$string_output_adapter@D@__crt_stdio_output@@@2@@__crt_stdio_output@@CADH_N@Z 0000000180042910 f i libucrt:output.obj
 0001:0004191c       ?adjust_hexit@?$output_processor@_WV?$stream_output_adapter@_W@__crt_stdio_output@@V?$format_validation_base@_WV?$stream_output_adapter@_W@__crt_stdio_output@@@2@@__crt_stdio_output@@CADH_N@Z 000000018004291c f i libucrt:output.obj
 0001:00041928       ?adjust_hexit@?$output_processor@_WV?$stream_output_adapter@_W@__crt_stdio_output@@V?$positional_parameter_base@_WV?$stream_output_adapter@_W@__crt_stdio_output@@@2@@__crt_stdio_output@@CADH_N@Z 0000000180042928 f i libucrt:output.obj
 0001:00041934       ?adjust_hexit@?$output_processor@_WV?$stream_output_adapter@_W@__crt_stdio_output@@V?$standard_base@_WV?$stream_output_adapter@_W@__crt_stdio_output@@@2@@__crt_stdio_output@@CADH_N@Z 0000000180042934 f i libucrt:output.obj
 0001:00041940       ?adjust_hexit@?$output_processor@_WV?$string_output_adapter@_W@__crt_stdio_output@@V?$format_validation_base@_WV?$string_output_adapter@_W@__crt_stdio_output@@@2@@__crt_stdio_output@@CADH_N@Z 0000000180042940 f i libucrt:output.obj
 0001:0004194c       ?adjust_hexit@?$output_processor@_WV?$string_output_adapter@_W@__crt_stdio_output@@V?$positional_parameter_base@_WV?$string_output_adapter@_W@__crt_stdio_output@@@2@@__crt_stdio_output@@CADH_N@Z 000000018004294c f i libucrt:output.obj
 0001:00041958       ?adjust_hexit@?$output_processor@_WV?$string_output_adapter@_W@__crt_stdio_output@@V?$standard_base@_WV?$string_output_adapter@_W@__crt_stdio_output@@@2@@__crt_stdio_output@@CADH_N@Z 0000000180042958 f i libucrt:output.obj
 0001:00041964       ?advance_to_next_pass@?$positional_parameter_base@DV?$stream_output_adapter@D@__crt_stdio_output@@@__crt_stdio_output@@IEAA_NXZ 0000000180042964 f i libucrt:output.obj
 0001:000419b8       ?advance_to_next_pass@?$positional_parameter_base@DV?$string_output_adapter@D@__crt_stdio_output@@@__crt_stdio_output@@IEAA_NXZ 00000001800429b8 f i libucrt:output.obj
 0001:00041a0c       ?advance_to_next_pass@?$positional_parameter_base@_WV?$stream_output_adapter@_W@__crt_stdio_output@@@__crt_stdio_output@@IEAA_NXZ 0000000180042a0c f i libucrt:output.obj
 0001:00041a60       ?advance_to_next_pass@?$positional_parameter_base@_WV?$string_output_adapter@_W@__crt_stdio_output@@@__crt_stdio_output@@IEAA_NXZ 0000000180042a60 f i libucrt:output.obj
 0001:00041ab4       ?advance_to_next_pass@?$standard_base@DV?$stream_output_adapter@D@__crt_stdio_output@@@__crt_stdio_output@@IEAA_NXZ 0000000180042ab4 f i libucrt:output.obj
 0001:00041ac8       ?advance_to_next_pass@?$standard_base@DV?$string_output_adapter@D@__crt_stdio_output@@@__crt_stdio_output@@IEAA_NXZ 0000000180042ac8 f i libucrt:output.obj
 0001:00041adc       ?advance_to_next_pass@?$standard_base@_WV?$stream_output_adapter@_W@__crt_stdio_output@@@__crt_stdio_output@@IEAA_NXZ 0000000180042adc f i libucrt:output.obj
 0001:00041af0       ?advance_to_next_pass@?$standard_base@_WV?$string_output_adapter@_W@__crt_stdio_output@@@__crt_stdio_output@@IEAA_NXZ 0000000180042af0 f i libucrt:output.obj
 0001:00041b04       ?check@?$cached@H@__crt_cached_ptd_host@@QEBA_NH@Z 0000000180042b04 f i libucrt:output.obj
 0001:00041b14       ?create_guard@?$cached@H@__crt_cached_ptd_host@@QEAA?AVguard@12@XZ 0000000180042b14 f i libucrt:output.obj
 0001:00041b28       ?crop_zeroes@__crt_stdio_output@@YAXPEADQEAU__crt_locale_pointers@@@Z 0000000180042b28 f i libucrt:output.obj
 0001:00041b94       ?disable@guard@?$cached@H@__crt_cached_ptd_host@@QEAAXXZ 0000000180042b94 f i libucrt:output.obj
 0001:00041b9c       ?enable@guard@?$cached@H@__crt_cached_ptd_host@@QEAAXXZ 0000000180042b9c f i libucrt:output.obj
 0001:00041ba4       ?find_next_state@?$output_processor@DV?$stream_output_adapter@D@__crt_stdio_output@@V?$format_validation_base@DV?$stream_output_adapter@D@__crt_stdio_output@@@2@@__crt_stdio_output@@AEBA?AW4state@2@DW432@@Z 0000000180042ba4 f i libucrt:output.obj
 0001:00041bdc       ?find_next_state@?$output_processor@DV?$stream_output_adapter@D@__crt_stdio_output@@V?$positional_parameter_base@DV?$stream_output_adapter@D@__crt_stdio_output@@@2@@__crt_stdio_output@@AEBA?AW4state@2@DW432@@Z 0000000180042bdc f i libucrt:output.obj
 0001:00041c14       ?find_next_state@?$output_processor@DV?$stream_output_adapter@D@__crt_stdio_output@@V?$standard_base@DV?$stream_output_adapter@D@__crt_stdio_output@@@2@@__crt_stdio_output@@AEBA?AW4state@2@DW432@@Z 0000000180042c14 f i libucrt:output.obj
 0001:00041c48       ?find_next_state@?$output_processor@DV?$string_output_adapter@D@__crt_stdio_output@@V?$format_validation_base@DV?$string_output_adapter@D@__crt_stdio_output@@@2@@__crt_stdio_output@@AEBA?AW4state@2@DW432@@Z 0000000180042c48 f i libucrt:output.obj
 0001:00041c80       ?find_next_state@?$output_processor@DV?$string_output_adapter@D@__crt_stdio_output@@V?$positional_parameter_base@DV?$string_output_adapter@D@__crt_stdio_output@@@2@@__crt_stdio_output@@AEBA?AW4state@2@DW432@@Z 0000000180042c80 f i libucrt:output.obj
 0001:00041cb8       ?find_next_state@?$output_processor@DV?$string_output_adapter@D@__crt_stdio_output@@V?$standard_base@DV?$string_output_adapter@D@__crt_stdio_output@@@2@@__crt_stdio_output@@AEBA?AW4state@2@DW432@@Z 0000000180042cb8 f i libucrt:output.obj
 0001:00041cec       ?find_next_state@?$output_processor@_WV?$stream_output_adapter@_W@__crt_stdio_output@@V?$format_validation_base@_WV?$stream_output_adapter@_W@__crt_stdio_output@@@2@@__crt_stdio_output@@AEBA?AW4state@2@_WW432@@Z 0000000180042cec f i libucrt:output.obj
 0001:00041d2c       ?find_next_state@?$output_processor@_WV?$stream_output_adapter@_W@__crt_stdio_output@@V?$positional_parameter_base@_WV?$stream_output_adapter@_W@__crt_stdio_output@@@2@@__crt_stdio_output@@AEBA?AW4state@2@_WW432@@Z 0000000180042d2c f i libucrt:output.obj
 0001:00041d6c       ?find_next_state@?$output_processor@_WV?$stream_output_adapter@_W@__crt_stdio_output@@V?$standard_base@_WV?$stream_output_adapter@_W@__crt_stdio_output@@@2@@__crt_stdio_output@@AEBA?AW4state@2@_WW432@@Z 0000000180042d6c f i libucrt:output.obj
 0001:00041da8       ?find_next_state@?$output_processor@_WV?$string_output_adapter@_W@__crt_stdio_output@@V?$format_validation_base@_WV?$string_output_adapter@_W@__crt_stdio_output@@@2@@__crt_stdio_output@@AEBA?AW4state@2@_WW432@@Z 0000000180042da8 f i libucrt:output.obj
 0001:00041de8       ?find_next_state@?$output_processor@_WV?$string_output_adapter@_W@__crt_stdio_output@@V?$positional_parameter_base@_WV?$string_output_adapter@_W@__crt_stdio_output@@@2@@__crt_stdio_output@@AEBA?AW4state@2@_WW432@@Z 0000000180042de8 f i libucrt:output.obj
 0001:00041e28       ?find_next_state@?$output_processor@_WV?$string_output_adapter@_W@__crt_stdio_output@@V?$standard_base@_WV?$string_output_adapter@_W@__crt_stdio_output@@@2@@__crt_stdio_output@@AEBA?AW4state@2@_WW432@@Z 0000000180042e28 f i libucrt:output.obj
 0001:00041e64       ?force_decimal_point@__crt_stdio_output@@YAXPEADQEAU__crt_locale_pointers@@@Z 0000000180042e64 f i libucrt:output.obj
 0001:00041ec4       ?get@?$c_string_character_source@D@__crt_strtox@@QEAADXZ 0000000180042ec4 f i libucrt:output.obj
 0001:00041ed0       ?get@?$c_string_character_source@_W@__crt_strtox@@QEAA_WXZ 0000000180042ed0 f i libucrt:output.obj
 0001:00041ee0       ?get_flags@__crt_stdio_stream@@QEBAJXZ 0000000180042ee0 f i libucrt:output.obj
 0001:00041ef0       ?get_locale@__crt_cached_ptd_host@@QEAAPEAU__crt_locale_pointers@@XZ 0000000180042ef0 f i libucrt:output.obj
 0001:00041f18       ?get_parameter_type@?$positional_parameter_base@DV?$stream_output_adapter@D@__crt_stdio_output@@@__crt_stdio_output@@CA?AW4parameter_type@12@F@Z 0000000180042f18 f i libucrt:output.obj
 0001:00041f20       ?get_parameter_type@?$positional_parameter_base@DV?$stream_output_adapter@D@__crt_stdio_output@@@__crt_stdio_output@@CA?AW4parameter_type@12@G@Z 0000000180042f20 f i libucrt:output.obj
 0001:00041f28       ?get_parameter_type@?$positional_parameter_base@DV?$stream_output_adapter@D@__crt_stdio_output@@@__crt_stdio_output@@CA?AW4parameter_type@12@H@Z 0000000180042f28 f i libucrt:output.obj
 0001:00041f30       ?get_parameter_type@?$positional_parameter_base@DV?$stream_output_adapter@D@__crt_stdio_output@@@__crt_stdio_output@@CA?AW4parameter_type@12@I@Z 0000000180042f30 f i libucrt:output.obj
 0001:00041f38       ?get_parameter_type@?$positional_parameter_base@DV?$stream_output_adapter@D@__crt_stdio_output@@@__crt_stdio_output@@CA?AW4parameter_type@12@U_CRT_DOUBLE@@@Z 0000000180042f38 f i libucrt:output.obj
 0001:00041f40       ?get_parameter_type@?$positional_parameter_base@DV?$stream_output_adapter@D@__crt_stdio_output@@@__crt_stdio_output@@CA?AW4parameter_type@12@_J@Z 0000000180042f40 f i libucrt:output.obj
 0001:00041f48       ?get_parameter_type@?$positional_parameter_base@DV?$stream_output_adapter@D@__crt_stdio_output@@@__crt_stdio_output@@CA?AW4parameter_type@12@_K@Z 0000000180042f48 f i libucrt:output.obj
 0001:00041f50       ?get_parameter_type@?$positional_parameter_base@DV?$stream_output_adapter@D@__crt_stdio_output@@@__crt_stdio_output@@CA?AW4parameter_type@12@_W@Z 0000000180042f50 f i libucrt:output.obj
 0001:00041f58       ?get_parameter_type@?$positional_parameter_base@DV?$string_output_adapter@D@__crt_stdio_output@@@__crt_stdio_output@@CA?AW4parameter_type@12@F@Z 0000000180042f58 f i libucrt:output.obj
 0001:00041f60       ?get_parameter_type@?$positional_parameter_base@DV?$string_output_adapter@D@__crt_stdio_output@@@__crt_stdio_output@@CA?AW4parameter_type@12@G@Z 0000000180042f60 f i libucrt:output.obj
 0001:00041f68       ?get_parameter_type@?$positional_parameter_base@DV?$string_output_adapter@D@__crt_stdio_output@@@__crt_stdio_output@@CA?AW4parameter_type@12@H@Z 0000000180042f68 f i libucrt:output.obj
 0001:00041f70       ?get_parameter_type@?$positional_parameter_base@DV?$string_output_adapter@D@__crt_stdio_output@@@__crt_stdio_output@@CA?AW4parameter_type@12@I@Z 0000000180042f70 f i libucrt:output.obj
 0001:00041f78       ?get_parameter_type@?$positional_parameter_base@DV?$string_output_adapter@D@__crt_stdio_output@@@__crt_stdio_output@@CA?AW4parameter_type@12@U_CRT_DOUBLE@@@Z 0000000180042f78 f i libucrt:output.obj
 0001:00041f80       ?get_parameter_type@?$positional_parameter_base@DV?$string_output_adapter@D@__crt_stdio_output@@@__crt_stdio_output@@CA?AW4parameter_type@12@_J@Z 0000000180042f80 f i libucrt:output.obj
 0001:00041f88       ?get_parameter_type@?$positional_parameter_base@DV?$string_output_adapter@D@__crt_stdio_output@@@__crt_stdio_output@@CA?AW4parameter_type@12@_K@Z 0000000180042f88 f i libucrt:output.obj
 0001:00041f90       ?get_parameter_type@?$positional_parameter_base@DV?$string_output_adapter@D@__crt_stdio_output@@@__crt_stdio_output@@CA?AW4parameter_type@12@_W@Z 0000000180042f90 f i libucrt:output.obj
 0001:00041f98       ?get_parameter_type@?$positional_parameter_base@_WV?$stream_output_adapter@_W@__crt_stdio_output@@@__crt_stdio_output@@CA?AW4parameter_type@12@F@Z 0000000180042f98 f i libucrt:output.obj
 0001:00041fa0       ?get_parameter_type@?$positional_parameter_base@_WV?$stream_output_adapter@_W@__crt_stdio_output@@@__crt_stdio_output@@CA?AW4parameter_type@12@G@Z 0000000180042fa0 f i libucrt:output.obj
 0001:00041fa8       ?get_parameter_type@?$positional_parameter_base@_WV?$stream_output_adapter@_W@__crt_stdio_output@@@__crt_stdio_output@@CA?AW4parameter_type@12@H@Z 0000000180042fa8 f i libucrt:output.obj
 0001:00041fb0       ?get_parameter_type@?$positional_parameter_base@_WV?$stream_output_adapter@_W@__crt_stdio_output@@@__crt_stdio_output@@CA?AW4parameter_type@12@I@Z 0000000180042fb0 f i libucrt:output.obj
 0001:00041fb8       ?get_parameter_type@?$positional_parameter_base@_WV?$stream_output_adapter@_W@__crt_stdio_output@@@__crt_stdio_output@@CA?AW4parameter_type@12@U_CRT_DOUBLE@@@Z 0000000180042fb8 f i libucrt:output.obj
 0001:00041fc0       ?get_parameter_type@?$positional_parameter_base@_WV?$stream_output_adapter@_W@__crt_stdio_output@@@__crt_stdio_output@@CA?AW4parameter_type@12@_J@Z 0000000180042fc0 f i libucrt:output.obj
 0001:00041fc8       ?get_parameter_type@?$positional_parameter_base@_WV?$stream_output_adapter@_W@__crt_stdio_output@@@__crt_stdio_output@@CA?AW4parameter_type@12@_K@Z 0000000180042fc8 f i libucrt:output.obj
 0001:00041fd0       ?get_parameter_type@?$positional_parameter_base@_WV?$stream_output_adapter@_W@__crt_stdio_output@@@__crt_stdio_output@@CA?AW4parameter_type@12@_W@Z 0000000180042fd0 f i libucrt:output.obj
 0001:00041fd8       ?get_parameter_type@?$positional_parameter_base@_WV?$string_output_adapter@_W@__crt_stdio_output@@@__crt_stdio_output@@CA?AW4parameter_type@12@F@Z 0000000180042fd8 f i libucrt:output.obj
 0001:00041fe0       ?get_parameter_type@?$positional_parameter_base@_WV?$string_output_adapter@_W@__crt_stdio_output@@@__crt_stdio_output@@CA?AW4parameter_type@12@G@Z 0000000180042fe0 f i libucrt:output.obj
 0001:00041fe8       ?get_parameter_type@?$positional_parameter_base@_WV?$string_output_adapter@_W@__crt_stdio_output@@@__crt_stdio_output@@CA?AW4parameter_type@12@H@Z 0000000180042fe8 f i libucrt:output.obj
 0001:00041ff0       ?get_parameter_type@?$positional_parameter_base@_WV?$string_output_adapter@_W@__crt_stdio_output@@@__crt_stdio_output@@CA?AW4parameter_type@12@I@Z 0000000180042ff0 f i libucrt:output.obj
 0001:00041ff8       ?get_parameter_type@?$positional_parameter_base@_WV?$string_output_adapter@_W@__crt_stdio_output@@@__crt_stdio_output@@CA?AW4parameter_type@12@U_CRT_DOUBLE@@@Z 0000000180042ff8 f i libucrt:output.obj
 0001:00042000       ?get_parameter_type@?$positional_parameter_base@_WV?$string_output_adapter@_W@__crt_stdio_output@@@__crt_stdio_output@@CA?AW4parameter_type@12@_J@Z 0000000180043000 f i libucrt:output.obj
 0001:00042008       ?get_parameter_type@?$positional_parameter_base@_WV?$string_output_adapter@_W@__crt_stdio_output@@@__crt_stdio_output@@CA?AW4parameter_type@12@_K@Z 0000000180043008 f i libucrt:output.obj
 0001:00042010       ?get_parameter_type@?$positional_parameter_base@_WV?$string_output_adapter@_W@__crt_stdio_output@@@__crt_stdio_output@@CA?AW4parameter_type@12@_W@Z 0000000180043010 f i libucrt:output.obj
 0001:00042018       ?has_flag@?$output_processor@DV?$stream_output_adapter@D@__crt_stdio_output@@V?$format_validation_base@DV?$stream_output_adapter@D@__crt_stdio_output@@@2@@__crt_stdio_output@@AEBA_NI@Z 0000000180043018 f i libucrt:output.obj
 0001:00042020       ?has_flag@?$output_processor@DV?$stream_output_adapter@D@__crt_stdio_output@@V?$positional_parameter_base@DV?$stream_output_adapter@D@__crt_stdio_output@@@2@@__crt_stdio_output@@AEBA_NI@Z 0000000180043020 f i libucrt:output.obj
 0001:00042028       ?has_flag@?$output_processor@DV?$stream_output_adapter@D@__crt_stdio_output@@V?$standard_base@DV?$stream_output_adapter@D@__crt_stdio_output@@@2@@__crt_stdio_output@@AEBA_NI@Z 0000000180043028 f i libucrt:output.obj
 0001:00042030       ?has_flag@?$output_processor@DV?$string_output_adapter@D@__crt_stdio_output@@V?$format_validation_base@DV?$string_output_adapter@D@__crt_stdio_output@@@2@@__crt_stdio_output@@AEBA_NI@Z 0000000180043030 f i libucrt:output.obj
 0001:00042038       ?has_flag@?$output_processor@DV?$string_output_adapter@D@__crt_stdio_output@@V?$positional_parameter_base@DV?$string_output_adapter@D@__crt_stdio_output@@@2@@__crt_stdio_output@@AEBA_NI@Z 0000000180043038 f i libucrt:output.obj
 0001:00042040       ?has_flag@?$output_processor@DV?$string_output_adapter@D@__crt_stdio_output@@V?$standard_base@DV?$string_output_adapter@D@__crt_stdio_output@@@2@@__crt_stdio_output@@AEBA_NI@Z 0000000180043040 f i libucrt:output.obj
 0001:00042048       ?has_flag@?$output_processor@_WV?$stream_output_adapter@_W@__crt_stdio_output@@V?$format_validation_base@_WV?$stream_output_adapter@_W@__crt_stdio_output@@@2@@__crt_stdio_output@@AEBA_NI@Z 0000000180043048 f i libucrt:output.obj
 0001:00042050       ?has_flag@?$output_processor@_WV?$stream_output_adapter@_W@__crt_stdio_output@@V?$positional_parameter_base@_WV?$stream_output_adapter@_W@__crt_stdio_output@@@2@@__crt_stdio_output@@AEBA_NI@Z 0000000180043050 f i libucrt:output.obj
 0001:00042058       ?has_flag@?$output_processor@_WV?$stream_output_adapter@_W@__crt_stdio_output@@V?$standard_base@_WV?$stream_output_adapter@_W@__crt_stdio_output@@@2@@__crt_stdio_output@@AEBA_NI@Z 0000000180043058 f i libucrt:output.obj
 0001:00042060       ?has_flag@?$output_processor@_WV?$string_output_adapter@_W@__crt_stdio_output@@V?$format_validation_base@_WV?$string_output_adapter@_W@__crt_stdio_output@@@2@@__crt_stdio_output@@AEBA_NI@Z 0000000180043060 f i libucrt:output.obj
 0001:00042068       ?has_flag@?$output_processor@_WV?$string_output_adapter@_W@__crt_stdio_output@@V?$positional_parameter_base@_WV?$string_output_adapter@_W@__crt_stdio_output@@@2@@__crt_stdio_output@@AEBA_NI@Z 0000000180043068 f i libucrt:output.obj
 0001:00042070       ?has_flag@?$output_processor@_WV?$string_output_adapter@_W@__crt_stdio_output@@V?$standard_base@_WV?$string_output_adapter@_W@__crt_stdio_output@@@2@@__crt_stdio_output@@AEBA_NI@Z 0000000180043070 f i libucrt:output.obj
 0001:00042078       ?is_positional_parameter_reappearance_consistent@?$positional_parameter_base@DV?$stream_output_adapter@D@__crt_stdio_output@@@__crt_stdio_output@@AEAA_NAEBUparameter_data@12@W4parameter_type@12@DW4length_modifier@2@@Z 0000000180043078 f i libucrt:output.obj
 0001:000422ac       ?is_positional_parameter_reappearance_consistent@?$positional_parameter_base@DV?$string_output_adapter@D@__crt_stdio_output@@@__crt_stdio_output@@AEAA_NAEBUparameter_data@12@W4parameter_type@12@DW4length_modifier@2@@Z 00000001800432ac f i libucrt:output.obj
 0001:000424e0       ?is_positional_parameter_reappearance_consistent@?$positional_parameter_base@_WV?$stream_output_adapter@_W@__crt_stdio_output@@@__crt_stdio_output@@AEAA_NAEBUparameter_data@12@W4parameter_type@12@_WW4length_modifier@2@@Z 00000001800434e0 f i libucrt:output.obj
 0001:000426e4       ?is_positional_parameter_reappearance_consistent@?$positional_parameter_base@_WV?$string_output_adapter@_W@__crt_stdio_output@@@__crt_stdio_output@@AEAA_NAEBUparameter_data@12@W4parameter_type@12@_WW4length_modifier@2@@Z 00000001800436e4 f i libucrt:output.obj
 0001:000428e8       ?is_string_backed@__crt_stdio_stream@@QEBA_NXZ 00000001800438e8 f i libucrt:output.obj
 0001:000428f8       ?maximum_signed_value@__crt_strtox@@YAJK@Z 00000001800438f8 f i libucrt:output.obj
 0001:00042900       ?minimum_signed_value@__crt_strtox@@YAJK@Z 0000000180043900 f i libucrt:output.obj
 0001:00042908       ?narrow_null_string@?$output_processor@DV?$stream_output_adapter@D@__crt_stdio_output@@V?$format_validation_base@DV?$stream_output_adapter@D@__crt_stdio_output@@@2@@__crt_stdio_output@@CAPEADXZ 0000000180043908 f i libucrt:output.obj
 0001:00042910       ?narrow_null_string@?$output_processor@DV?$stream_output_adapter@D@__crt_stdio_output@@V?$positional_parameter_base@DV?$stream_output_adapter@D@__crt_stdio_output@@@2@@__crt_stdio_output@@CAPEADXZ 0000000180043910 f i libucrt:output.obj
 0001:00042918       ?narrow_null_string@?$output_processor@DV?$stream_output_adapter@D@__crt_stdio_output@@V?$standard_base@DV?$stream_output_adapter@D@__crt_stdio_output@@@2@@__crt_stdio_output@@CAPEADXZ 0000000180043918 f i libucrt:output.obj
 0001:00042920       ?narrow_null_string@?$output_processor@DV?$string_output_adapter@D@__crt_stdio_output@@V?$format_validation_base@DV?$string_output_adapter@D@__crt_stdio_output@@@2@@__crt_stdio_output@@CAPEADXZ 0000000180043920 f i libucrt:output.obj
 0001:00042928       ?narrow_null_string@?$output_processor@DV?$string_output_adapter@D@__crt_stdio_output@@V?$positional_parameter_base@DV?$string_output_adapter@D@__crt_stdio_output@@@2@@__crt_stdio_output@@CAPEADXZ 0000000180043928 f i libucrt:output.obj
 0001:00042930       ?narrow_null_string@?$output_processor@DV?$string_output_adapter@D@__crt_stdio_output@@V?$standard_base@DV?$string_output_adapter@D@__crt_stdio_output@@@2@@__crt_stdio_output@@CAPEADXZ 0000000180043930 f i libucrt:output.obj
 0001:00042938       ?narrow_null_string@?$output_processor@_WV?$stream_output_adapter@_W@__crt_stdio_output@@V?$format_validation_base@_WV?$stream_output_adapter@_W@__crt_stdio_output@@@2@@__crt_stdio_output@@CAPEADXZ 0000000180043938 f i libucrt:output.obj
 0001:00042940       ?narrow_null_string@?$output_processor@_WV?$stream_output_adapter@_W@__crt_stdio_output@@V?$positional_parameter_base@_WV?$stream_output_adapter@_W@__crt_stdio_output@@@2@@__crt_stdio_output@@CAPEADXZ 0000000180043940 f i libucrt:output.obj
 0001:00042948       ?narrow_null_string@?$output_processor@_WV?$stream_output_adapter@_W@__crt_stdio_output@@V?$standard_base@_WV?$stream_output_adapter@_W@__crt_stdio_output@@@2@@__crt_stdio_output@@CAPEADXZ 0000000180043948 f i libucrt:output.obj
 0001:00042950       ?narrow_null_string@?$output_processor@_WV?$string_output_adapter@_W@__crt_stdio_output@@V?$format_validation_base@_WV?$string_output_adapter@_W@__crt_stdio_output@@@2@@__crt_stdio_output@@CAPEADXZ 0000000180043950 f i libucrt:output.obj
 0001:00042958       ?narrow_null_string@?$output_processor@_WV?$string_output_adapter@_W@__crt_stdio_output@@V?$positional_parameter_base@_WV?$string_output_adapter@_W@__crt_stdio_output@@@2@@__crt_stdio_output@@CAPEADXZ 0000000180043958 f i libucrt:output.obj
 0001:00042960       ?narrow_null_string@?$output_processor@_WV?$string_output_adapter@_W@__crt_stdio_output@@V?$standard_base@_WV?$string_output_adapter@_W@__crt_stdio_output@@@2@@__crt_stdio_output@@CAPEADXZ 0000000180043960 f i libucrt:output.obj
 0001:00042968       ?parse_digit@__crt_strtox@@YAID@Z 0000000180043968 f i libucrt:output.obj
 0001:00042998       ?parse_digit@__crt_strtox@@YAI_W@Z 0000000180043998 f i libucrt:output.obj
 0001:00042b54       ?parse_int_from_format_string@?$output_processor@DV?$stream_output_adapter@D@__crt_stdio_output@@V?$format_validation_base@DV?$stream_output_adapter@D@__crt_stdio_output@@@2@@__crt_stdio_output@@AEAA_NQEAH@Z 0000000180043b54 f i libucrt:output.obj
 0001:00042be4       ?parse_int_from_format_string@?$output_processor@DV?$stream_output_adapter@D@__crt_stdio_output@@V?$positional_parameter_base@DV?$stream_output_adapter@D@__crt_stdio_output@@@2@@__crt_stdio_output@@AEAA_NQEAH@Z 0000000180043be4 f i libucrt:output.obj
 0001:00042c74       ?parse_int_from_format_string@?$output_processor@DV?$stream_output_adapter@D@__crt_stdio_output@@V?$standard_base@DV?$stream_output_adapter@D@__crt_stdio_output@@@2@@__crt_stdio_output@@AEAA_NQEAH@Z 0000000180043c74 f i libucrt:output.obj
 0001:00042d04       ?parse_int_from_format_string@?$output_processor@DV?$string_output_adapter@D@__crt_stdio_output@@V?$format_validation_base@DV?$string_output_adapter@D@__crt_stdio_output@@@2@@__crt_stdio_output@@AEAA_NQEAH@Z 0000000180043d04 f i libucrt:output.obj
 0001:00042d94       ?parse_int_from_format_string@?$output_processor@DV?$string_output_adapter@D@__crt_stdio_output@@V?$positional_parameter_base@DV?$string_output_adapter@D@__crt_stdio_output@@@2@@__crt_stdio_output@@AEAA_NQEAH@Z 0000000180043d94 f i libucrt:output.obj
 0001:00042e24       ?parse_int_from_format_string@?$output_processor@DV?$string_output_adapter@D@__crt_stdio_output@@V?$standard_base@DV?$string_output_adapter@D@__crt_stdio_output@@@2@@__crt_stdio_output@@AEAA_NQEAH@Z 0000000180043e24 f i libucrt:output.obj
 0001:00042eb4       ?parse_int_from_format_string@?$output_processor@_WV?$stream_output_adapter@_W@__crt_stdio_output@@V?$format_validation_base@_WV?$stream_output_adapter@_W@__crt_stdio_output@@@2@@__crt_stdio_output@@AEAA_NQEAH@Z 0000000180043eb4 f i libucrt:output.obj
 0001:00042f44       ?parse_int_from_format_string@?$output_processor@_WV?$stream_output_adapter@_W@__crt_stdio_output@@V?$positional_parameter_base@_WV?$stream_output_adapter@_W@__crt_stdio_output@@@2@@__crt_stdio_output@@AEAA_NQEAH@Z 0000000180043f44 f i libucrt:output.obj
 0001:00042fd4       ?parse_int_from_format_string@?$output_processor@_WV?$stream_output_adapter@_W@__crt_stdio_output@@V?$standard_base@_WV?$stream_output_adapter@_W@__crt_stdio_output@@@2@@__crt_stdio_output@@AEAA_NQEAH@Z 0000000180043fd4 f i libucrt:output.obj
 0001:00043064       ?parse_int_from_format_string@?$output_processor@_WV?$string_output_adapter@_W@__crt_stdio_output@@V?$format_validation_base@_WV?$string_output_adapter@_W@__crt_stdio_output@@@2@@__crt_stdio_output@@AEAA_NQEAH@Z 0000000180044064 f i libucrt:output.obj
 0001:000430f4       ?parse_int_from_format_string@?$output_processor@_WV?$string_output_adapter@_W@__crt_stdio_output@@V?$positional_parameter_base@_WV?$string_output_adapter@_W@__crt_stdio_output@@@2@@__crt_stdio_output@@AEAA_NQEAH@Z 00000001800440f4 f i libucrt:output.obj
 0001:00043184       ?parse_int_from_format_string@?$output_processor@_WV?$string_output_adapter@_W@__crt_stdio_output@@V?$standard_base@_WV?$string_output_adapter@_W@__crt_stdio_output@@@2@@__crt_stdio_output@@AEAA_NQEAH@Z 0000000180044184 f i libucrt:output.obj
 0001:00043214       ?process@?$output_processor@DV?$stream_output_adapter@D@__crt_stdio_output@@V?$format_validation_base@DV?$stream_output_adapter@D@__crt_stdio_output@@@2@@__crt_stdio_output@@QEAAHXZ 0000000180044214 f i libucrt:output.obj
 0001:000435b0       ?process@?$output_processor@DV?$stream_output_adapter@D@__crt_stdio_output@@V?$positional_parameter_base@DV?$stream_output_adapter@D@__crt_stdio_output@@@2@@__crt_stdio_output@@QEAAHXZ 00000001800445b0 f i libucrt:output.obj
 0001:000439e4       ?process@?$output_processor@DV?$stream_output_adapter@D@__crt_stdio_output@@V?$standard_base@DV?$stream_output_adapter@D@__crt_stdio_output@@@2@@__crt_stdio_output@@QEAAHXZ 00000001800449e4 f i libucrt:output.obj
 0001:00043d7c       ?process@?$output_processor@DV?$string_output_adapter@D@__crt_stdio_output@@V?$format_validation_base@DV?$string_output_adapter@D@__crt_stdio_output@@@2@@__crt_stdio_output@@QEAAHXZ 0000000180044d7c f i libucrt:output.obj
 0001:00044100       ?process@?$output_processor@DV?$string_output_adapter@D@__crt_stdio_output@@V?$positional_parameter_base@DV?$string_output_adapter@D@__crt_stdio_output@@@2@@__crt_stdio_output@@QEAAHXZ 0000000180045100 f i libucrt:output.obj
 0001:00044518       ?process@?$output_processor@DV?$string_output_adapter@D@__crt_stdio_output@@V?$standard_base@DV?$string_output_adapter@D@__crt_stdio_output@@@2@@__crt_stdio_output@@QEAAHXZ 0000000180045518 f i libucrt:output.obj
 0001:00044898       ?process@?$output_processor@_WV?$stream_output_adapter@_W@__crt_stdio_output@@V?$format_validation_base@_WV?$stream_output_adapter@_W@__crt_stdio_output@@@2@@__crt_stdio_output@@QEAAHXZ 0000000180045898 f i libucrt:output.obj
 0001:00044b78       ?process@?$output_processor@_WV?$stream_output_adapter@_W@__crt_stdio_output@@V?$positional_parameter_base@_WV?$stream_output_adapter@_W@__crt_stdio_output@@@2@@__crt_stdio_output@@QEAAHXZ 0000000180045b78 f i libucrt:output.obj
 0001:00044ee8       ?process@?$output_processor@_WV?$stream_output_adapter@_W@__crt_stdio_output@@V?$standard_base@_WV?$stream_output_adapter@_W@__crt_stdio_output@@@2@@__crt_stdio_output@@QEAAHXZ 0000000180045ee8 f i libucrt:output.obj
 0001:000451b8       ?process@?$output_processor@_WV?$string_output_adapter@_W@__crt_stdio_output@@V?$format_validation_base@_WV?$string_output_adapter@_W@__crt_stdio_output@@@2@@__crt_stdio_output@@QEAAHXZ 00000001800461b8 f i libucrt:output.obj
 0001:00045490       ?process@?$output_processor@_WV?$string_output_adapter@_W@__crt_stdio_output@@V?$positional_parameter_base@_WV?$string_output_adapter@_W@__crt_stdio_output@@@2@@__crt_stdio_output@@QEAAHXZ 0000000180046490 f i libucrt:output.obj
 0001:000457fc       ?process@?$output_processor@_WV?$string_output_adapter@_W@__crt_stdio_output@@V?$standard_base@_WV?$string_output_adapter@_W@__crt_stdio_output@@@2@@__crt_stdio_output@@QEAAHXZ 00000001800467fc f i libucrt:output.obj
 0001:00045ad4       ?public_stream@__crt_stdio_stream@@QEBAPEAU_iobuf@@XZ 0000000180046ad4 f i libucrt:output.obj
 0001:00045ad8       ?restore_state@?$c_string_character_source@D@__crt_strtox@@QEAA_NQEBD@Z 0000000180046ad8 f i libucrt:output.obj
 0001:00045ae0       ?restore_state@?$c_string_character_source@_W@__crt_strtox@@QEAA_NQEB_W@Z 0000000180046ae0 f i libucrt:output.obj
 0001:00045ae8       ?save_state@?$c_string_character_source@D@__crt_strtox@@QEBAPEBDXZ 0000000180046ae8 f i libucrt:output.obj
 0001:00045aec       ?save_state@?$c_string_character_source@_W@__crt_strtox@@QEBAPEB_WXZ 0000000180046aec f i libucrt:output.obj
 0001:00045af0       ?set_flag@?$output_processor@DV?$stream_output_adapter@D@__crt_stdio_output@@V?$format_validation_base@DV?$stream_output_adapter@D@__crt_stdio_output@@@2@@__crt_stdio_output@@AEAAXI@Z 0000000180046af0 f i libucrt:output.obj
 0001:00045af4       ?set_flag@?$output_processor@DV?$stream_output_adapter@D@__crt_stdio_output@@V?$positional_parameter_base@DV?$stream_output_adapter@D@__crt_stdio_output@@@2@@__crt_stdio_output@@AEAAXI@Z 0000000180046af4 f i libucrt:output.obj
 0001:00045af8       ?set_flag@?$output_processor@DV?$stream_output_adapter@D@__crt_stdio_output@@V?$standard_base@DV?$stream_output_adapter@D@__crt_stdio_output@@@2@@__crt_stdio_output@@AEAAXI@Z 0000000180046af8 f i libucrt:output.obj
 0001:00045afc       ?set_flag@?$output_processor@DV?$string_output_adapter@D@__crt_stdio_output@@V?$format_validation_base@DV?$string_output_adapter@D@__crt_stdio_output@@@2@@__crt_stdio_output@@AEAAXI@Z 0000000180046afc f i libucrt:output.obj
 0001:00045b00       ?set_flag@?$output_processor@DV?$string_output_adapter@D@__crt_stdio_output@@V?$positional_parameter_base@DV?$string_output_adapter@D@__crt_stdio_output@@@2@@__crt_stdio_output@@AEAAXI@Z 0000000180046b00 f i libucrt:output.obj
 0001:00045b04       ?set_flag@?$output_processor@DV?$string_output_adapter@D@__crt_stdio_output@@V?$standard_base@DV?$string_output_adapter@D@__crt_stdio_output@@@2@@__crt_stdio_output@@AEAAXI@Z 0000000180046b04 f i libucrt:output.obj
 0001:00045b08       ?set_flag@?$output_processor@_WV?$stream_output_adapter@_W@__crt_stdio_output@@V?$format_validation_base@_WV?$stream_output_adapter@_W@__crt_stdio_output@@@2@@__crt_stdio_output@@AEAAXI@Z 0000000180046b08 f i libucrt:output.obj
 0001:00045b0c       ?set_flag@?$output_processor@_WV?$stream_output_adapter@_W@__crt_stdio_output@@V?$positional_parameter_base@_WV?$stream_output_adapter@_W@__crt_stdio_output@@@2@@__crt_stdio_output@@AEAAXI@Z 0000000180046b0c f i libucrt:output.obj
 0001:00045b10       ?set_flag@?$output_processor@_WV?$stream_output_adapter@_W@__crt_stdio_output@@V?$standard_base@_WV?$stream_output_adapter@_W@__crt_stdio_output@@@2@@__crt_stdio_output@@AEAAXI@Z 0000000180046b10 f i libucrt:output.obj
 0001:00045b14       ?set_flag@?$output_processor@_WV?$string_output_adapter@_W@__crt_stdio_output@@V?$format_validation_base@_WV?$string_output_adapter@_W@__crt_stdio_output@@@2@@__crt_stdio_output@@AEAAXI@Z 0000000180046b14 f i libucrt:output.obj
 0001:00045b18       ?set_flag@?$output_processor@_WV?$string_output_adapter@_W@__crt_stdio_output@@V?$positional_parameter_base@_WV?$string_output_adapter@_W@__crt_stdio_output@@@2@@__crt_stdio_output@@AEAAXI@Z 0000000180046b18 f i libucrt:output.obj
 0001:00045b1c       ?set_flag@?$output_processor@_WV?$string_output_adapter@_W@__crt_stdio_output@@V?$standard_base@_WV?$string_output_adapter@_W@__crt_stdio_output@@@2@@__crt_stdio_output@@AEAAXI@Z 0000000180046b1c f i libucrt:output.obj
 0001:00045b20       ?should_format@?$positional_parameter_base@DV?$stream_output_adapter@D@__crt_stdio_output@@@__crt_stdio_output@@IEAA_NXZ 0000000180046b20 f i libucrt:output.obj
 0001:00045b38       ?should_format@?$positional_parameter_base@DV?$string_output_adapter@D@__crt_stdio_output@@@__crt_stdio_output@@IEAA_NXZ 0000000180046b38 f i libucrt:output.obj
 0001:00045b50       ?should_format@?$positional_parameter_base@_WV?$stream_output_adapter@_W@__crt_stdio_output@@@__crt_stdio_output@@IEAA_NXZ 0000000180046b50 f i libucrt:output.obj
 0001:00045b68       ?should_format@?$positional_parameter_base@_WV?$string_output_adapter@_W@__crt_stdio_output@@@__crt_stdio_output@@IEAA_NXZ 0000000180046b68 f i libucrt:output.obj
 0001:00045b80       ?should_format@?$standard_base@DV?$stream_output_adapter@D@__crt_stdio_output@@@__crt_stdio_output@@IEAA_NXZ 0000000180046b80 f i libucrt:output.obj
 0001:00045b84       ?should_format@?$standard_base@DV?$string_output_adapter@D@__crt_stdio_output@@@__crt_stdio_output@@IEAA_NXZ 0000000180046b84 f i libucrt:output.obj
 0001:00045b88       ?should_format@?$standard_base@_WV?$stream_output_adapter@_W@__crt_stdio_output@@@__crt_stdio_output@@IEAA_NXZ 0000000180046b88 f i libucrt:output.obj
 0001:00045b8c       ?should_format@?$standard_base@_WV?$string_output_adapter@_W@__crt_stdio_output@@@__crt_stdio_output@@IEAA_NXZ 0000000180046b8c f i libucrt:output.obj
 0001:00045b90       ?should_skip_normal_state_processing@?$positional_parameter_base@DV?$stream_output_adapter@D@__crt_stdio_output@@@__crt_stdio_output@@IEAA_NXZ 0000000180046b90 f i libucrt:output.obj
 0001:00045bbc       ?should_skip_normal_state_processing@?$positional_parameter_base@DV?$string_output_adapter@D@__crt_stdio_output@@@__crt_stdio_output@@IEAA_NXZ 0000000180046bbc f i libucrt:output.obj
 0001:00045be8       ?should_skip_normal_state_processing@?$positional_parameter_base@_WV?$stream_output_adapter@_W@__crt_stdio_output@@@__crt_stdio_output@@IEAA_NXZ 0000000180046be8 f i libucrt:output.obj
 0001:00045c14       ?should_skip_normal_state_processing@?$positional_parameter_base@_WV?$string_output_adapter@_W@__crt_stdio_output@@@__crt_stdio_output@@IEAA_NXZ 0000000180046c14 f i libucrt:output.obj
 0001:00045c40       ?should_skip_normal_state_processing@?$standard_base@DV?$stream_output_adapter@D@__crt_stdio_output@@@__crt_stdio_output@@IEAA_NXZ 0000000180046c40 f i libucrt:output.obj
 0001:00045c44       ?should_skip_normal_state_processing@?$standard_base@DV?$string_output_adapter@D@__crt_stdio_output@@@__crt_stdio_output@@IEAA_NXZ 0000000180046c44 f i libucrt:output.obj
 0001:00045c48       ?should_skip_normal_state_processing@?$standard_base@_WV?$stream_output_adapter@_W@__crt_stdio_output@@@__crt_stdio_output@@IEAA_NXZ 0000000180046c48 f i libucrt:output.obj
 0001:00045c4c       ?should_skip_normal_state_processing@?$standard_base@_WV?$string_output_adapter@_W@__crt_stdio_output@@@__crt_stdio_output@@IEAA_NXZ 0000000180046c4c f i libucrt:output.obj
 0001:00045c50       ?should_skip_type_state_output@?$positional_parameter_base@DV?$stream_output_adapter@D@__crt_stdio_output@@@__crt_stdio_output@@IEBA_NXZ 0000000180046c50 f i libucrt:output.obj
 0001:00045c6c       ?should_skip_type_state_output@?$positional_parameter_base@DV?$string_output_adapter@D@__crt_stdio_output@@@__crt_stdio_output@@IEBA_NXZ 0000000180046c6c f i libucrt:output.obj
 0001:00045c88       ?should_skip_type_state_output@?$positional_parameter_base@_WV?$stream_output_adapter@_W@__crt_stdio_output@@@__crt_stdio_output@@IEBA_NXZ 0000000180046c88 f i libucrt:output.obj
 0001:00045ca4       ?should_skip_type_state_output@?$positional_parameter_base@_WV?$string_output_adapter@_W@__crt_stdio_output@@@__crt_stdio_output@@IEBA_NXZ 0000000180046ca4 f i libucrt:output.obj
 0001:00045cc0       ?should_skip_type_state_output@?$standard_base@DV?$stream_output_adapter@D@__crt_stdio_output@@@__crt_stdio_output@@IEBA_NXZ 0000000180046cc0 f i libucrt:output.obj
 0001:00045cc4       ?should_skip_type_state_output@?$standard_base@DV?$string_output_adapter@D@__crt_stdio_output@@@__crt_stdio_output@@IEBA_NXZ 0000000180046cc4 f i libucrt:output.obj
 0001:00045cc8       ?should_skip_type_state_output@?$standard_base@_WV?$stream_output_adapter@_W@__crt_stdio_output@@@__crt_stdio_output@@IEBA_NXZ 0000000180046cc8 f i libucrt:output.obj
 0001:00045ccc       ?should_skip_type_state_output@?$standard_base@_WV?$string_output_adapter@_W@__crt_stdio_output@@@__crt_stdio_output@@IEBA_NXZ 0000000180046ccc f i libucrt:output.obj
 0001:00045cd0       ?state_case_dot@?$output_processor@DV?$stream_output_adapter@D@__crt_stdio_output@@V?$format_validation_base@DV?$stream_output_adapter@D@__crt_stdio_output@@@2@@__crt_stdio_output@@AEAA_NXZ 0000000180046cd0 f i libucrt:output.obj
 0001:00045cd8       ?state_case_dot@?$output_processor@DV?$stream_output_adapter@D@__crt_stdio_output@@V?$positional_parameter_base@DV?$stream_output_adapter@D@__crt_stdio_output@@@2@@__crt_stdio_output@@AEAA_NXZ 0000000180046cd8 f i libucrt:output.obj
 0001:00045ce0       ?state_case_dot@?$output_processor@DV?$stream_output_adapter@D@__crt_stdio_output@@V?$standard_base@DV?$stream_output_adapter@D@__crt_stdio_output@@@2@@__crt_stdio_output@@AEAA_NXZ 0000000180046ce0 f i libucrt:output.obj
 0001:00045ce8       ?state_case_dot@?$output_processor@DV?$string_output_adapter@D@__crt_stdio_output@@V?$format_validation_base@DV?$string_output_adapter@D@__crt_stdio_output@@@2@@__crt_stdio_output@@AEAA_NXZ 0000000180046ce8 f i libucrt:output.obj
 0001:00045cf0       ?state_case_dot@?$output_processor@DV?$string_output_adapter@D@__crt_stdio_output@@V?$positional_parameter_base@DV?$string_output_adapter@D@__crt_stdio_output@@@2@@__crt_stdio_output@@AEAA_NXZ 0000000180046cf0 f i libucrt:output.obj
 0001:00045cf8       ?state_case_dot@?$output_processor@DV?$string_output_adapter@D@__crt_stdio_output@@V?$standard_base@DV?$string_output_adapter@D@__crt_stdio_output@@@2@@__crt_stdio_output@@AEAA_NXZ 0000000180046cf8 f i libucrt:output.obj
 0001:00045d00       ?state_case_dot@?$output_processor@_WV?$stream_output_adapter@_W@__crt_stdio_output@@V?$format_validation_base@_WV?$stream_output_adapter@_W@__crt_stdio_output@@@2@@__crt_stdio_output@@AEAA_NXZ 0000000180046d00 f i libucrt:output.obj
 0001:00045d08       ?state_case_dot@?$output_processor@_WV?$stream_output_adapter@_W@__crt_stdio_output@@V?$positional_parameter_base@_WV?$stream_output_adapter@_W@__crt_stdio_output@@@2@@__crt_stdio_output@@AEAA_NXZ 0000000180046d08 f i libucrt:output.obj
 0001:00045d10       ?state_case_dot@?$output_processor@_WV?$stream_output_adapter@_W@__crt_stdio_output@@V?$standard_base@_WV?$stream_output_adapter@_W@__crt_stdio_output@@@2@@__crt_stdio_output@@AEAA_NXZ 0000000180046d10 f i libucrt:output.obj
 0001:00045d18       ?state_case_dot@?$output_processor@_WV?$string_output_adapter@_W@__crt_stdio_output@@V?$format_validation_base@_WV?$string_output_adapter@_W@__crt_stdio_output@@@2@@__crt_stdio_output@@AEAA_NXZ 0000000180046d18 f i libucrt:output.obj
 0001:00045d20       ?state_case_dot@?$output_processor@_WV?$string_output_adapter@_W@__crt_stdio_output@@V?$positional_parameter_base@_WV?$string_output_adapter@_W@__crt_stdio_output@@@2@@__crt_stdio_output@@AEAA_NXZ 0000000180046d20 f i libucrt:output.obj
 0001:00045d28       ?state_case_dot@?$output_processor@_WV?$string_output_adapter@_W@__crt_stdio_output@@V?$standard_base@_WV?$string_output_adapter@_W@__crt_stdio_output@@@2@@__crt_stdio_output@@AEAA_NXZ 0000000180046d28 f i libucrt:output.obj
 0001:00045d30       ?state_case_flag@?$output_processor@DV?$stream_output_adapter@D@__crt_stdio_output@@V?$format_validation_base@DV?$stream_output_adapter@D@__crt_stdio_output@@@2@@__crt_stdio_output@@AEAA_NXZ 0000000180046d30 f i libucrt:output.obj
 0001:00045d68       ?state_case_flag@?$output_processor@DV?$stream_output_adapter@D@__crt_stdio_output@@V?$positional_parameter_base@DV?$stream_output_adapter@D@__crt_stdio_output@@@2@@__crt_stdio_output@@AEAA_NXZ 0000000180046d68 f i libucrt:output.obj
 0001:00045da0       ?state_case_flag@?$output_processor@DV?$stream_output_adapter@D@__crt_stdio_output@@V?$standard_base@DV?$stream_output_adapter@D@__crt_stdio_output@@@2@@__crt_stdio_output@@AEAA_NXZ 0000000180046da0 f i libucrt:output.obj
 0001:00045dd8       ?state_case_flag@?$output_processor@DV?$string_output_adapter@D@__crt_stdio_output@@V?$format_validation_base@DV?$string_output_adapter@D@__crt_stdio_output@@@2@@__crt_stdio_output@@AEAA_NXZ 0000000180046dd8 f i libucrt:output.obj
 0001:00045e10       ?state_case_flag@?$output_processor@DV?$string_output_adapter@D@__crt_stdio_output@@V?$positional_parameter_base@DV?$string_output_adapter@D@__crt_stdio_output@@@2@@__crt_stdio_output@@AEAA_NXZ 0000000180046e10 f i libucrt:output.obj
 0001:00045e48       ?state_case_flag@?$output_processor@DV?$string_output_adapter@D@__crt_stdio_output@@V?$standard_base@DV?$string_output_adapter@D@__crt_stdio_output@@@2@@__crt_stdio_output@@AEAA_NXZ 0000000180046e48 f i libucrt:output.obj
 0001:00045e80       ?state_case_flag@?$output_processor@_WV?$stream_output_adapter@_W@__crt_stdio_output@@V?$format_validation_base@_WV?$stream_output_adapter@_W@__crt_stdio_output@@@2@@__crt_stdio_output@@AEAA_NXZ 0000000180046e80 f i libucrt:output.obj
 0001:00045ec4       ?state_case_flag@?$output_processor@_WV?$stream_output_adapter@_W@__crt_stdio_output@@V?$positional_parameter_base@_WV?$stream_output_adapter@_W@__crt_stdio_output@@@2@@__crt_stdio_output@@AEAA_NXZ 0000000180046ec4 f i libucrt:output.obj
 0001:00045f08       ?state_case_flag@?$output_processor@_WV?$stream_output_adapter@_W@__crt_stdio_output@@V?$standard_base@_WV?$stream_output_adapter@_W@__crt_stdio_output@@@2@@__crt_stdio_output@@AEAA_NXZ 0000000180046f08 f i libucrt:output.obj
 0001:00045f4c       ?state_case_flag@?$output_processor@_WV?$string_output_adapter@_W@__crt_stdio_output@@V?$format_validation_base@_WV?$string_output_adapter@_W@__crt_stdio_output@@@2@@__crt_stdio_output@@AEAA_NXZ 0000000180046f4c f i libucrt:output.obj
 0001:00045f90       ?state_case_flag@?$output_processor@_WV?$string_output_adapter@_W@__crt_stdio_output@@V?$positional_parameter_base@_WV?$string_output_adapter@_W@__crt_stdio_output@@@2@@__crt_stdio_output@@AEAA_NXZ 0000000180046f90 f i libucrt:output.obj
 0001:00045fd4       ?state_case_flag@?$output_processor@_WV?$string_output_adapter@_W@__crt_stdio_output@@V?$standard_base@_WV?$string_output_adapter@_W@__crt_stdio_output@@@2@@__crt_stdio_output@@AEAA_NXZ 0000000180046fd4 f i libucrt:output.obj
 0001:00046018       ?state_case_normal@?$output_processor@DV?$stream_output_adapter@D@__crt_stdio_output@@V?$format_validation_base@DV?$stream_output_adapter@D@__crt_stdio_output@@@2@@__crt_stdio_output@@AEAA_NXZ 0000000180047018 f i libucrt:output.obj
 0001:0004616c       ?state_case_normal@?$output_processor@DV?$stream_output_adapter@D@__crt_stdio_output@@V?$positional_parameter_base@DV?$stream_output_adapter@D@__crt_stdio_output@@@2@@__crt_stdio_output@@AEAA_NXZ 000000018004716c f i libucrt:output.obj
 0001:000462ec       ?state_case_normal@?$output_processor@DV?$stream_output_adapter@D@__crt_stdio_output@@V?$standard_base@DV?$stream_output_adapter@D@__crt_stdio_output@@@2@@__crt_stdio_output@@AEAA_NXZ 00000001800472ec f i libucrt:output.obj
 0001:00046440       ?state_case_normal@?$output_processor@DV?$string_output_adapter@D@__crt_stdio_output@@V?$format_validation_base@DV?$string_output_adapter@D@__crt_stdio_output@@@2@@__crt_stdio_output@@AEAA_NXZ 0000000180047440 f i libucrt:output.obj
 0001:0004658c       ?state_case_normal@?$output_processor@DV?$string_output_adapter@D@__crt_stdio_output@@V?$positional_parameter_base@DV?$string_output_adapter@D@__crt_stdio_output@@@2@@__crt_stdio_output@@AEAA_NXZ 000000018004758c f i libucrt:output.obj
 0001:00046704       ?state_case_normal@?$output_processor@DV?$string_output_adapter@D@__crt_stdio_output@@V?$standard_base@DV?$string_output_adapter@D@__crt_stdio_output@@@2@@__crt_stdio_output@@AEAA_NXZ 0000000180047704 f i libucrt:output.obj
 0001:00046850       ?state_case_normal@?$output_processor@_WV?$stream_output_adapter@_W@__crt_stdio_output@@V?$format_validation_base@_WV?$stream_output_adapter@_W@__crt_stdio_output@@@2@@__crt_stdio_output@@AEAA_NXZ 0000000180047850 f i libucrt:output.obj
 0001:000468b0       ?state_case_normal@?$output_processor@_WV?$stream_output_adapter@_W@__crt_stdio_output@@V?$positional_parameter_base@_WV?$stream_output_adapter@_W@__crt_stdio_output@@@2@@__crt_stdio_output@@AEAA_NXZ 00000001800478b0 f i libucrt:output.obj
 0001:00046934       ?state_case_normal@?$output_processor@_WV?$stream_output_adapter@_W@__crt_stdio_output@@V?$standard_base@_WV?$stream_output_adapter@_W@__crt_stdio_output@@@2@@__crt_stdio_output@@AEAA_NXZ 0000000180047934 f i libucrt:output.obj
 0001:00046994       ?state_case_normal@?$output_processor@_WV?$string_output_adapter@_W@__crt_stdio_output@@V?$format_validation_base@_WV?$string_output_adapter@_W@__crt_stdio_output@@@2@@__crt_stdio_output@@AEAA_NXZ 0000000180047994 f i libucrt:output.obj
 0001:000469e8       ?state_case_normal@?$output_processor@_WV?$string_output_adapter@_W@__crt_stdio_output@@V?$positional_parameter_base@_WV?$string_output_adapter@_W@__crt_stdio_output@@@2@@__crt_stdio_output@@AEAA_NXZ 00000001800479e8 f i libucrt:output.obj
 0001:00046a60       ?state_case_normal@?$output_processor@_WV?$string_output_adapter@_W@__crt_stdio_output@@V?$standard_base@_WV?$string_output_adapter@_W@__crt_stdio_output@@@2@@__crt_stdio_output@@AEAA_NXZ 0000000180047a60 f i libucrt:output.obj
 0001:00046ab4       ?state_case_normal_common@?$output_processor@DV?$stream_output_adapter@D@__crt_stdio_output@@V?$format_validation_base@DV?$stream_output_adapter@D@__crt_stdio_output@@@2@@__crt_stdio_output@@AEAA_NXZ 0000000180047ab4 f i libucrt:output.obj
 0001:00046be0       ?state_case_normal_common@?$output_processor@DV?$stream_output_adapter@D@__crt_stdio_output@@V?$positional_parameter_base@DV?$stream_output_adapter@D@__crt_stdio_output@@@2@@__crt_stdio_output@@AEAA_NXZ 0000000180047be0 f i libucrt:output.obj
 0001:00046d0c       ?state_case_normal_common@?$output_processor@DV?$stream_output_adapter@D@__crt_stdio_output@@V?$standard_base@DV?$stream_output_adapter@D@__crt_stdio_output@@@2@@__crt_stdio_output@@AEAA_NXZ 0000000180047d0c f i libucrt:output.obj
 0001:00046e38       ?state_case_normal_common@?$output_processor@DV?$string_output_adapter@D@__crt_stdio_output@@V?$format_validation_base@DV?$string_output_adapter@D@__crt_stdio_output@@@2@@__crt_stdio_output@@AEAA_NXZ 0000000180047e38 f i libucrt:output.obj
 0001:00046f5c       ?state_case_normal_common@?$output_processor@DV?$string_output_adapter@D@__crt_stdio_output@@V?$positional_parameter_base@DV?$string_output_adapter@D@__crt_stdio_output@@@2@@__crt_stdio_output@@AEAA_NXZ 0000000180047f5c f i libucrt:output.obj
 0001:00047080       ?state_case_normal_common@?$output_processor@DV?$string_output_adapter@D@__crt_stdio_output@@V?$standard_base@DV?$string_output_adapter@D@__crt_stdio_output@@@2@@__crt_stdio_output@@AEAA_NXZ 0000000180048080 f i libucrt:output.obj
 0001:000471a4       ?state_case_normal_common@?$output_processor@_WV?$stream_output_adapter@_W@__crt_stdio_output@@V?$format_validation_base@_WV?$stream_output_adapter@_W@__crt_stdio_output@@@2@@__crt_stdio_output@@AEAA_NXZ 00000001800481a4 f i libucrt:output.obj
 0001:00047204       ?state_case_normal_common@?$output_processor@_WV?$stream_output_adapter@_W@__crt_stdio_output@@V?$positional_parameter_base@_WV?$stream_output_adapter@_W@__crt_stdio_output@@@2@@__crt_stdio_output@@AEAA_NXZ 0000000180048204 f i libucrt:output.obj
 0001:00047264       ?state_case_normal_common@?$output_processor@_WV?$stream_output_adapter@_W@__crt_stdio_output@@V?$standard_base@_WV?$stream_output_adapter@_W@__crt_stdio_output@@@2@@__crt_stdio_output@@AEAA_NXZ 0000000180048264 f i libucrt:output.obj
 0001:000472c4       ?state_case_normal_common@?$output_processor@_WV?$string_output_adapter@_W@__crt_stdio_output@@V?$format_validation_base@_WV?$string_output_adapter@_W@__crt_stdio_output@@@2@@__crt_stdio_output@@AEAA_NXZ 00000001800482c4 f i libucrt:output.obj
 0001:00047318       ?state_case_normal_common@?$output_processor@_WV?$string_output_adapter@_W@__crt_stdio_output@@V?$positional_parameter_base@_WV?$string_output_adapter@_W@__crt_stdio_output@@@2@@__crt_stdio_output@@AEAA_NXZ 0000000180048318 f i libucrt:output.obj
 0001:0004736c       ?state_case_normal_common@?$output_processor@_WV?$string_output_adapter@_W@__crt_stdio_output@@V?$standard_base@_WV?$string_output_adapter@_W@__crt_stdio_output@@@2@@__crt_stdio_output@@AEAA_NXZ 000000018004836c f i libucrt:output.obj
 0001:000473c0       ?state_case_normal_tchar@?$output_processor@DV?$stream_output_adapter@D@__crt_stdio_output@@V?$format_validation_base@DV?$stream_output_adapter@D@__crt_stdio_output@@@2@@__crt_stdio_output@@AEAA_ND@Z 00000001800483c0 f i libucrt:output.obj
 0001:000474a0       ?state_case_normal_tchar@?$output_processor@DV?$stream_output_adapter@D@__crt_stdio_output@@V?$positional_parameter_base@DV?$stream_output_adapter@D@__crt_stdio_output@@@2@@__crt_stdio_output@@AEAA_ND@Z 00000001800484a0 f i libucrt:output.obj
 0001:00047580       ?state_case_normal_tchar@?$output_processor@DV?$stream_output_adapter@D@__crt_stdio_output@@V?$standard_base@DV?$stream_output_adapter@D@__crt_stdio_output@@@2@@__crt_stdio_output@@AEAA_ND@Z 0000000180048580 f i libucrt:output.obj
 0001:00047660       ?state_case_normal_tchar@?$output_processor@DV?$string_output_adapter@D@__crt_stdio_output@@V?$format_validation_base@DV?$string_output_adapter@D@__crt_stdio_output@@@2@@__crt_stdio_output@@AEAA_ND@Z 0000000180048660 f i libucrt:output.obj
 0001:0004773c       ?state_case_normal_tchar@?$output_processor@DV?$string_output_adapter@D@__crt_stdio_output@@V?$positional_parameter_base@DV?$string_output_adapter@D@__crt_stdio_output@@@2@@__crt_stdio_output@@AEAA_ND@Z 000000018004873c f i libucrt:output.obj
 0001:00047818       ?state_case_normal_tchar@?$output_processor@DV?$string_output_adapter@D@__crt_stdio_output@@V?$standard_base@DV?$string_output_adapter@D@__crt_stdio_output@@@2@@__crt_stdio_output@@AEAA_ND@Z 0000000180048818 f i libucrt:output.obj
 0001:000478f4       ?state_case_normal_tchar@?$output_processor@_WV?$stream_output_adapter@_W@__crt_stdio_output@@V?$format_validation_base@_WV?$stream_output_adapter@_W@__crt_stdio_output@@@2@@__crt_stdio_output@@AEAA_N_W@Z 00000001800488f4 f i libucrt:output.obj
 0001:000478fc       ?state_case_normal_tchar@?$output_processor@_WV?$stream_output_adapter@_W@__crt_stdio_output@@V?$positional_parameter_base@_WV?$stream_output_adapter@_W@__crt_stdio_output@@@2@@__crt_stdio_output@@AEAA_N_W@Z 00000001800488fc f i libucrt:output.obj
 0001:00047904       ?state_case_normal_tchar@?$output_processor@_WV?$stream_output_adapter@_W@__crt_stdio_output@@V?$standard_base@_WV?$stream_output_adapter@_W@__crt_stdio_output@@@2@@__crt_stdio_output@@AEAA_N_W@Z 0000000180048904 f i libucrt:output.obj
 0001:0004790c       ?state_case_normal_tchar@?$output_processor@_WV?$string_output_adapter@_W@__crt_stdio_output@@V?$format_validation_base@_WV?$string_output_adapter@_W@__crt_stdio_output@@@2@@__crt_stdio_output@@AEAA_N_W@Z 000000018004890c f i libucrt:output.obj
 0001:00047914       ?state_case_normal_tchar@?$output_processor@_WV?$string_output_adapter@_W@__crt_stdio_output@@V?$positional_parameter_base@_WV?$string_output_adapter@_W@__crt_stdio_output@@@2@@__crt_stdio_output@@AEAA_N_W@Z 0000000180048914 f i libucrt:output.obj
 0001:0004791c       ?state_case_normal_tchar@?$output_processor@_WV?$string_output_adapter@_W@__crt_stdio_output@@V?$standard_base@_WV?$string_output_adapter@_W@__crt_stdio_output@@@2@@__crt_stdio_output@@AEAA_N_W@Z 000000018004891c f i libucrt:output.obj
 0001:00047924       ?state_case_percent@?$output_processor@DV?$stream_output_adapter@D@__crt_stdio_output@@V?$format_validation_base@DV?$stream_output_adapter@D@__crt_stdio_output@@@2@@__crt_stdio_output@@AEAA_NXZ 0000000180048924 f i libucrt:output.obj
 0001:0004793c       ?state_case_percent@?$output_processor@DV?$stream_output_adapter@D@__crt_stdio_output@@V?$positional_parameter_base@DV?$stream_output_adapter@D@__crt_stdio_output@@@2@@__crt_stdio_output@@AEAA_NXZ 000000018004893c f i libucrt:output.obj
 0001:00047954       ?state_case_percent@?$output_processor@DV?$stream_output_adapter@D@__crt_stdio_output@@V?$standard_base@DV?$stream_output_adapter@D@__crt_stdio_output@@@2@@__crt_stdio_output@@AEAA_NXZ 0000000180048954 f i libucrt:output.obj
 0001:0004796c       ?state_case_percent@?$output_processor@DV?$string_output_adapter@D@__crt_stdio_output@@V?$format_validation_base@DV?$string_output_adapter@D@__crt_stdio_output@@@2@@__crt_stdio_output@@AEAA_NXZ 000000018004896c f i libucrt:output.obj
 0001:00047984       ?state_case_percent@?$output_processor@DV?$string_output_adapter@D@__crt_stdio_output@@V?$positional_parameter_base@DV?$string_output_adapter@D@__crt_stdio_output@@@2@@__crt_stdio_output@@AEAA_NXZ 0000000180048984 f i libucrt:output.obj
 0001:0004799c       ?state_case_percent@?$output_processor@DV?$string_output_adapter@D@__crt_stdio_output@@V?$standard_base@DV?$string_output_adapter@D@__crt_stdio_output@@@2@@__crt_stdio_output@@AEAA_NXZ 000000018004899c f i libucrt:output.obj
 0001:000479b4       ?state_case_percent@?$output_processor@_WV?$stream_output_adapter@_W@__crt_stdio_output@@V?$format_validation_base@_WV?$stream_output_adapter@_W@__crt_stdio_output@@@2@@__crt_stdio_output@@AEAA_NXZ 00000001800489b4 f i libucrt:output.obj
 0001:000479cc       ?state_case_percent@?$output_processor@_WV?$stream_output_adapter@_W@__crt_stdio_output@@V?$positional_parameter_base@_WV?$stream_output_adapter@_W@__crt_stdio_output@@@2@@__crt_stdio_output@@AEAA_NXZ 00000001800489cc f i libucrt:output.obj
 0001:000479e4       ?state_case_percent@?$output_processor@_WV?$stream_output_adapter@_W@__crt_stdio_output@@V?$standard_base@_WV?$stream_output_adapter@_W@__crt_stdio_output@@@2@@__crt_stdio_output@@AEAA_NXZ 00000001800489e4 f i libucrt:output.obj
 0001:000479fc       ?state_case_percent@?$output_processor@_WV?$string_output_adapter@_W@__crt_stdio_output@@V?$format_validation_base@_WV?$string_output_adapter@_W@__crt_stdio_output@@@2@@__crt_stdio_output@@AEAA_NXZ 00000001800489fc f i libucrt:output.obj
 0001:00047a14       ?state_case_percent@?$output_processor@_WV?$string_output_adapter@_W@__crt_stdio_output@@V?$positional_parameter_base@_WV?$string_output_adapter@_W@__crt_stdio_output@@@2@@__crt_stdio_output@@AEAA_NXZ 0000000180048a14 f i libucrt:output.obj
 0001:00047a2c       ?state_case_percent@?$output_processor@_WV?$string_output_adapter@_W@__crt_stdio_output@@V?$standard_base@_WV?$string_output_adapter@_W@__crt_stdio_output@@@2@@__crt_stdio_output@@AEAA_NXZ 0000000180048a2c f i libucrt:output.obj
 0001:00047a44       ?state_case_precision@?$output_processor@DV?$stream_output_adapter@D@__crt_stdio_output@@V?$format_validation_base@DV?$stream_output_adapter@D@__crt_stdio_output@@@2@@__crt_stdio_output@@AEAA_NXZ 0000000180048a44 f i libucrt:output.obj
 0001:00047a74       ?state_case_precision@?$output_processor@DV?$stream_output_adapter@D@__crt_stdio_output@@V?$positional_parameter_base@DV?$stream_output_adapter@D@__crt_stdio_output@@@2@@__crt_stdio_output@@AEAA_NXZ 0000000180048a74 f i libucrt:output.obj
 0001:00047ac0       ?state_case_precision@?$output_processor@DV?$stream_output_adapter@D@__crt_stdio_output@@V?$standard_base@DV?$stream_output_adapter@D@__crt_stdio_output@@@2@@__crt_stdio_output@@AEAA_NXZ 0000000180048ac0 f i libucrt:output.obj
 0001:00047af0       ?state_case_precision@?$output_processor@DV?$string_output_adapter@D@__crt_stdio_output@@V?$format_validation_base@DV?$string_output_adapter@D@__crt_stdio_output@@@2@@__crt_stdio_output@@AEAA_NXZ 0000000180048af0 f i libucrt:output.obj
 0001:00047b20       ?state_case_precision@?$output_processor@DV?$string_output_adapter@D@__crt_stdio_output@@V?$positional_parameter_base@DV?$string_output_adapter@D@__crt_stdio_output@@@2@@__crt_stdio_output@@AEAA_NXZ 0000000180048b20 f i libucrt:output.obj
 0001:00047b6c       ?state_case_precision@?$output_processor@DV?$string_output_adapter@D@__crt_stdio_output@@V?$standard_base@DV?$string_output_adapter@D@__crt_stdio_output@@@2@@__crt_stdio_output@@AEAA_NXZ 0000000180048b6c f i libucrt:output.obj
 0001:00047b9c       ?state_case_precision@?$output_processor@_WV?$stream_output_adapter@_W@__crt_stdio_output@@V?$format_validation_base@_WV?$stream_output_adapter@_W@__crt_stdio_output@@@2@@__crt_stdio_output@@AEAA_NXZ 0000000180048b9c f i libucrt:output.obj
 0001:00047bd0       ?state_case_precision@?$output_processor@_WV?$stream_output_adapter@_W@__crt_stdio_output@@V?$positional_parameter_base@_WV?$stream_output_adapter@_W@__crt_stdio_output@@@2@@__crt_stdio_output@@AEAA_NXZ 0000000180048bd0 f i libucrt:output.obj
 0001:00047c1c       ?state_case_precision@?$output_processor@_WV?$stream_output_adapter@_W@__crt_stdio_output@@V?$standard_base@_WV?$stream_output_adapter@_W@__crt_stdio_output@@@2@@__crt_stdio_output@@AEAA_NXZ 0000000180048c1c f i libucrt:output.obj
 0001:00047c50       ?state_case_precision@?$output_processor@_WV?$string_output_adapter@_W@__crt_stdio_output@@V?$format_validation_base@_WV?$string_output_adapter@_W@__crt_stdio_output@@@2@@__crt_stdio_output@@AEAA_NXZ 0000000180048c50 f i libucrt:output.obj
 0001:00047c84       ?state_case_precision@?$output_processor@_WV?$string_output_adapter@_W@__crt_stdio_output@@V?$positional_parameter_base@_WV?$string_output_adapter@_W@__crt_stdio_output@@@2@@__crt_stdio_output@@AEAA_NXZ 0000000180048c84 f i libucrt:output.obj
 0001:00047cd0       ?state_case_precision@?$output_processor@_WV?$string_output_adapter@_W@__crt_stdio_output@@V?$standard_base@_WV?$string_output_adapter@_W@__crt_stdio_output@@@2@@__crt_stdio_output@@AEAA_NXZ 0000000180048cd0 f i libucrt:output.obj
 0001:00047d04       ?state_case_size@?$output_processor@DV?$stream_output_adapter@D@__crt_stdio_output@@V?$format_validation_base@DV?$stream_output_adapter@D@__crt_stdio_output@@@2@@__crt_stdio_output@@AEAA_NXZ 0000000180048d04 f i libucrt:output.obj
 0001:00047e8c       ?state_case_size@?$output_processor@DV?$stream_output_adapter@D@__crt_stdio_output@@V?$positional_parameter_base@DV?$stream_output_adapter@D@__crt_stdio_output@@@2@@__crt_stdio_output@@AEAA_NXZ 0000000180048e8c f i libucrt:output.obj
 0001:00048014       ?state_case_size@?$output_processor@DV?$stream_output_adapter@D@__crt_stdio_output@@V?$standard_base@DV?$stream_output_adapter@D@__crt_stdio_output@@@2@@__crt_stdio_output@@AEAA_NXZ 0000000180049014 f i libucrt:output.obj
 0001:0004819c       ?state_case_size@?$output_processor@DV?$string_output_adapter@D@__crt_stdio_output@@V?$format_validation_base@DV?$string_output_adapter@D@__crt_stdio_output@@@2@@__crt_stdio_output@@AEAA_NXZ 000000018004919c f i libucrt:output.obj
 0001:00048324       ?state_case_size@?$output_processor@DV?$string_output_adapter@D@__crt_stdio_output@@V?$positional_parameter_base@DV?$string_output_adapter@D@__crt_stdio_output@@@2@@__crt_stdio_output@@AEAA_NXZ 0000000180049324 f i libucrt:output.obj
 0001:000484ac       ?state_case_size@?$output_processor@DV?$string_output_adapter@D@__crt_stdio_output@@V?$standard_base@DV?$string_output_adapter@D@__crt_stdio_output@@@2@@__crt_stdio_output@@AEAA_NXZ 00000001800494ac f i libucrt:output.obj
 0001:00048634       ?state_case_size@?$output_processor@_WV?$stream_output_adapter@_W@__crt_stdio_output@@V?$format_validation_base@_WV?$stream_output_adapter@_W@__crt_stdio_output@@@2@@__crt_stdio_output@@AEAA_NXZ 0000000180049634 f i libucrt:output.obj
 0001:000487e4       ?state_case_size@?$output_processor@_WV?$stream_output_adapter@_W@__crt_stdio_output@@V?$positional_parameter_base@_WV?$stream_output_adapter@_W@__crt_stdio_output@@@2@@__crt_stdio_output@@AEAA_NXZ 00000001800497e4 f i libucrt:output.obj
 0001:00048994       ?state_case_size@?$output_processor@_WV?$stream_output_adapter@_W@__crt_stdio_output@@V?$standard_base@_WV?$stream_output_adapter@_W@__crt_stdio_output@@@2@@__crt_stdio_output@@AEAA_NXZ 0000000180049994 f i libucrt:output.obj
 0001:00048b44       ?state_case_size@?$output_processor@_WV?$string_output_adapter@_W@__crt_stdio_output@@V?$format_validation_base@_WV?$string_output_adapter@_W@__crt_stdio_output@@@2@@__crt_stdio_output@@AEAA_NXZ 0000000180049b44 f i libucrt:output.obj
 0001:00048cf4       ?state_case_size@?$output_processor@_WV?$string_output_adapter@_W@__crt_stdio_output@@V?$positional_parameter_base@_WV?$string_output_adapter@_W@__crt_stdio_output@@@2@@__crt_stdio_output@@AEAA_NXZ 0000000180049cf4 f i libucrt:output.obj
 0001:00048ea4       ?state_case_size@?$output_processor@_WV?$string_output_adapter@_W@__crt_stdio_output@@V?$standard_base@_WV?$string_output_adapter@_W@__crt_stdio_output@@@2@@__crt_stdio_output@@AEAA_NXZ 0000000180049ea4 f i libucrt:output.obj
 0001:00049054       ?state_case_type@?$output_processor@DV?$stream_output_adapter@D@__crt_stdio_output@@V?$format_validation_base@DV?$stream_output_adapter@D@__crt_stdio_output@@@2@@__crt_stdio_output@@AEAA_NXZ 000000018004a054 f i libucrt:output.obj
 0001:0004948c       ?state_case_type@?$output_processor@DV?$stream_output_adapter@D@__crt_stdio_output@@V?$positional_parameter_base@DV?$stream_output_adapter@D@__crt_stdio_output@@@2@@__crt_stdio_output@@AEAA_NXZ 000000018004a48c f i libucrt:output.obj
 0001:000498f4       ?state_case_type@?$output_processor@DV?$stream_output_adapter@D@__crt_stdio_output@@V?$standard_base@DV?$stream_output_adapter@D@__crt_stdio_output@@@2@@__crt_stdio_output@@AEAA_NXZ 000000018004a8f4 f i libucrt:output.obj
 0001:00049d2c       ?state_case_type@?$output_processor@DV?$string_output_adapter@D@__crt_stdio_output@@V?$format_validation_base@DV?$string_output_adapter@D@__crt_stdio_output@@@2@@__crt_stdio_output@@AEAA_NXZ 000000018004ad2c f i libucrt:output.obj
 0001:0004a130       ?state_case_type@?$output_processor@DV?$string_output_adapter@D@__crt_stdio_output@@V?$positional_parameter_base@DV?$string_output_adapter@D@__crt_stdio_output@@@2@@__crt_stdio_output@@AEAA_NXZ 000000018004b130 f i libucrt:output.obj
 0001:0004a548       ?state_case_type@?$output_processor@DV?$string_output_adapter@D@__crt_stdio_output@@V?$standard_base@DV?$string_output_adapter@D@__crt_stdio_output@@@2@@__crt_stdio_output@@AEAA_NXZ 000000018004b548 f i libucrt:output.obj
 0001:0004a94c       ?state_case_type@?$output_processor@_WV?$stream_output_adapter@_W@__crt_stdio_output@@V?$format_validation_base@_WV?$stream_output_adapter@_W@__crt_stdio_output@@@2@@__crt_stdio_output@@AEAA_NXZ 000000018004b94c f i libucrt:output.obj
 0001:0004ae10       ?state_case_type@?$output_processor@_WV?$stream_output_adapter@_W@__crt_stdio_output@@V?$positional_parameter_base@_WV?$stream_output_adapter@_W@__crt_stdio_output@@@2@@__crt_stdio_output@@AEAA_NXZ 000000018004be10 f i libucrt:output.obj
 0001:0004b2ec       ?state_case_type@?$output_processor@_WV?$stream_output_adapter@_W@__crt_stdio_output@@V?$standard_base@_WV?$stream_output_adapter@_W@__crt_stdio_output@@@2@@__crt_stdio_output@@AEAA_NXZ 000000018004c2ec f i libucrt:output.obj
 0001:0004b7b0       ?state_case_type@?$output_processor@_WV?$string_output_adapter@_W@__crt_stdio_output@@V?$format_validation_base@_WV?$string_output_adapter@_W@__crt_stdio_output@@@2@@__crt_stdio_output@@AEAA_NXZ 000000018004c7b0 f i libucrt:output.obj
 0001:0004bc14       ?state_case_type@?$output_processor@_WV?$string_output_adapter@_W@__crt_stdio_output@@V?$positional_parameter_base@_WV?$string_output_adapter@_W@__crt_stdio_output@@@2@@__crt_stdio_output@@AEAA_NXZ 000000018004cc14 f i libucrt:output.obj
 0001:0004c0a4       ?state_case_type@?$output_processor@_WV?$string_output_adapter@_W@__crt_stdio_output@@V?$standard_base@_WV?$string_output_adapter@_W@__crt_stdio_output@@@2@@__crt_stdio_output@@AEAA_NXZ 000000018004d0a4 f i libucrt:output.obj
 0001:0004c508       ?state_case_width@?$output_processor@DV?$stream_output_adapter@D@__crt_stdio_output@@V?$format_validation_base@DV?$stream_output_adapter@D@__crt_stdio_output@@@2@@__crt_stdio_output@@AEAA_NXZ 000000018004d508 f i libucrt:output.obj
 0001:0004c53c       ?state_case_width@?$output_processor@DV?$stream_output_adapter@D@__crt_stdio_output@@V?$positional_parameter_base@DV?$stream_output_adapter@D@__crt_stdio_output@@@2@@__crt_stdio_output@@AEAA_NXZ 000000018004d53c f i libucrt:output.obj
 0001:0004c58c       ?state_case_width@?$output_processor@DV?$stream_output_adapter@D@__crt_stdio_output@@V?$standard_base@DV?$stream_output_adapter@D@__crt_stdio_output@@@2@@__crt_stdio_output@@AEAA_NXZ 000000018004d58c f i libucrt:output.obj
 0001:0004c5c0       ?state_case_width@?$output_processor@DV?$string_output_adapter@D@__crt_stdio_output@@V?$format_validation_base@DV?$string_output_adapter@D@__crt_stdio_output@@@2@@__crt_stdio_output@@AEAA_NXZ 000000018004d5c0 f i libucrt:output.obj
 0001:0004c5f4       ?state_case_width@?$output_processor@DV?$string_output_adapter@D@__crt_stdio_output@@V?$positional_parameter_base@DV?$string_output_adapter@D@__crt_stdio_output@@@2@@__crt_stdio_output@@AEAA_NXZ 000000018004d5f4 f i libucrt:output.obj
 0001:0004c644       ?state_case_width@?$output_processor@DV?$string_output_adapter@D@__crt_stdio_output@@V?$standard_base@DV?$string_output_adapter@D@__crt_stdio_output@@@2@@__crt_stdio_output@@AEAA_NXZ 000000018004d644 f i libucrt:output.obj
 0001:0004c678       ?state_case_width@?$output_processor@_WV?$stream_output_adapter@_W@__crt_stdio_output@@V?$format_validation_base@_WV?$stream_output_adapter@_W@__crt_stdio_output@@@2@@__crt_stdio_output@@AEAA_NXZ 000000018004d678 f i libucrt:output.obj
 0001:0004c6ac       ?state_case_width@?$output_processor@_WV?$stream_output_adapter@_W@__crt_stdio_output@@V?$positional_parameter_base@_WV?$stream_output_adapter@_W@__crt_stdio_output@@@2@@__crt_stdio_output@@AEAA_NXZ 000000018004d6ac f i libucrt:output.obj
 0001:0004c700       ?state_case_width@?$output_processor@_WV?$stream_output_adapter@_W@__crt_stdio_output@@V?$standard_base@_WV?$stream_output_adapter@_W@__crt_stdio_output@@@2@@__crt_stdio_output@@AEAA_NXZ 000000018004d700 f i libucrt:output.obj
 0001:0004c734       ?state_case_width@?$output_processor@_WV?$string_output_adapter@_W@__crt_stdio_output@@V?$format_validation_base@_WV?$string_output_adapter@_W@__crt_stdio_output@@@2@@__crt_stdio_output@@AEAA_NXZ 000000018004d734 f i libucrt:output.obj
 0001:0004c768       ?state_case_width@?$output_processor@_WV?$string_output_adapter@_W@__crt_stdio_output@@V?$positional_parameter_base@_WV?$string_output_adapter@_W@__crt_stdio_output@@@2@@__crt_stdio_output@@AEAA_NXZ 000000018004d768 f i libucrt:output.obj
 0001:0004c7bc       ?state_case_width@?$output_processor@_WV?$string_output_adapter@_W@__crt_stdio_output@@V?$standard_base@_WV?$string_output_adapter@_W@__crt_stdio_output@@@2@@__crt_stdio_output@@AEAA_NXZ 000000018004d7bc f i libucrt:output.obj
 0001:0004c7f0       ?state_count@?$format_validation_base@DV?$stream_output_adapter@D@__crt_stdio_output@@@__crt_stdio_output@@KAIXZ 000000018004d7f0 f i libucrt:output.obj
 0001:0004c7f8       ?state_count@?$format_validation_base@DV?$string_output_adapter@D@__crt_stdio_output@@@__crt_stdio_output@@KAIXZ 000000018004d7f8 f i libucrt:output.obj
 0001:0004c800       ?state_count@?$format_validation_base@_WV?$stream_output_adapter@_W@__crt_stdio_output@@@__crt_stdio_output@@KAIXZ 000000018004d800 f i libucrt:output.obj
 0001:0004c808       ?state_count@?$format_validation_base@_WV?$string_output_adapter@_W@__crt_stdio_output@@@__crt_stdio_output@@KAIXZ 000000018004d808 f i libucrt:output.obj
 0001:0004c810       ?state_count@?$standard_base@DV?$stream_output_adapter@D@__crt_stdio_output@@@__crt_stdio_output@@KAIXZ 000000018004d810 f i libucrt:output.obj
 0001:0004c818       ?state_count@?$standard_base@DV?$string_output_adapter@D@__crt_stdio_output@@@__crt_stdio_output@@KAIXZ 000000018004d818 f i libucrt:output.obj
 0001:0004c820       ?state_count@?$standard_base@_WV?$stream_output_adapter@_W@__crt_stdio_output@@@__crt_stdio_output@@KAIXZ 000000018004d820 f i libucrt:output.obj
 0001:0004c828       ?state_count@?$standard_base@_WV?$string_output_adapter@_W@__crt_stdio_output@@@__crt_stdio_output@@KAIXZ 000000018004d828 f i libucrt:output.obj
 0001:0004c830       ?state_transition_table@?$format_validation_base@DV?$stream_output_adapter@D@__crt_stdio_output@@@__crt_stdio_output@@KAAEBV?$spectre_mitigated_lookup_table@Ustate_transition_pair@__crt_stdio_output@@$0IA@@2@XZ 000000018004d830 f i libucrt:output.obj
 0001:0004c838       ?state_transition_table@?$format_validation_base@DV?$string_output_adapter@D@__crt_stdio_output@@@__crt_stdio_output@@KAAEBV?$spectre_mitigated_lookup_table@Ustate_transition_pair@__crt_stdio_output@@$0IA@@2@XZ 000000018004d838 f i libucrt:output.obj
 0001:0004c840       ?state_transition_table@?$format_validation_base@_WV?$stream_output_adapter@_W@__crt_stdio_output@@@__crt_stdio_output@@KAAEBV?$spectre_mitigated_lookup_table@Ustate_transition_pair@__crt_stdio_output@@$0IA@@2@XZ 000000018004d840 f i libucrt:output.obj
 0001:0004c848       ?state_transition_table@?$format_validation_base@_WV?$string_output_adapter@_W@__crt_stdio_output@@@__crt_stdio_output@@KAAEBV?$spectre_mitigated_lookup_table@Ustate_transition_pair@__crt_stdio_output@@$0IA@@2@XZ 000000018004d848 f i libucrt:output.obj
 0001:0004c850       ?state_transition_table@?$standard_base@DV?$stream_output_adapter@D@__crt_stdio_output@@@__crt_stdio_output@@KAAEBV?$spectre_mitigated_lookup_table@Ustate_transition_pair@__crt_stdio_output@@$0IA@@2@XZ 000000018004d850 f i libucrt:output.obj
 0001:0004c858       ?state_transition_table@?$standard_base@DV?$string_output_adapter@D@__crt_stdio_output@@@__crt_stdio_output@@KAAEBV?$spectre_mitigated_lookup_table@Ustate_transition_pair@__crt_stdio_output@@$0IA@@2@XZ 000000018004d858 f i libucrt:output.obj
 0001:0004c860       ?state_transition_table@?$standard_base@_WV?$stream_output_adapter@_W@__crt_stdio_output@@@__crt_stdio_output@@KAAEBV?$spectre_mitigated_lookup_table@Ustate_transition_pair@__crt_stdio_output@@$0IA@@2@XZ 000000018004d860 f i libucrt:output.obj
 0001:0004c868       ?state_transition_table@?$standard_base@_WV?$string_output_adapter@_W@__crt_stdio_output@@@__crt_stdio_output@@KAAEBV?$spectre_mitigated_lookup_table@Ustate_transition_pair@__crt_stdio_output@@$0IA@@2@XZ 000000018004d868 f i libucrt:output.obj
 0001:0004c870       ?tchar_string@?$common_data@D@__crt_stdio_output@@IEAAAEAPEADD@Z 000000018004d870 f i libucrt:output.obj
 0001:0004c878       ?tchar_string@?$common_data@D@__crt_stdio_output@@IEAAAEAPEADXZ 000000018004d878 f i libucrt:output.obj
 0001:0004c880       ?tchar_string@?$common_data@_W@__crt_stdio_output@@IEAAAEAPEA_WXZ 000000018004d880 f i libucrt:output.obj
 0001:0004c888       ?tchar_string@?$common_data@_W@__crt_stdio_output@@IEAAAEAPEA_W_W@Z 000000018004d888 f i libucrt:output.obj
 0001:0004c890       ?to_integer_size@__crt_stdio_output@@YA_KW4length_modifier@1@@Z 000000018004d890 f i libucrt:output.obj
 0001:0004c8d8       ?type_case_X@?$output_processor@DV?$stream_output_adapter@D@__crt_stdio_output@@V?$format_validation_base@DV?$stream_output_adapter@D@__crt_stdio_output@@@2@@__crt_stdio_output@@AEAA_NXZ 000000018004d8d8 f i libucrt:output.obj
 0001:0004c8e0       ?type_case_X@?$output_processor@DV?$stream_output_adapter@D@__crt_stdio_output@@V?$positional_parameter_base@DV?$stream_output_adapter@D@__crt_stdio_output@@@2@@__crt_stdio_output@@AEAA_NXZ 000000018004d8e0 f i libucrt:output.obj
 0001:0004c8e8       ?type_case_X@?$output_processor@DV?$stream_output_adapter@D@__crt_stdio_output@@V?$standard_base@DV?$stream_output_adapter@D@__crt_stdio_output@@@2@@__crt_stdio_output@@AEAA_NXZ 000000018004d8e8 f i libucrt:output.obj
 0001:0004c8f0       ?type_case_X@?$output_processor@DV?$string_output_adapter@D@__crt_stdio_output@@V?$format_validation_base@DV?$string_output_adapter@D@__crt_stdio_output@@@2@@__crt_stdio_output@@AEAA_NXZ 000000018004d8f0 f i libucrt:output.obj
 0001:0004c8f8       ?type_case_X@?$output_processor@DV?$string_output_adapter@D@__crt_stdio_output@@V?$positional_parameter_base@DV?$string_output_adapter@D@__crt_stdio_output@@@2@@__crt_stdio_output@@AEAA_NXZ 000000018004d8f8 f i libucrt:output.obj
 0001:0004c900       ?type_case_X@?$output_processor@DV?$string_output_adapter@D@__crt_stdio_output@@V?$standard_base@DV?$string_output_adapter@D@__crt_stdio_output@@@2@@__crt_stdio_output@@AEAA_NXZ 000000018004d900 f i libucrt:output.obj
 0001:0004c908       ?type_case_X@?$output_processor@_WV?$stream_output_adapter@_W@__crt_stdio_output@@V?$format_validation_base@_WV?$stream_output_adapter@_W@__crt_stdio_output@@@2@@__crt_stdio_output@@AEAA_NXZ 000000018004d908 f i libucrt:output.obj
 0001:0004c910       ?type_case_X@?$output_processor@_WV?$stream_output_adapter@_W@__crt_stdio_output@@V?$positional_parameter_base@_WV?$stream_output_adapter@_W@__crt_stdio_output@@@2@@__crt_stdio_output@@AEAA_NXZ 000000018004d910 f i libucrt:output.obj
 0001:0004c918       ?type_case_X@?$output_processor@_WV?$stream_output_adapter@_W@__crt_stdio_output@@V?$standard_base@_WV?$stream_output_adapter@_W@__crt_stdio_output@@@2@@__crt_stdio_output@@AEAA_NXZ 000000018004d918 f i libucrt:output.obj
 0001:0004c920       ?type_case_X@?$output_processor@_WV?$string_output_adapter@_W@__crt_stdio_output@@V?$format_validation_base@_WV?$string_output_adapter@_W@__crt_stdio_output@@@2@@__crt_stdio_output@@AEAA_NXZ 000000018004d920 f i libucrt:output.obj
 0001:0004c928       ?type_case_X@?$output_processor@_WV?$string_output_adapter@_W@__crt_stdio_output@@V?$positional_parameter_base@_WV?$string_output_adapter@_W@__crt_stdio_output@@@2@@__crt_stdio_output@@AEAA_NXZ 000000018004d928 f i libucrt:output.obj
 0001:0004c930       ?type_case_X@?$output_processor@_WV?$string_output_adapter@_W@__crt_stdio_output@@V?$standard_base@_WV?$string_output_adapter@_W@__crt_stdio_output@@@2@@__crt_stdio_output@@AEAA_NXZ 000000018004d930 f i libucrt:output.obj
 0001:0004c938       ?type_case_Z@?$output_processor@DV?$stream_output_adapter@D@__crt_stdio_output@@V?$format_validation_base@DV?$stream_output_adapter@D@__crt_stdio_output@@@2@@__crt_stdio_output@@AEAA_NXZ 000000018004d938 f i libucrt:output.obj
 0001:0004c9b4       ?type_case_Z@?$output_processor@DV?$stream_output_adapter@D@__crt_stdio_output@@V?$positional_parameter_base@DV?$stream_output_adapter@D@__crt_stdio_output@@@2@@__crt_stdio_output@@AEAA_NXZ 000000018004d9b4 f i libucrt:output.obj
 0001:0004ca5c       ?type_case_Z@?$output_processor@DV?$stream_output_adapter@D@__crt_stdio_output@@V?$standard_base@DV?$stream_output_adapter@D@__crt_stdio_output@@@2@@__crt_stdio_output@@AEAA_NXZ 000000018004da5c f i libucrt:output.obj
 0001:0004cad8       ?type_case_Z@?$output_processor@DV?$string_output_adapter@D@__crt_stdio_output@@V?$format_validation_base@DV?$string_output_adapter@D@__crt_stdio_output@@@2@@__crt_stdio_output@@AEAA_NXZ 000000018004dad8 f i libucrt:output.obj
 0001:0004cb54       ?type_case_Z@?$output_processor@DV?$string_output_adapter@D@__crt_stdio_output@@V?$positional_parameter_base@DV?$string_output_adapter@D@__crt_stdio_output@@@2@@__crt_stdio_output@@AEAA_NXZ 000000018004db54 f i libucrt:output.obj
 0001:0004cbfc       ?type_case_Z@?$output_processor@DV?$string_output_adapter@D@__crt_stdio_output@@V?$standard_base@DV?$string_output_adapter@D@__crt_stdio_output@@@2@@__crt_stdio_output@@AEAA_NXZ 000000018004dbfc f i libucrt:output.obj
 0001:0004cc78       ?type_case_Z@?$output_processor@_WV?$stream_output_adapter@_W@__crt_stdio_output@@V?$format_validation_base@_WV?$stream_output_adapter@_W@__crt_stdio_output@@@2@@__crt_stdio_output@@AEAA_NXZ 000000018004dc78 f i libucrt:output.obj
 0001:0004ccf8       ?type_case_Z@?$output_processor@_WV?$stream_output_adapter@_W@__crt_stdio_output@@V?$positional_parameter_base@_WV?$stream_output_adapter@_W@__crt_stdio_output@@@2@@__crt_stdio_output@@AEAA_NXZ 000000018004dcf8 f i libucrt:output.obj
 0001:0004cd90       ?type_case_Z@?$output_processor@_WV?$stream_output_adapter@_W@__crt_stdio_output@@V?$standard_base@_WV?$stream_output_adapter@_W@__crt_stdio_output@@@2@@__crt_stdio_output@@AEAA_NXZ 000000018004dd90 f i libucrt:output.obj
 0001:0004ce10       ?type_case_Z@?$output_processor@_WV?$string_output_adapter@_W@__crt_stdio_output@@V?$format_validation_base@_WV?$string_output_adapter@_W@__crt_stdio_output@@@2@@__crt_stdio_output@@AEAA_NXZ 000000018004de10 f i libucrt:output.obj
 0001:0004ce90       ?type_case_Z@?$output_processor@_WV?$string_output_adapter@_W@__crt_stdio_output@@V?$positional_parameter_base@_WV?$string_output_adapter@_W@__crt_stdio_output@@@2@@__crt_stdio_output@@AEAA_NXZ 000000018004de90 f i libucrt:output.obj
 0001:0004cf28       ?type_case_Z@?$output_processor@_WV?$string_output_adapter@_W@__crt_stdio_output@@V?$standard_base@_WV?$string_output_adapter@_W@__crt_stdio_output@@@2@@__crt_stdio_output@@AEAA_NXZ 000000018004df28 f i libucrt:output.obj
 0001:0004cfa8       ?type_case_a@?$output_processor@DV?$stream_output_adapter@D@__crt_stdio_output@@V?$format_validation_base@DV?$stream_output_adapter@D@__crt_stdio_output@@@2@@__crt_stdio_output@@AEAA_NXZ 000000018004dfa8 f i libucrt:output.obj
 0001:0004d1fc       ?type_case_a@?$output_processor@DV?$stream_output_adapter@D@__crt_stdio_output@@V?$positional_parameter_base@DV?$stream_output_adapter@D@__crt_stdio_output@@@2@@__crt_stdio_output@@AEAA_NXZ 000000018004e1fc f i libucrt:output.obj
 0001:0004d478       ?type_case_a@?$output_processor@DV?$stream_output_adapter@D@__crt_stdio_output@@V?$standard_base@DV?$stream_output_adapter@D@__crt_stdio_output@@@2@@__crt_stdio_output@@AEAA_NXZ 000000018004e478 f i libucrt:output.obj
 0001:0004d6cc       ?type_case_a@?$output_processor@DV?$string_output_adapter@D@__crt_stdio_output@@V?$format_validation_base@DV?$string_output_adapter@D@__crt_stdio_output@@@2@@__crt_stdio_output@@AEAA_NXZ 000000018004e6cc f i libucrt:output.obj
 0001:0004d920       ?type_case_a@?$output_processor@DV?$string_output_adapter@D@__crt_stdio_output@@V?$positional_parameter_base@DV?$string_output_adapter@D@__crt_stdio_output@@@2@@__crt_stdio_output@@AEAA_NXZ 000000018004e920 f i libucrt:output.obj
 0001:0004db9c       ?type_case_a@?$output_processor@DV?$string_output_adapter@D@__crt_stdio_output@@V?$standard_base@DV?$string_output_adapter@D@__crt_stdio_output@@@2@@__crt_stdio_output@@AEAA_NXZ 000000018004eb9c f i libucrt:output.obj
 0001:0004ddf0       ?type_case_a@?$output_processor@_WV?$stream_output_adapter@_W@__crt_stdio_output@@V?$format_validation_base@_WV?$stream_output_adapter@_W@__crt_stdio_output@@@2@@__crt_stdio_output@@AEAA_NXZ 000000018004edf0 f i libucrt:output.obj
 0001:0004e058       ?type_case_a@?$output_processor@_WV?$stream_output_adapter@_W@__crt_stdio_output@@V?$positional_parameter_base@_WV?$stream_output_adapter@_W@__crt_stdio_output@@@2@@__crt_stdio_output@@AEAA_NXZ 000000018004f058 f i libucrt:output.obj
 0001:0004e2ec       ?type_case_a@?$output_processor@_WV?$stream_output_adapter@_W@__crt_stdio_output@@V?$standard_base@_WV?$stream_output_adapter@_W@__crt_stdio_output@@@2@@__crt_stdio_output@@AEAA_NXZ 000000018004f2ec f i libucrt:output.obj
 0001:0004e554       ?type_case_a@?$output_processor@_WV?$string_output_adapter@_W@__crt_stdio_output@@V?$format_validation_base@_WV?$string_output_adapter@_W@__crt_stdio_output@@@2@@__crt_stdio_output@@AEAA_NXZ 000000018004f554 f i libucrt:output.obj
 0001:0004e7bc       ?type_case_a@?$output_processor@_WV?$string_output_adapter@_W@__crt_stdio_output@@V?$positional_parameter_base@_WV?$string_output_adapter@_W@__crt_stdio_output@@@2@@__crt_stdio_output@@AEAA_NXZ 000000018004f7bc f i libucrt:output.obj
 0001:0004ea50       ?type_case_a@?$output_processor@_WV?$string_output_adapter@_W@__crt_stdio_output@@V?$standard_base@_WV?$string_output_adapter@_W@__crt_stdio_output@@@2@@__crt_stdio_output@@AEAA_NXZ 000000018004fa50 f i libucrt:output.obj
 0001:0004ecb8       ?type_case_c@?$output_processor@DV?$stream_output_adapter@D@__crt_stdio_output@@V?$format_validation_base@DV?$stream_output_adapter@D@__crt_stdio_output@@@2@@__crt_stdio_output@@AEAA_NXZ 000000018004fcb8 f i libucrt:output.obj
 0001:0004ecc0       ?type_case_c@?$output_processor@DV?$stream_output_adapter@D@__crt_stdio_output@@V?$positional_parameter_base@DV?$stream_output_adapter@D@__crt_stdio_output@@@2@@__crt_stdio_output@@AEAA_NXZ 000000018004fcc0 f i libucrt:output.obj
 0001:0004ecc8       ?type_case_c@?$output_processor@DV?$stream_output_adapter@D@__crt_stdio_output@@V?$standard_base@DV?$stream_output_adapter@D@__crt_stdio_output@@@2@@__crt_stdio_output@@AEAA_NXZ 000000018004fcc8 f i libucrt:output.obj
 0001:0004ecd0       ?type_case_c@?$output_processor@DV?$string_output_adapter@D@__crt_stdio_output@@V?$format_validation_base@DV?$string_output_adapter@D@__crt_stdio_output@@@2@@__crt_stdio_output@@AEAA_NXZ 000000018004fcd0 f i libucrt:output.obj
 0001:0004ecd8       ?type_case_c@?$output_processor@DV?$string_output_adapter@D@__crt_stdio_output@@V?$positional_parameter_base@DV?$string_output_adapter@D@__crt_stdio_output@@@2@@__crt_stdio_output@@AEAA_NXZ 000000018004fcd8 f i libucrt:output.obj
 0001:0004ece0       ?type_case_c@?$output_processor@DV?$string_output_adapter@D@__crt_stdio_output@@V?$standard_base@DV?$string_output_adapter@D@__crt_stdio_output@@@2@@__crt_stdio_output@@AEAA_NXZ 000000018004fce0 f i libucrt:output.obj
 0001:0004ece8       ?type_case_c@?$output_processor@_WV?$stream_output_adapter@_W@__crt_stdio_output@@V?$format_validation_base@_WV?$stream_output_adapter@_W@__crt_stdio_output@@@2@@__crt_stdio_output@@AEAA_NXZ 000000018004fce8 f i libucrt:output.obj
 0001:0004ecf0       ?type_case_c@?$output_processor@_WV?$stream_output_adapter@_W@__crt_stdio_output@@V?$positional_parameter_base@_WV?$stream_output_adapter@_W@__crt_stdio_output@@@2@@__crt_stdio_output@@AEAA_NXZ 000000018004fcf0 f i libucrt:output.obj
 0001:0004ecf8       ?type_case_c@?$output_processor@_WV?$stream_output_adapter@_W@__crt_stdio_output@@V?$standard_base@_WV?$stream_output_adapter@_W@__crt_stdio_output@@@2@@__crt_stdio_output@@AEAA_NXZ 000000018004fcf8 f i libucrt:output.obj
 0001:0004ed00       ?type_case_c@?$output_processor@_WV?$string_output_adapter@_W@__crt_stdio_output@@V?$format_validation_base@_WV?$string_output_adapter@_W@__crt_stdio_output@@@2@@__crt_stdio_output@@AEAA_NXZ 000000018004fd00 f i libucrt:output.obj
 0001:0004ed08       ?type_case_c@?$output_processor@_WV?$string_output_adapter@_W@__crt_stdio_output@@V?$positional_parameter_base@_WV?$string_output_adapter@_W@__crt_stdio_output@@@2@@__crt_stdio_output@@AEAA_NXZ 000000018004fd08 f i libucrt:output.obj
 0001:0004ed10       ?type_case_c@?$output_processor@_WV?$string_output_adapter@_W@__crt_stdio_output@@V?$standard_base@_WV?$string_output_adapter@_W@__crt_stdio_output@@@2@@__crt_stdio_output@@AEAA_NXZ 000000018004fd10 f i libucrt:output.obj
 0001:0004ed18       ?type_case_c_tchar@?$output_processor@DV?$stream_output_adapter@D@__crt_stdio_output@@V?$format_validation_base@DV?$stream_output_adapter@D@__crt_stdio_output@@@2@@__crt_stdio_output@@AEAA_ND@Z 000000018004fd18 f i libucrt:output.obj
 0001:0004edec       ?type_case_c_tchar@?$output_processor@DV?$stream_output_adapter@D@__crt_stdio_output@@V?$positional_parameter_base@DV?$stream_output_adapter@D@__crt_stdio_output@@@2@@__crt_stdio_output@@AEAA_ND@Z 000000018004fdec f i libucrt:output.obj
 0001:0004ef08       ?type_case_c_tchar@?$output_processor@DV?$stream_output_adapter@D@__crt_stdio_output@@V?$standard_base@DV?$stream_output_adapter@D@__crt_stdio_output@@@2@@__crt_stdio_output@@AEAA_ND@Z 000000018004ff08 f i libucrt:output.obj
 0001:0004efdc       ?type_case_c_tchar@?$output_processor@DV?$string_output_adapter@D@__crt_stdio_output@@V?$format_validation_base@DV?$string_output_adapter@D@__crt_stdio_output@@@2@@__crt_stdio_output@@AEAA_ND@Z 000000018004ffdc f i libucrt:output.obj
 0001:0004f0b0       ?type_case_c_tchar@?$output_processor@DV?$string_output_adapter@D@__crt_stdio_output@@V?$positional_parameter_base@DV?$string_output_adapter@D@__crt_stdio_output@@@2@@__crt_stdio_output@@AEAA_ND@Z 00000001800500b0 f i libucrt:output.obj
 0001:0004f1cc       ?type_case_c_tchar@?$output_processor@DV?$string_output_adapter@D@__crt_stdio_output@@V?$standard_base@DV?$string_output_adapter@D@__crt_stdio_output@@@2@@__crt_stdio_output@@AEAA_ND@Z 00000001800501cc f i libucrt:output.obj
 0001:0004f2a0       ?type_case_c_tchar@?$output_processor@_WV?$stream_output_adapter@_W@__crt_stdio_output@@V?$format_validation_base@_WV?$stream_output_adapter@_W@__crt_stdio_output@@@2@@__crt_stdio_output@@AEAA_N_W@Z 00000001800502a0 f i libucrt:output.obj
 0001:0004f364       ?type_case_c_tchar@?$output_processor@_WV?$stream_output_adapter@_W@__crt_stdio_output@@V?$positional_parameter_base@_WV?$stream_output_adapter@_W@__crt_stdio_output@@@2@@__crt_stdio_output@@AEAA_N_W@Z 0000000180050364 f i libucrt:output.obj
 0001:0004f45c       ?type_case_c_tchar@?$output_processor@_WV?$stream_output_adapter@_W@__crt_stdio_output@@V?$standard_base@_WV?$stream_output_adapter@_W@__crt_stdio_output@@@2@@__crt_stdio_output@@AEAA_N_W@Z 000000018005045c f i libucrt:output.obj
 0001:0004f520       ?type_case_c_tchar@?$output_processor@_WV?$string_output_adapter@_W@__crt_stdio_output@@V?$format_validation_base@_WV?$string_output_adapter@_W@__crt_stdio_output@@@2@@__crt_stdio_output@@AEAA_N_W@Z 0000000180050520 f i libucrt:output.obj
 0001:0004f5e4       ?type_case_c_tchar@?$output_processor@_WV?$string_output_adapter@_W@__crt_stdio_output@@V?$positional_parameter_base@_WV?$string_output_adapter@_W@__crt_stdio_output@@@2@@__crt_stdio_output@@AEAA_N_W@Z 00000001800505e4 f i libucrt:output.obj
 0001:0004f6dc       ?type_case_c_tchar@?$output_processor@_WV?$string_output_adapter@_W@__crt_stdio_output@@V?$standard_base@_WV?$string_output_adapter@_W@__crt_stdio_output@@@2@@__crt_stdio_output@@AEAA_N_W@Z 00000001800506dc f i libucrt:output.obj
 0001:0004f7a0       ?type_case_d@?$output_processor@DV?$stream_output_adapter@D@__crt_stdio_output@@V?$format_validation_base@DV?$stream_output_adapter@D@__crt_stdio_output@@@2@@__crt_stdio_output@@AEAA_NXZ 00000001800507a0 f i libucrt:output.obj
 0001:0004f7ac       ?type_case_d@?$output_processor@DV?$stream_output_adapter@D@__crt_stdio_output@@V?$positional_parameter_base@DV?$stream_output_adapter@D@__crt_stdio_output@@@2@@__crt_stdio_output@@AEAA_NXZ 00000001800507ac f i libucrt:output.obj
 0001:0004f7b8       ?type_case_d@?$output_processor@DV?$stream_output_adapter@D@__crt_stdio_output@@V?$standard_base@DV?$stream_output_adapter@D@__crt_stdio_output@@@2@@__crt_stdio_output@@AEAA_NXZ 00000001800507b8 f i libucrt:output.obj
 0001:0004f7c4       ?type_case_d@?$output_processor@DV?$string_output_adapter@D@__crt_stdio_output@@V?$format_validation_base@DV?$string_output_adapter@D@__crt_stdio_output@@@2@@__crt_stdio_output@@AEAA_NXZ 00000001800507c4 f i libucrt:output.obj
 0001:0004f7d0       ?type_case_d@?$output_processor@DV?$string_output_adapter@D@__crt_stdio_output@@V?$positional_parameter_base@DV?$string_output_adapter@D@__crt_stdio_output@@@2@@__crt_stdio_output@@AEAA_NXZ 00000001800507d0 f i libucrt:output.obj
 0001:0004f7dc       ?type_case_d@?$output_processor@DV?$string_output_adapter@D@__crt_stdio_output@@V?$standard_base@DV?$string_output_adapter@D@__crt_stdio_output@@@2@@__crt_stdio_output@@AEAA_NXZ 00000001800507dc f i libucrt:output.obj
 0001:0004f7e8       ?type_case_d@?$output_processor@_WV?$stream_output_adapter@_W@__crt_stdio_output@@V?$format_validation_base@_WV?$stream_output_adapter@_W@__crt_stdio_output@@@2@@__crt_stdio_output@@AEAA_NXZ 00000001800507e8 f i libucrt:output.obj
 0001:0004f7f4       ?type_case_d@?$output_processor@_WV?$stream_output_adapter@_W@__crt_stdio_output@@V?$positional_parameter_base@_WV?$stream_output_adapter@_W@__crt_stdio_output@@@2@@__crt_stdio_output@@AEAA_NXZ 00000001800507f4 f i libucrt:output.obj
 0001:0004f800       ?type_case_d@?$output_processor@_WV?$stream_output_adapter@_W@__crt_stdio_output@@V?$standard_base@_WV?$stream_output_adapter@_W@__crt_stdio_output@@@2@@__crt_stdio_output@@AEAA_NXZ 0000000180050800 f i libucrt:output.obj
 0001:0004f80c       ?type_case_d@?$output_processor@_WV?$string_output_adapter@_W@__crt_stdio_output@@V?$format_validation_base@_WV?$string_output_adapter@_W@__crt_stdio_output@@@2@@__crt_stdio_output@@AEAA_NXZ 000000018005080c f i libucrt:output.obj
 0001:0004f818       ?type_case_d@?$output_processor@_WV?$string_output_adapter@_W@__crt_stdio_output@@V?$positional_parameter_base@_WV?$string_output_adapter@_W@__crt_stdio_output@@@2@@__crt_stdio_output@@AEAA_NXZ 0000000180050818 f i libucrt:output.obj
 0001:0004f824       ?type_case_d@?$output_processor@_WV?$string_output_adapter@_W@__crt_stdio_output@@V?$standard_base@_WV?$string_output_adapter@_W@__crt_stdio_output@@@2@@__crt_stdio_output@@AEAA_NXZ 0000000180050824 f i libucrt:output.obj
 0001:0004f830       ?type_case_n@?$output_processor@DV?$stream_output_adapter@D@__crt_stdio_output@@V?$format_validation_base@DV?$stream_output_adapter@D@__crt_stdio_output@@@2@@__crt_stdio_output@@AEAA_NXZ 0000000180050830 f i libucrt:output.obj
 0001:0004f8e8       ?type_case_n@?$output_processor@DV?$stream_output_adapter@D@__crt_stdio_output@@V?$positional_parameter_base@DV?$stream_output_adapter@D@__crt_stdio_output@@@2@@__crt_stdio_output@@AEAA_NXZ 00000001800508e8 f i libucrt:output.obj
 0001:0004f9cc       ?type_case_n@?$output_processor@DV?$stream_output_adapter@D@__crt_stdio_output@@V?$standard_base@DV?$stream_output_adapter@D@__crt_stdio_output@@@2@@__crt_stdio_output@@AEAA_NXZ 00000001800509cc f i libucrt:output.obj
 0001:0004fa84       ?type_case_n@?$output_processor@DV?$string_output_adapter@D@__crt_stdio_output@@V?$format_validation_base@DV?$string_output_adapter@D@__crt_stdio_output@@@2@@__crt_stdio_output@@AEAA_NXZ 0000000180050a84 f i libucrt:output.obj
 0001:0004fb3c       ?type_case_n@?$output_processor@DV?$string_output_adapter@D@__crt_stdio_output@@V?$positional_parameter_base@DV?$string_output_adapter@D@__crt_stdio_output@@@2@@__crt_stdio_output@@AEAA_NXZ 0000000180050b3c f i libucrt:output.obj
 0001:0004fc20       ?type_case_n@?$output_processor@DV?$string_output_adapter@D@__crt_stdio_output@@V?$standard_base@DV?$string_output_adapter@D@__crt_stdio_output@@@2@@__crt_stdio_output@@AEAA_NXZ 0000000180050c20 f i libucrt:output.obj
 0001:0004fcd8       ?type_case_n@?$output_processor@_WV?$stream_output_adapter@_W@__crt_stdio_output@@V?$format_validation_base@_WV?$stream_output_adapter@_W@__crt_stdio_output@@@2@@__crt_stdio_output@@AEAA_NXZ 0000000180050cd8 f i libucrt:output.obj
 0001:0004fd90       ?type_case_n@?$output_processor@_WV?$stream_output_adapter@_W@__crt_stdio_output@@V?$positional_parameter_base@_WV?$stream_output_adapter@_W@__crt_stdio_output@@@2@@__crt_stdio_output@@AEAA_NXZ 0000000180050d90 f i libucrt:output.obj
 0001:0004fe74       ?type_case_n@?$output_processor@_WV?$stream_output_adapter@_W@__crt_stdio_output@@V?$standard_base@_WV?$stream_output_adapter@_W@__crt_stdio_output@@@2@@__crt_stdio_output@@AEAA_NXZ 0000000180050e74 f i libucrt:output.obj
 0001:0004ff2c       ?type_case_n@?$output_processor@_WV?$string_output_adapter@_W@__crt_stdio_output@@V?$format_validation_base@_WV?$string_output_adapter@_W@__crt_stdio_output@@@2@@__crt_stdio_output@@AEAA_NXZ 0000000180050f2c f i libucrt:output.obj
 0001:0004ffe4       ?type_case_n@?$output_processor@_WV?$string_output_adapter@_W@__crt_stdio_output@@V?$positional_parameter_base@_WV?$string_output_adapter@_W@__crt_stdio_output@@@2@@__crt_stdio_output@@AEAA_NXZ 0000000180050fe4 f i libucrt:output.obj
 0001:000500c8       ?type_case_n@?$output_processor@_WV?$string_output_adapter@_W@__crt_stdio_output@@V?$standard_base@_WV?$string_output_adapter@_W@__crt_stdio_output@@@2@@__crt_stdio_output@@AEAA_NXZ 00000001800510c8 f i libucrt:output.obj
 0001:00050180       ?type_case_o@?$output_processor@DV?$stream_output_adapter@D@__crt_stdio_output@@V?$format_validation_base@DV?$stream_output_adapter@D@__crt_stdio_output@@@2@@__crt_stdio_output@@AEAA_NXZ 0000000180051180 f i libucrt:output.obj
 0001:0005019c       ?type_case_o@?$output_processor@DV?$stream_output_adapter@D@__crt_stdio_output@@V?$positional_parameter_base@DV?$stream_output_adapter@D@__crt_stdio_output@@@2@@__crt_stdio_output@@AEAA_NXZ 000000018005119c f i libucrt:output.obj
 0001:000501b8       ?type_case_o@?$output_processor@DV?$stream_output_adapter@D@__crt_stdio_output@@V?$standard_base@DV?$stream_output_adapter@D@__crt_stdio_output@@@2@@__crt_stdio_output@@AEAA_NXZ 00000001800511b8 f i libucrt:output.obj
 0001:000501d4       ?type_case_o@?$output_processor@DV?$string_output_adapter@D@__crt_stdio_output@@V?$format_validation_base@DV?$string_output_adapter@D@__crt_stdio_output@@@2@@__crt_stdio_output@@AEAA_NXZ 00000001800511d4 f i libucrt:output.obj
 0001:000501f0       ?type_case_o@?$output_processor@DV?$string_output_adapter@D@__crt_stdio_output@@V?$positional_parameter_base@DV?$string_output_adapter@D@__crt_stdio_output@@@2@@__crt_stdio_output@@AEAA_NXZ 00000001800511f0 f i libucrt:output.obj
 0001:0005020c       ?type_case_o@?$output_processor@DV?$string_output_adapter@D@__crt_stdio_output@@V?$standard_base@DV?$string_output_adapter@D@__crt_stdio_output@@@2@@__crt_stdio_output@@AEAA_NXZ 000000018005120c f i libucrt:output.obj
 0001:00050228       ?type_case_o@?$output_processor@_WV?$stream_output_adapter@_W@__crt_stdio_output@@V?$format_validation_base@_WV?$stream_output_adapter@_W@__crt_stdio_output@@@2@@__crt_stdio_output@@AEAA_NXZ 0000000180051228 f i libucrt:output.obj
 0001:00050244       ?type_case_o@?$output_processor@_WV?$stream_output_adapter@_W@__crt_stdio_output@@V?$positional_parameter_base@_WV?$stream_output_adapter@_W@__crt_stdio_output@@@2@@__crt_stdio_output@@AEAA_NXZ 0000000180051244 f i libucrt:output.obj
 0001:00050260       ?type_case_o@?$output_processor@_WV?$stream_output_adapter@_W@__crt_stdio_output@@V?$standard_base@_WV?$stream_output_adapter@_W@__crt_stdio_output@@@2@@__crt_stdio_output@@AEAA_NXZ 0000000180051260 f i libucrt:output.obj
 0001:0005027c       ?type_case_o@?$output_processor@_WV?$string_output_adapter@_W@__crt_stdio_output@@V?$format_validation_base@_WV?$string_output_adapter@_W@__crt_stdio_output@@@2@@__crt_stdio_output@@AEAA_NXZ 000000018005127c f i libucrt:output.obj
 0001:00050298       ?type_case_o@?$output_processor@_WV?$string_output_adapter@_W@__crt_stdio_output@@V?$positional_parameter_base@_WV?$string_output_adapter@_W@__crt_stdio_output@@@2@@__crt_stdio_output@@AEAA_NXZ 0000000180051298 f i libucrt:output.obj
 0001:000502b4       ?type_case_o@?$output_processor@_WV?$string_output_adapter@_W@__crt_stdio_output@@V?$standard_base@_WV?$string_output_adapter@_W@__crt_stdio_output@@@2@@__crt_stdio_output@@AEAA_NXZ 00000001800512b4 f i libucrt:output.obj
 0001:000502d0       ?type_case_p@?$output_processor@DV?$stream_output_adapter@D@__crt_stdio_output@@V?$format_validation_base@DV?$stream_output_adapter@D@__crt_stdio_output@@@2@@__crt_stdio_output@@AEAA_NXZ 00000001800512d0 f i libucrt:output.obj
 0001:000502e8       ?type_case_p@?$output_processor@DV?$stream_output_adapter@D@__crt_stdio_output@@V?$positional_parameter_base@DV?$stream_output_adapter@D@__crt_stdio_output@@@2@@__crt_stdio_output@@AEAA_NXZ 00000001800512e8 f i libucrt:output.obj
 0001:00050300       ?type_case_p@?$output_processor@DV?$stream_output_adapter@D@__crt_stdio_output@@V?$standard_base@DV?$stream_output_adapter@D@__crt_stdio_output@@@2@@__crt_stdio_output@@AEAA_NXZ 0000000180051300 f i libucrt:output.obj
 0001:00050318       ?type_case_p@?$output_processor@DV?$string_output_adapter@D@__crt_stdio_output@@V?$format_validation_base@DV?$string_output_adapter@D@__crt_stdio_output@@@2@@__crt_stdio_output@@AEAA_NXZ 0000000180051318 f i libucrt:output.obj
 0001:00050330       ?type_case_p@?$output_processor@DV?$string_output_adapter@D@__crt_stdio_output@@V?$positional_parameter_base@DV?$string_output_adapter@D@__crt_stdio_output@@@2@@__crt_stdio_output@@AEAA_NXZ 0000000180051330 f i libucrt:output.obj
 0001:00050348       ?type_case_p@?$output_processor@DV?$string_output_adapter@D@__crt_stdio_output@@V?$standard_base@DV?$string_output_adapter@D@__crt_stdio_output@@@2@@__crt_stdio_output@@AEAA_NXZ 0000000180051348 f i libucrt:output.obj
 0001:00050360       ?type_case_p@?$output_processor@_WV?$stream_output_adapter@_W@__crt_stdio_output@@V?$format_validation_base@_WV?$stream_output_adapter@_W@__crt_stdio_output@@@2@@__crt_stdio_output@@AEAA_NXZ 0000000180051360 f i libucrt:output.obj
 0001:00050378       ?type_case_p@?$output_processor@_WV?$stream_output_adapter@_W@__crt_stdio_output@@V?$positional_parameter_base@_WV?$stream_output_adapter@_W@__crt_stdio_output@@@2@@__crt_stdio_output@@AEAA_NXZ 0000000180051378 f i libucrt:output.obj
 0001:00050390       ?type_case_p@?$output_processor@_WV?$stream_output_adapter@_W@__crt_stdio_output@@V?$standard_base@_WV?$stream_output_adapter@_W@__crt_stdio_output@@@2@@__crt_stdio_output@@AEAA_NXZ 0000000180051390 f i libucrt:output.obj
 0001:000503a8       ?type_case_p@?$output_processor@_WV?$string_output_adapter@_W@__crt_stdio_output@@V?$format_validation_base@_WV?$string_output_adapter@_W@__crt_stdio_output@@@2@@__crt_stdio_output@@AEAA_NXZ 00000001800513a8 f i libucrt:output.obj
 0001:000503c0       ?type_case_p@?$output_processor@_WV?$string_output_adapter@_W@__crt_stdio_output@@V?$positional_parameter_base@_WV?$string_output_adapter@_W@__crt_stdio_output@@@2@@__crt_stdio_output@@AEAA_NXZ 00000001800513c0 f i libucrt:output.obj
 0001:000503d8       ?type_case_p@?$output_processor@_WV?$string_output_adapter@_W@__crt_stdio_output@@V?$standard_base@_WV?$string_output_adapter@_W@__crt_stdio_output@@@2@@__crt_stdio_output@@AEAA_NXZ 00000001800513d8 f i libucrt:output.obj
 0001:000503f0       ?type_case_s@?$output_processor@DV?$stream_output_adapter@D@__crt_stdio_output@@V?$format_validation_base@DV?$stream_output_adapter@D@__crt_stdio_output@@@2@@__crt_stdio_output@@AEAA_NXZ 00000001800513f0 f i libucrt:output.obj
 0001:0005048c       ?type_case_s@?$output_processor@DV?$stream_output_adapter@D@__crt_stdio_output@@V?$positional_parameter_base@DV?$stream_output_adapter@D@__crt_stdio_output@@@2@@__crt_stdio_output@@AEAA_NXZ 000000018005148c f i libucrt:output.obj
 0001:00050548       ?type_case_s@?$output_processor@DV?$stream_output_adapter@D@__crt_stdio_output@@V?$standard_base@DV?$stream_output_adapter@D@__crt_stdio_output@@@2@@__crt_stdio_output@@AEAA_NXZ 0000000180051548 f i libucrt:output.obj
 0001:000505e4       ?type_case_s@?$output_processor@DV?$string_output_adapter@D@__crt_stdio_output@@V?$format_validation_base@DV?$string_output_adapter@D@__crt_stdio_output@@@2@@__crt_stdio_output@@AEAA_NXZ 00000001800515e4 f i libucrt:output.obj
 0001:00050680       ?type_case_s@?$output_processor@DV?$string_output_adapter@D@__crt_stdio_output@@V?$positional_parameter_base@DV?$string_output_adapter@D@__crt_stdio_output@@@2@@__crt_stdio_output@@AEAA_NXZ 0000000180051680 f i libucrt:output.obj
 0001:0005073c       ?type_case_s@?$output_processor@DV?$string_output_adapter@D@__crt_stdio_output@@V?$standard_base@DV?$string_output_adapter@D@__crt_stdio_output@@@2@@__crt_stdio_output@@AEAA_NXZ 000000018005173c f i libucrt:output.obj
 0001:000507d8       ?type_case_s@?$output_processor@_WV?$stream_output_adapter@_W@__crt_stdio_output@@V?$format_validation_base@_WV?$stream_output_adapter@_W@__crt_stdio_output@@@2@@__crt_stdio_output@@AEAA_NXZ 00000001800517d8 f i libucrt:output.obj
 0001:00050874       ?type_case_s@?$output_processor@_WV?$stream_output_adapter@_W@__crt_stdio_output@@V?$positional_parameter_base@_WV?$stream_output_adapter@_W@__crt_stdio_output@@@2@@__crt_stdio_output@@AEAA_NXZ 0000000180051874 f i libucrt:output.obj
 0001:00050928       ?type_case_s@?$output_processor@_WV?$stream_output_adapter@_W@__crt_stdio_output@@V?$standard_base@_WV?$stream_output_adapter@_W@__crt_stdio_output@@@2@@__crt_stdio_output@@AEAA_NXZ 0000000180051928 f i libucrt:output.obj
 0001:000509c4       ?type_case_s@?$output_processor@_WV?$string_output_adapter@_W@__crt_stdio_output@@V?$format_validation_base@_WV?$string_output_adapter@_W@__crt_stdio_output@@@2@@__crt_stdio_output@@AEAA_NXZ 00000001800519c4 f i libucrt:output.obj
 0001:00050a60       ?type_case_s@?$output_processor@_WV?$string_output_adapter@_W@__crt_stdio_output@@V?$positional_parameter_base@_WV?$string_output_adapter@_W@__crt_stdio_output@@@2@@__crt_stdio_output@@AEAA_NXZ 0000000180051a60 f i libucrt:output.obj
 0001:00050b14       ?type_case_s@?$output_processor@_WV?$string_output_adapter@_W@__crt_stdio_output@@V?$standard_base@_WV?$string_output_adapter@_W@__crt_stdio_output@@@2@@__crt_stdio_output@@AEAA_NXZ 0000000180051b14 f i libucrt:output.obj
 0001:00050bb0       ?type_case_s_compute_narrow_string_length@?$output_processor@DV?$stream_output_adapter@D@__crt_stdio_output@@V?$format_validation_base@DV?$stream_output_adapter@D@__crt_stdio_output@@@2@@__crt_stdio_output@@AEAAHHD@Z 0000000180051bb0 f i libucrt:output.obj
 0001:00050bbc       ?type_case_s_compute_narrow_string_length@?$output_processor@DV?$stream_output_adapter@D@__crt_stdio_output@@V?$positional_parameter_base@DV?$stream_output_adapter@D@__crt_stdio_output@@@2@@__crt_stdio_output@@AEAAHHD@Z 0000000180051bbc f i libucrt:output.obj
 0001:00050bc8       ?type_case_s_compute_narrow_string_length@?$output_processor@DV?$stream_output_adapter@D@__crt_stdio_output@@V?$standard_base@DV?$stream_output_adapter@D@__crt_stdio_output@@@2@@__crt_stdio_output@@AEAAHHD@Z 0000000180051bc8 f i libucrt:output.obj
 0001:00050bd4       ?type_case_s_compute_narrow_string_length@?$output_processor@DV?$string_output_adapter@D@__crt_stdio_output@@V?$format_validation_base@DV?$string_output_adapter@D@__crt_stdio_output@@@2@@__crt_stdio_output@@AEAAHHD@Z 0000000180051bd4 f i libucrt:output.obj
 0001:00050be0       ?type_case_s_compute_narrow_string_length@?$output_processor@DV?$string_output_adapter@D@__crt_stdio_output@@V?$positional_parameter_base@DV?$string_output_adapter@D@__crt_stdio_output@@@2@@__crt_stdio_output@@AEAAHHD@Z 0000000180051be0 f i libucrt:output.obj
 0001:00050bec       ?type_case_s_compute_narrow_string_length@?$output_processor@DV?$string_output_adapter@D@__crt_stdio_output@@V?$standard_base@DV?$string_output_adapter@D@__crt_stdio_output@@@2@@__crt_stdio_output@@AEAAHHD@Z 0000000180051bec f i libucrt:output.obj
 0001:00050bf8       ?type_case_s_compute_narrow_string_length@?$output_processor@_WV?$stream_output_adapter@_W@__crt_stdio_output@@V?$format_validation_base@_WV?$stream_output_adapter@_W@__crt_stdio_output@@@2@@__crt_stdio_output@@AEAAHH_W@Z 0000000180051bf8 f i libucrt:output.obj
 0001:00050c6c       ?type_case_s_compute_narrow_string_length@?$output_processor@_WV?$stream_output_adapter@_W@__crt_stdio_output@@V?$positional_parameter_base@_WV?$stream_output_adapter@_W@__crt_stdio_output@@@2@@__crt_stdio_output@@AEAAHH_W@Z 0000000180051c6c f i libucrt:output.obj
 0001:00050ce0       ?type_case_s_compute_narrow_string_length@?$output_processor@_WV?$stream_output_adapter@_W@__crt_stdio_output@@V?$standard_base@_WV?$stream_output_adapter@_W@__crt_stdio_output@@@2@@__crt_stdio_output@@AEAAHH_W@Z 0000000180051ce0 f i libucrt:output.obj
 0001:00050d54       ?type_case_s_compute_narrow_string_length@?$output_processor@_WV?$string_output_adapter@_W@__crt_stdio_output@@V?$format_validation_base@_WV?$string_output_adapter@_W@__crt_stdio_output@@@2@@__crt_stdio_output@@AEAAHH_W@Z 0000000180051d54 f i libucrt:output.obj
 0001:00050dc8       ?type_case_s_compute_narrow_string_length@?$output_processor@_WV?$string_output_adapter@_W@__crt_stdio_output@@V?$positional_parameter_base@_WV?$string_output_adapter@_W@__crt_stdio_output@@@2@@__crt_stdio_output@@AEAAHH_W@Z 0000000180051dc8 f i libucrt:output.obj
 0001:00050e3c       ?type_case_s_compute_narrow_string_length@?$output_processor@_WV?$string_output_adapter@_W@__crt_stdio_output@@V?$standard_base@_WV?$string_output_adapter@_W@__crt_stdio_output@@@2@@__crt_stdio_output@@AEAAHH_W@Z 0000000180051e3c f i libucrt:output.obj
 0001:00050eb0       ?type_case_u@?$output_processor@DV?$stream_output_adapter@D@__crt_stdio_output@@V?$format_validation_base@DV?$stream_output_adapter@D@__crt_stdio_output@@@2@@__crt_stdio_output@@AEAA_NXZ 0000000180051eb0 f i libucrt:output.obj
 0001:00050eb8       ?type_case_u@?$output_processor@DV?$stream_output_adapter@D@__crt_stdio_output@@V?$positional_parameter_base@DV?$stream_output_adapter@D@__crt_stdio_output@@@2@@__crt_stdio_output@@AEAA_NXZ 0000000180051eb8 f i libucrt:output.obj
 0001:00050ec0       ?type_case_u@?$output_processor@DV?$stream_output_adapter@D@__crt_stdio_output@@V?$standard_base@DV?$stream_output_adapter@D@__crt_stdio_output@@@2@@__crt_stdio_output@@AEAA_NXZ 0000000180051ec0 f i libucrt:output.obj
 0001:00050ec8       ?type_case_u@?$output_processor@DV?$string_output_adapter@D@__crt_stdio_output@@V?$format_validation_base@DV?$string_output_adapter@D@__crt_stdio_output@@@2@@__crt_stdio_output@@AEAA_NXZ 0000000180051ec8 f i libucrt:output.obj
 0001:00050ed0       ?type_case_u@?$output_processor@DV?$string_output_adapter@D@__crt_stdio_output@@V?$positional_parameter_base@DV?$string_output_adapter@D@__crt_stdio_output@@@2@@__crt_stdio_output@@AEAA_NXZ 0000000180051ed0 f i libucrt:output.obj
 0001:00050ed8       ?type_case_u@?$output_processor@DV?$string_output_adapter@D@__crt_stdio_output@@V?$standard_base@DV?$string_output_adapter@D@__crt_stdio_output@@@2@@__crt_stdio_output@@AEAA_NXZ 0000000180051ed8 f i libucrt:output.obj
 0001:00050ee0       ?type_case_u@?$output_processor@_WV?$stream_output_adapter@_W@__crt_stdio_output@@V?$format_validation_base@_WV?$stream_output_adapter@_W@__crt_stdio_output@@@2@@__crt_stdio_output@@AEAA_NXZ 0000000180051ee0 f i libucrt:output.obj
 0001:00050ee8       ?type_case_u@?$output_processor@_WV?$stream_output_adapter@_W@__crt_stdio_output@@V?$positional_parameter_base@_WV?$stream_output_adapter@_W@__crt_stdio_output@@@2@@__crt_stdio_output@@AEAA_NXZ 0000000180051ee8 f i libucrt:output.obj
 0001:00050ef0       ?type_case_u@?$output_processor@_WV?$stream_output_adapter@_W@__crt_stdio_output@@V?$standard_base@_WV?$stream_output_adapter@_W@__crt_stdio_output@@@2@@__crt_stdio_output@@AEAA_NXZ 0000000180051ef0 f i libucrt:output.obj
 0001:00050ef8       ?type_case_u@?$output_processor@_WV?$string_output_adapter@_W@__crt_stdio_output@@V?$format_validation_base@_WV?$string_output_adapter@_W@__crt_stdio_output@@@2@@__crt_stdio_output@@AEAA_NXZ 0000000180051ef8 f i libucrt:output.obj
 0001:00050f00       ?type_case_u@?$output_processor@_WV?$string_output_adapter@_W@__crt_stdio_output@@V?$positional_parameter_base@_WV?$string_output_adapter@_W@__crt_stdio_output@@@2@@__crt_stdio_output@@AEAA_NXZ 0000000180051f00 f i libucrt:output.obj
 0001:00050f08       ?type_case_u@?$output_processor@_WV?$string_output_adapter@_W@__crt_stdio_output@@V?$standard_base@_WV?$string_output_adapter@_W@__crt_stdio_output@@@2@@__crt_stdio_output@@AEAA_NXZ 0000000180051f08 f i libucrt:output.obj
 0001:00050f10       ?type_case_x@?$output_processor@DV?$stream_output_adapter@D@__crt_stdio_output@@V?$format_validation_base@DV?$stream_output_adapter@D@__crt_stdio_output@@@2@@__crt_stdio_output@@AEAA_NXZ 0000000180051f10 f i libucrt:output.obj
 0001:00050f18       ?type_case_x@?$output_processor@DV?$stream_output_adapter@D@__crt_stdio_output@@V?$positional_parameter_base@DV?$stream_output_adapter@D@__crt_stdio_output@@@2@@__crt_stdio_output@@AEAA_NXZ 0000000180051f18 f i libucrt:output.obj
 0001:00050f20       ?type_case_x@?$output_processor@DV?$stream_output_adapter@D@__crt_stdio_output@@V?$standard_base@DV?$stream_output_adapter@D@__crt_stdio_output@@@2@@__crt_stdio_output@@AEAA_NXZ 0000000180051f20 f i libucrt:output.obj
 0001:00050f28       ?type_case_x@?$output_processor@DV?$string_output_adapter@D@__crt_stdio_output@@V?$format_validation_base@DV?$string_output_adapter@D@__crt_stdio_output@@@2@@__crt_stdio_output@@AEAA_NXZ 0000000180051f28 f i libucrt:output.obj
 0001:00050f30       ?type_case_x@?$output_processor@DV?$string_output_adapter@D@__crt_stdio_output@@V?$positional_parameter_base@DV?$string_output_adapter@D@__crt_stdio_output@@@2@@__crt_stdio_output@@AEAA_NXZ 0000000180051f30 f i libucrt:output.obj
 0001:00050f38       ?type_case_x@?$output_processor@DV?$string_output_adapter@D@__crt_stdio_output@@V?$standard_base@DV?$string_output_adapter@D@__crt_stdio_output@@@2@@__crt_stdio_output@@AEAA_NXZ 0000000180051f38 f i libucrt:output.obj
 0001:00050f40       ?type_case_x@?$output_processor@_WV?$stream_output_adapter@_W@__crt_stdio_output@@V?$format_validation_base@_WV?$stream_output_adapter@_W@__crt_stdio_output@@@2@@__crt_stdio_output@@AEAA_NXZ 0000000180051f40 f i libucrt:output.obj
 0001:00050f48       ?type_case_x@?$output_processor@_WV?$stream_output_adapter@_W@__crt_stdio_output@@V?$positional_parameter_base@_WV?$stream_output_adapter@_W@__crt_stdio_output@@@2@@__crt_stdio_output@@AEAA_NXZ 0000000180051f48 f i libucrt:output.obj
 0001:00050f50       ?type_case_x@?$output_processor@_WV?$stream_output_adapter@_W@__crt_stdio_output@@V?$standard_base@_WV?$stream_output_adapter@_W@__crt_stdio_output@@@2@@__crt_stdio_output@@AEAA_NXZ 0000000180051f50 f i libucrt:output.obj
 0001:00050f58       ?type_case_x@?$output_processor@_WV?$string_output_adapter@_W@__crt_stdio_output@@V?$format_validation_base@_WV?$string_output_adapter@_W@__crt_stdio_output@@@2@@__crt_stdio_output@@AEAA_NXZ 0000000180051f58 f i libucrt:output.obj
 0001:00050f60       ?type_case_x@?$output_processor@_WV?$string_output_adapter@_W@__crt_stdio_output@@V?$positional_parameter_base@_WV?$string_output_adapter@_W@__crt_stdio_output@@@2@@__crt_stdio_output@@AEAA_NXZ 0000000180051f60 f i libucrt:output.obj
 0001:00050f68       ?type_case_x@?$output_processor@_WV?$string_output_adapter@_W@__crt_stdio_output@@V?$standard_base@_WV?$string_output_adapter@_W@__crt_stdio_output@@@2@@__crt_stdio_output@@AEAA_NXZ 0000000180051f68 f i libucrt:output.obj
 0001:00050f70       ?unget@?$c_string_character_source@D@__crt_strtox@@QEAAXD@Z 0000000180051f70 f i libucrt:output.obj
 0001:00050f9c       ?unget@?$c_string_character_source@_W@__crt_strtox@@QEAAX_W@Z 0000000180051f9c f i libucrt:output.obj
 0001:00050fcc       ?unset_flag@?$output_processor@DV?$stream_output_adapter@D@__crt_stdio_output@@V?$format_validation_base@DV?$stream_output_adapter@D@__crt_stdio_output@@@2@@__crt_stdio_output@@AEAAXI@Z 0000000180051fcc f i libucrt:output.obj
 0001:00050fd4       ?unset_flag@?$output_processor@DV?$stream_output_adapter@D@__crt_stdio_output@@V?$positional_parameter_base@DV?$stream_output_adapter@D@__crt_stdio_output@@@2@@__crt_stdio_output@@AEAAXI@Z 0000000180051fd4 f i libucrt:output.obj
 0001:00050fdc       ?unset_flag@?$output_processor@DV?$stream_output_adapter@D@__crt_stdio_output@@V?$standard_base@DV?$stream_output_adapter@D@__crt_stdio_output@@@2@@__crt_stdio_output@@AEAAXI@Z 0000000180051fdc f i libucrt:output.obj
 0001:00050fe4       ?unset_flag@?$output_processor@DV?$string_output_adapter@D@__crt_stdio_output@@V?$format_validation_base@DV?$string_output_adapter@D@__crt_stdio_output@@@2@@__crt_stdio_output@@AEAAXI@Z 0000000180051fe4 f i libucrt:output.obj
 0001:00050fec       ?unset_flag@?$output_processor@DV?$string_output_adapter@D@__crt_stdio_output@@V?$positional_parameter_base@DV?$string_output_adapter@D@__crt_stdio_output@@@2@@__crt_stdio_output@@AEAAXI@Z 0000000180051fec f i libucrt:output.obj
 0001:00050ff4       ?unset_flag@?$output_processor@DV?$string_output_adapter@D@__crt_stdio_output@@V?$standard_base@DV?$string_output_adapter@D@__crt_stdio_output@@@2@@__crt_stdio_output@@AEAAXI@Z 0000000180051ff4 f i libucrt:output.obj
 0001:00050ffc       ?unset_flag@?$output_processor@_WV?$stream_output_adapter@_W@__crt_stdio_output@@V?$format_validation_base@_WV?$stream_output_adapter@_W@__crt_stdio_output@@@2@@__crt_stdio_output@@AEAAXI@Z 0000000180051ffc f i libucrt:output.obj
 0001:00051004       ?unset_flag@?$output_processor@_WV?$stream_output_adapter@_W@__crt_stdio_output@@V?$positional_parameter_base@_WV?$stream_output_adapter@_W@__crt_stdio_output@@@2@@__crt_stdio_output@@AEAAXI@Z 0000000180052004 f i libucrt:output.obj
 0001:0005100c       ?unset_flag@?$output_processor@_WV?$stream_output_adapter@_W@__crt_stdio_output@@V?$standard_base@_WV?$stream_output_adapter@_W@__crt_stdio_output@@@2@@__crt_stdio_output@@AEAAXI@Z 000000018005200c f i libucrt:output.obj
 0001:00051014       ?unset_flag@?$output_processor@_WV?$string_output_adapter@_W@__crt_stdio_output@@V?$format_validation_base@_WV?$string_output_adapter@_W@__crt_stdio_output@@@2@@__crt_stdio_output@@AEAAXI@Z 0000000180052014 f i libucrt:output.obj
 0001:0005101c       ?unset_flag@?$output_processor@_WV?$string_output_adapter@_W@__crt_stdio_output@@V?$positional_parameter_base@_WV?$string_output_adapter@_W@__crt_stdio_output@@@2@@__crt_stdio_output@@AEAAXI@Z 000000018005201c f i libucrt:output.obj
 0001:00051024       ?unset_flag@?$output_processor@_WV?$string_output_adapter@_W@__crt_stdio_output@@V?$standard_base@_WV?$string_output_adapter@_W@__crt_stdio_output@@@2@@__crt_stdio_output@@AEAAXI@Z 0000000180052024 f i libucrt:output.obj
 0001:0005102c       ?update_field_width@?$positional_parameter_base@DV?$stream_output_adapter@D@__crt_stdio_output@@@__crt_stdio_output@@IEAA_NXZ 000000018005202c f i libucrt:output.obj
 0001:0005119c       ?update_field_width@?$positional_parameter_base@DV?$string_output_adapter@D@__crt_stdio_output@@@__crt_stdio_output@@IEAA_NXZ 000000018005219c f i libucrt:output.obj
 0001:0005130c       ?update_field_width@?$positional_parameter_base@_WV?$stream_output_adapter@_W@__crt_stdio_output@@@__crt_stdio_output@@IEAA_NXZ 000000018005230c f i libucrt:output.obj
 0001:00051480       ?update_field_width@?$positional_parameter_base@_WV?$string_output_adapter@_W@__crt_stdio_output@@@__crt_stdio_output@@IEAA_NXZ 0000000180052480 f i libucrt:output.obj
 0001:000515f4       ?update_field_width@?$standard_base@DV?$stream_output_adapter@D@__crt_stdio_output@@@__crt_stdio_output@@IEAA_NXZ 00000001800525f4 f i libucrt:output.obj
 0001:00051608       ?update_field_width@?$standard_base@DV?$string_output_adapter@D@__crt_stdio_output@@@__crt_stdio_output@@IEAA_NXZ 0000000180052608 f i libucrt:output.obj
 0001:0005161c       ?update_field_width@?$standard_base@_WV?$stream_output_adapter@_W@__crt_stdio_output@@@__crt_stdio_output@@IEAA_NXZ 000000018005261c f i libucrt:output.obj
 0001:00051630       ?update_field_width@?$standard_base@_WV?$string_output_adapter@_W@__crt_stdio_output@@@__crt_stdio_output@@IEAA_NXZ 0000000180052630 f i libucrt:output.obj
 0001:00051650       ?update_locale@__crt_cached_ptd_host@@AEAAXXZ 0000000180052650 f i libucrt:output.obj
 0001:00051660       ?update_locale_slow@__crt_cached_ptd_host@@AEAAXXZ 0000000180052660 f i libucrt:output.obj
 0001:000516d8       ?update_precision@?$positional_parameter_base@DV?$stream_output_adapter@D@__crt_stdio_output@@@__crt_stdio_output@@IEAA_NXZ 00000001800526d8 f i libucrt:output.obj
 0001:00051848       ?update_precision@?$positional_parameter_base@DV?$string_output_adapter@D@__crt_stdio_output@@@__crt_stdio_output@@IEAA_NXZ 0000000180052848 f i libucrt:output.obj
 0001:000519b8       ?update_precision@?$positional_parameter_base@_WV?$stream_output_adapter@_W@__crt_stdio_output@@@__crt_stdio_output@@IEAA_NXZ 00000001800529b8 f i libucrt:output.obj
 0001:00051b2c       ?update_precision@?$positional_parameter_base@_WV?$string_output_adapter@_W@__crt_stdio_output@@@__crt_stdio_output@@IEAA_NXZ 0000000180052b2c f i libucrt:output.obj
 0001:00051ca0       ?update_precision@?$standard_base@DV?$stream_output_adapter@D@__crt_stdio_output@@@__crt_stdio_output@@IEAA_NXZ 0000000180052ca0 f i libucrt:output.obj
 0001:00051cb4       ?update_precision@?$standard_base@DV?$string_output_adapter@D@__crt_stdio_output@@@__crt_stdio_output@@IEAA_NXZ 0000000180052cb4 f i libucrt:output.obj
 0001:00051cc8       ?update_precision@?$standard_base@_WV?$stream_output_adapter@_W@__crt_stdio_output@@@__crt_stdio_output@@IEAA_NXZ 0000000180052cc8 f i libucrt:output.obj
 0001:00051cdc       ?update_precision@?$standard_base@_WV?$string_output_adapter@_W@__crt_stdio_output@@@__crt_stdio_output@@IEAA_NXZ 0000000180052cdc f i libucrt:output.obj
 0001:00051cf0       ?valid@__crt_stdio_stream@@QEBA_NXZ 0000000180052cf0 f i libucrt:output.obj
 0001:00051cf8       ?validate@?$c_string_character_source@D@__crt_strtox@@QEBA_NXZ 0000000180052cf8 f i libucrt:output.obj
 0001:00051d20       ?validate@?$c_string_character_source@_W@__crt_strtox@@QEBA_NXZ 0000000180052d20 f i libucrt:output.obj
 0001:00051d48       ?validate@?$stream_output_adapter@D@__crt_stdio_output@@QEBA_NAEAV__crt_cached_ptd_host@@@Z 0000000180052d48 f i libucrt:output.obj
 0001:00051d88       ?validate@?$stream_output_adapter@_W@__crt_stdio_output@@QEBA_NAEAV__crt_cached_ptd_host@@@Z 0000000180052d88 f i libucrt:output.obj
 0001:00051dc4       ?validate@?$string_output_adapter@D@__crt_stdio_output@@QEBA_NAEAV__crt_cached_ptd_host@@@Z 0000000180052dc4 f i libucrt:output.obj
 0001:00051e00       ?validate@?$string_output_adapter@_W@__crt_stdio_output@@QEBA_NAEAV__crt_cached_ptd_host@@@Z 0000000180052e00 f i libucrt:output.obj
 0001:00051e3c       ?validate_and_store_parameter_data@?$positional_parameter_base@DV?$stream_output_adapter@D@__crt_stdio_output@@@__crt_stdio_output@@AEAA_NAEAUparameter_data@12@W4parameter_type@12@DW4length_modifier@2@@Z 0000000180052e3c f i libucrt:output.obj
 0001:00051ea0       ?validate_and_store_parameter_data@?$positional_parameter_base@DV?$string_output_adapter@D@__crt_stdio_output@@@__crt_stdio_output@@AEAA_NAEAUparameter_data@12@W4parameter_type@12@DW4length_modifier@2@@Z 0000000180052ea0 f i libucrt:output.obj
 0001:00051f04       ?validate_and_store_parameter_data@?$positional_parameter_base@_WV?$stream_output_adapter@_W@__crt_stdio_output@@@__crt_stdio_output@@AEAA_NAEAUparameter_data@12@W4parameter_type@12@_WW4length_modifier@2@@Z 0000000180052f04 f i libucrt:output.obj
 0001:00051f68       ?validate_and_store_parameter_data@?$positional_parameter_base@_WV?$string_output_adapter@_W@__crt_stdio_output@@@__crt_stdio_output@@AEAA_NAEAUparameter_data@12@W4parameter_type@12@_WW4length_modifier@2@@Z 0000000180052f68 f i libucrt:output.obj
 0001:00051fcc       ?validate_and_update_state_at_beginning_of_format_character@?$positional_parameter_base@DV?$stream_output_adapter@D@__crt_stdio_output@@@__crt_stdio_output@@IEAA_NXZ 0000000180052fcc f i libucrt:output.obj
 0001:00052110       ?validate_and_update_state_at_beginning_of_format_character@?$positional_parameter_base@DV?$string_output_adapter@D@__crt_stdio_output@@@__crt_stdio_output@@IEAA_NXZ 0000000180053110 f i libucrt:output.obj
 0001:00052254       ?validate_and_update_state_at_beginning_of_format_character@?$positional_parameter_base@_WV?$stream_output_adapter@_W@__crt_stdio_output@@@__crt_stdio_output@@IEAA_NXZ 0000000180053254 f i libucrt:output.obj
 0001:000523a4       ?validate_and_update_state_at_beginning_of_format_character@?$positional_parameter_base@_WV?$string_output_adapter@_W@__crt_stdio_output@@@__crt_stdio_output@@IEAA_NXZ 00000001800533a4 f i libucrt:output.obj
 0001:000524f4       ?validate_and_update_state_at_beginning_of_format_character@?$standard_base@DV?$stream_output_adapter@D@__crt_stdio_output@@@__crt_stdio_output@@IEAA_NXZ 00000001800534f4 f i libucrt:output.obj
 0001:000524f8       ?validate_and_update_state_at_beginning_of_format_character@?$standard_base@DV?$string_output_adapter@D@__crt_stdio_output@@@__crt_stdio_output@@IEAA_NXZ 00000001800534f8 f i libucrt:output.obj
 0001:000524fc       ?validate_and_update_state_at_beginning_of_format_character@?$standard_base@_WV?$stream_output_adapter@_W@__crt_stdio_output@@@__crt_stdio_output@@IEAA_NXZ 00000001800534fc f i libucrt:output.obj
 0001:00052500       ?validate_and_update_state_at_beginning_of_format_character@?$standard_base@_WV?$string_output_adapter@_W@__crt_stdio_output@@@__crt_stdio_output@@IEAA_NXZ 0000000180053500 f i libucrt:output.obj
 0001:00052504       ?validate_and_update_state_at_end_of_format_string@?$format_validation_base@DV?$stream_output_adapter@D@__crt_stdio_output@@@__crt_stdio_output@@IEAA_NXZ 0000000180053504 f i libucrt:output.obj
 0001:0005254c       ?validate_and_update_state_at_end_of_format_string@?$format_validation_base@DV?$string_output_adapter@D@__crt_stdio_output@@@__crt_stdio_output@@IEAA_NXZ 000000018005354c f i libucrt:output.obj
 0001:00052594       ?validate_and_update_state_at_end_of_format_string@?$format_validation_base@_WV?$stream_output_adapter@_W@__crt_stdio_output@@@__crt_stdio_output@@IEAA_NXZ 0000000180053594 f i libucrt:output.obj
 0001:000525dc       ?validate_and_update_state_at_end_of_format_string@?$format_validation_base@_WV?$string_output_adapter@_W@__crt_stdio_output@@@__crt_stdio_output@@IEAA_NXZ 00000001800535dc f i libucrt:output.obj
 0001:00052624       ?validate_and_update_state_at_end_of_format_string@?$positional_parameter_base@DV?$stream_output_adapter@D@__crt_stdio_output@@@__crt_stdio_output@@IEAA_NXZ 0000000180053624 f i libucrt:output.obj
 0001:000526dc       ?validate_and_update_state_at_end_of_format_string@?$positional_parameter_base@DV?$string_output_adapter@D@__crt_stdio_output@@@__crt_stdio_output@@IEAA_NXZ 00000001800536dc f i libucrt:output.obj
 0001:00052794       ?validate_and_update_state_at_end_of_format_string@?$positional_parameter_base@_WV?$stream_output_adapter@_W@__crt_stdio_output@@@__crt_stdio_output@@IEAA_NXZ 0000000180053794 f i libucrt:output.obj
 0001:0005284c       ?validate_and_update_state_at_end_of_format_string@?$positional_parameter_base@_WV?$string_output_adapter@_W@__crt_stdio_output@@@__crt_stdio_output@@IEAA_NXZ 000000018005384c f i libucrt:output.obj
 0001:00052904       ?validate_and_update_state_at_end_of_format_string@?$standard_base@DV?$stream_output_adapter@D@__crt_stdio_output@@@__crt_stdio_output@@IEBA_NXZ 0000000180053904 f i libucrt:output.obj
 0001:00052908       ?validate_and_update_state_at_end_of_format_string@?$standard_base@DV?$string_output_adapter@D@__crt_stdio_output@@@__crt_stdio_output@@IEBA_NXZ 0000000180053908 f i libucrt:output.obj
 0001:0005290c       ?validate_and_update_state_at_end_of_format_string@?$standard_base@_WV?$stream_output_adapter@_W@__crt_stdio_output@@@__crt_stdio_output@@IEBA_NXZ 000000018005390c f i libucrt:output.obj
 0001:00052910       ?validate_and_update_state_at_end_of_format_string@?$standard_base@_WV?$string_output_adapter@_W@__crt_stdio_output@@@__crt_stdio_output@@IEBA_NXZ 0000000180053910 f i libucrt:output.obj
 0001:00052914       ?validate_state_for_type_case_a@?$positional_parameter_base@DV?$stream_output_adapter@D@__crt_stdio_output@@@__crt_stdio_output@@IEAA_NXZ 0000000180053914 f i libucrt:output.obj
 0001:000529f8       ?validate_state_for_type_case_a@?$positional_parameter_base@DV?$string_output_adapter@D@__crt_stdio_output@@@__crt_stdio_output@@IEAA_NXZ 00000001800539f8 f i libucrt:output.obj
 0001:00052adc       ?validate_state_for_type_case_a@?$positional_parameter_base@_WV?$stream_output_adapter@_W@__crt_stdio_output@@@__crt_stdio_output@@IEAA_NXZ 0000000180053adc f i libucrt:output.obj
 0001:00052bc0       ?validate_state_for_type_case_a@?$positional_parameter_base@_WV?$string_output_adapter@_W@__crt_stdio_output@@@__crt_stdio_output@@IEAA_NXZ 0000000180053bc0 f i libucrt:output.obj
 0001:00052ca4       ?validate_state_for_type_case_a@?$standard_base@DV?$stream_output_adapter@D@__crt_stdio_output@@@__crt_stdio_output@@IEBA_NXZ 0000000180053ca4 f i libucrt:output.obj
 0001:00052ca8       ?validate_state_for_type_case_a@?$standard_base@DV?$string_output_adapter@D@__crt_stdio_output@@@__crt_stdio_output@@IEBA_NXZ 0000000180053ca8 f i libucrt:output.obj
 0001:00052cac       ?validate_state_for_type_case_a@?$standard_base@_WV?$stream_output_adapter@_W@__crt_stdio_output@@@__crt_stdio_output@@IEBA_NXZ 0000000180053cac f i libucrt:output.obj
 0001:00052cb0       ?validate_state_for_type_case_a@?$standard_base@_WV?$string_output_adapter@_W@__crt_stdio_output@@@__crt_stdio_output@@IEBA_NXZ 0000000180053cb0 f i libucrt:output.obj
 0001:00052cb4       ?validate_stream_is_ansi_if_required@?$__acrt_stdio_char_traits@D@@SA_NQEAU_iobuf@@@Z 0000000180053cb4 f i libucrt:output.obj
 0001:00052d50       ?validate_stream_is_ansi_if_required@?$__acrt_stdio_char_traits@_W@@SA_NQEAU_iobuf@@@Z 0000000180053d50 f i libucrt:output.obj
 0001:00052d54       ?wide_character_to_digit@__crt_strtox@@YAH_W@Z 0000000180053d54 f i libucrt:output.obj
 0001:00052ef4       ?wide_null_string@?$output_processor@DV?$stream_output_adapter@D@__crt_stdio_output@@V?$format_validation_base@DV?$stream_output_adapter@D@__crt_stdio_output@@@2@@__crt_stdio_output@@CAPEA_WXZ 0000000180053ef4 f i libucrt:output.obj
 0001:00052efc       ?wide_null_string@?$output_processor@DV?$stream_output_adapter@D@__crt_stdio_output@@V?$positional_parameter_base@DV?$stream_output_adapter@D@__crt_stdio_output@@@2@@__crt_stdio_output@@CAPEA_WXZ 0000000180053efc f i libucrt:output.obj
 0001:00052f04       ?wide_null_string@?$output_processor@DV?$stream_output_adapter@D@__crt_stdio_output@@V?$standard_base@DV?$stream_output_adapter@D@__crt_stdio_output@@@2@@__crt_stdio_output@@CAPEA_WXZ 0000000180053f04 f i libucrt:output.obj
 0001:00052f0c       ?wide_null_string@?$output_processor@DV?$string_output_adapter@D@__crt_stdio_output@@V?$format_validation_base@DV?$string_output_adapter@D@__crt_stdio_output@@@2@@__crt_stdio_output@@CAPEA_WXZ 0000000180053f0c f i libucrt:output.obj
 0001:00052f14       ?wide_null_string@?$output_processor@DV?$string_output_adapter@D@__crt_stdio_output@@V?$positional_parameter_base@DV?$string_output_adapter@D@__crt_stdio_output@@@2@@__crt_stdio_output@@CAPEA_WXZ 0000000180053f14 f i libucrt:output.obj
 0001:00052f1c       ?wide_null_string@?$output_processor@DV?$string_output_adapter@D@__crt_stdio_output@@V?$standard_base@DV?$string_output_adapter@D@__crt_stdio_output@@@2@@__crt_stdio_output@@CAPEA_WXZ 0000000180053f1c f i libucrt:output.obj
 0001:00052f24       ?wide_null_string@?$output_processor@_WV?$stream_output_adapter@_W@__crt_stdio_output@@V?$format_validation_base@_WV?$stream_output_adapter@_W@__crt_stdio_output@@@2@@__crt_stdio_output@@CAPEA_WXZ 0000000180053f24 f i libucrt:output.obj
 0001:00052f2c       ?wide_null_string@?$output_processor@_WV?$stream_output_adapter@_W@__crt_stdio_output@@V?$positional_parameter_base@_WV?$stream_output_adapter@_W@__crt_stdio_output@@@2@@__crt_stdio_output@@CAPEA_WXZ 0000000180053f2c f i libucrt:output.obj
 0001:00052f34       ?wide_null_string@?$output_processor@_WV?$stream_output_adapter@_W@__crt_stdio_output@@V?$standard_base@_WV?$stream_output_adapter@_W@__crt_stdio_output@@@2@@__crt_stdio_output@@CAPEA_WXZ 0000000180053f34 f i libucrt:output.obj
 0001:00052f3c       ?wide_null_string@?$output_processor@_WV?$string_output_adapter@_W@__crt_stdio_output@@V?$format_validation_base@_WV?$string_output_adapter@_W@__crt_stdio_output@@@2@@__crt_stdio_output@@CAPEA_WXZ 0000000180053f3c f i libucrt:output.obj
 0001:00052f44       ?wide_null_string@?$output_processor@_WV?$string_output_adapter@_W@__crt_stdio_output@@V?$positional_parameter_base@_WV?$string_output_adapter@_W@__crt_stdio_output@@@2@@__crt_stdio_output@@CAPEA_WXZ 0000000180053f44 f i libucrt:output.obj
 0001:00052f4c       ?wide_null_string@?$output_processor@_WV?$string_output_adapter@_W@__crt_stdio_output@@V?$standard_base@_WV?$string_output_adapter@_W@__crt_stdio_output@@@2@@__crt_stdio_output@@CAPEA_WXZ 0000000180053f4c f i libucrt:output.obj
 0001:00052f54       ?write_character@?$output_adapter_common@DV?$stream_output_adapter@D@__crt_stdio_output@@@__crt_stdio_output@@QEBAXDQEAHAEAV__crt_cached_ptd_host@@@Z 0000000180053f54 f i libucrt:output.obj
 0001:00052fa0       ?write_character@?$output_adapter_common@_WV?$stream_output_adapter@_W@__crt_stdio_output@@@__crt_stdio_output@@QEBAX_WQEAHAEAV__crt_cached_ptd_host@@@Z 0000000180053fa0 f i libucrt:output.obj
 0001:00052ff0       ?write_character@?$string_output_adapter@D@__crt_stdio_output@@QEBA_NDQEAHAEAV__crt_cached_ptd_host@@@Z 0000000180053ff0 f i libucrt:output.obj
 0001:00053038       ?write_character@?$string_output_adapter@_W@__crt_stdio_output@@QEBA_N_WQEAHAEAV__crt_cached_ptd_host@@@Z 0000000180054038 f i libucrt:output.obj
 0001:00053080       ?write_character_without_count_update@?$stream_output_adapter@D@__crt_stdio_output@@QEBA_NDAEAV__crt_cached_ptd_host@@@Z 0000000180054080 f i libucrt:output.obj
 0001:000530c0       ?write_character_without_count_update@?$stream_output_adapter@_W@__crt_stdio_output@@QEBA_N_WAEAV__crt_cached_ptd_host@@@Z 00000001800540c0 f i libucrt:output.obj
 0001:00053104       ?write_stored_string_tchar@?$output_processor@DV?$stream_output_adapter@D@__crt_stdio_output@@V?$format_validation_base@DV?$stream_output_adapter@D@__crt_stdio_output@@@2@@__crt_stdio_output@@AEAA_ND@Z 0000000180054104 f i libucrt:output.obj
 0001:00053238       ?write_stored_string_tchar@?$output_processor@DV?$stream_output_adapter@D@__crt_stdio_output@@V?$positional_parameter_base@DV?$stream_output_adapter@D@__crt_stdio_output@@@2@@__crt_stdio_output@@AEAA_ND@Z 0000000180054238 f i libucrt:output.obj
 0001:0005336c       ?write_stored_string_tchar@?$output_processor@DV?$stream_output_adapter@D@__crt_stdio_output@@V?$standard_base@DV?$stream_output_adapter@D@__crt_stdio_output@@@2@@__crt_stdio_output@@AEAA_ND@Z 000000018005436c f i libucrt:output.obj
 0001:000534a0       ?write_stored_string_tchar@?$output_processor@DV?$string_output_adapter@D@__crt_stdio_output@@V?$format_validation_base@DV?$string_output_adapter@D@__crt_stdio_output@@@2@@__crt_stdio_output@@AEAA_ND@Z 00000001800544a0 f i libucrt:output.obj
 0001:00053588       ?write_stored_string_tchar@?$output_processor@DV?$string_output_adapter@D@__crt_stdio_output@@V?$positional_parameter_base@DV?$string_output_adapter@D@__crt_stdio_output@@@2@@__crt_stdio_output@@AEAA_ND@Z 0000000180054588 f i libucrt:output.obj
 0001:00053670       ?write_stored_string_tchar@?$output_processor@DV?$string_output_adapter@D@__crt_stdio_output@@V?$standard_base@DV?$string_output_adapter@D@__crt_stdio_output@@@2@@__crt_stdio_output@@AEAA_ND@Z 0000000180054670 f i libucrt:output.obj
 0001:00053758       ?write_stored_string_tchar@?$output_processor@_WV?$stream_output_adapter@_W@__crt_stdio_output@@V?$format_validation_base@_WV?$stream_output_adapter@_W@__crt_stdio_output@@@2@@__crt_stdio_output@@AEAA_N_W@Z 0000000180054758 f i libucrt:output.obj
 0001:0005388c       ?write_stored_string_tchar@?$output_processor@_WV?$stream_output_adapter@_W@__crt_stdio_output@@V?$positional_parameter_base@_WV?$stream_output_adapter@_W@__crt_stdio_output@@@2@@__crt_stdio_output@@AEAA_N_W@Z 000000018005488c f i libucrt:output.obj
 0001:000539c0       ?write_stored_string_tchar@?$output_processor@_WV?$stream_output_adapter@_W@__crt_stdio_output@@V?$standard_base@_WV?$stream_output_adapter@_W@__crt_stdio_output@@@2@@__crt_stdio_output@@AEAA_N_W@Z 00000001800549c0 f i libucrt:output.obj
 0001:00053af4       ?write_stored_string_tchar@?$output_processor@_WV?$string_output_adapter@_W@__crt_stdio_output@@V?$format_validation_base@_WV?$string_output_adapter@_W@__crt_stdio_output@@@2@@__crt_stdio_output@@AEAA_N_W@Z 0000000180054af4 f i libucrt:output.obj
 0001:00053c08       ?write_stored_string_tchar@?$output_processor@_WV?$string_output_adapter@_W@__crt_stdio_output@@V?$positional_parameter_base@_WV?$string_output_adapter@_W@__crt_stdio_output@@@2@@__crt_stdio_output@@AEAA_N_W@Z 0000000180054c08 f i libucrt:output.obj
 0001:00053d1c       ?write_stored_string_tchar@?$output_processor@_WV?$string_output_adapter@_W@__crt_stdio_output@@V?$standard_base@_WV?$string_output_adapter@_W@__crt_stdio_output@@@2@@__crt_stdio_output@@AEAA_N_W@Z 0000000180054d1c f i libucrt:output.obj
 0001:00053e30       ?write_string@?$stream_output_adapter@D@__crt_stdio_output@@QEBAXQEBDHQEAHAEAV__crt_cached_ptd_host@@@Z 0000000180054e30 f i libucrt:output.obj
 0001:00053e58       ?write_string@?$stream_output_adapter@_W@__crt_stdio_output@@QEBAXQEB_WHQEAHAEAV__crt_cached_ptd_host@@@Z 0000000180054e58 f i libucrt:output.obj
 0001:00053e80       ?write_string@?$string_output_adapter@D@__crt_stdio_output@@QEBAXQEBDHQEAHAEAV__crt_cached_ptd_host@@@Z 0000000180054e80 f i libucrt:output.obj
 0001:00053f24       ?write_string@?$string_output_adapter@_W@__crt_stdio_output@@QEBAXQEB_WHQEAHAEAV__crt_cached_ptd_host@@@Z 0000000180054f24 f i libucrt:output.obj
 0001:00053fcc       ?write_string_impl@?$output_adapter_common@DV?$stream_output_adapter@D@__crt_stdio_output@@@__crt_stdio_output@@IEBAXQEBDHQEAHAEAV__crt_cached_ptd_host@@@Z 0000000180054fcc f i libucrt:output.obj
 0001:00054098       ?write_string_impl@?$output_adapter_common@_WV?$stream_output_adapter@_W@__crt_stdio_output@@@__crt_stdio_output@@IEBAXQEB_WHQEAHAEAV__crt_cached_ptd_host@@@Z 0000000180055098 f i libucrt:output.obj
 0001:00054178       __acrt_disable_global_locale_sync 0000000180055178 f i libucrt:output.obj
 0001:00054180       __acrt_isleadbyte_l_noupdate 0000000180055180 f i libucrt:output.obj
 0001:000541a4       __acrt_locale_get_ctype_array_value 00000001800551a4 f i libucrt:output.obj
 0001:000541bc       __ascii_iswalpha           00000001800551bc f i libucrt:output.obj
 0001:000541d8       __ascii_toupper            00000001800551d8 f i libucrt:output.obj
 0001:000541e8       __ascii_towupper           00000001800551e8 f i libucrt:output.obj
 0001:000541f8       __stdio_common_vfprintf    00000001800551f8 f   libucrt:output.obj
 0001:0005431c       __stdio_common_vfprintf_p  000000018005531c f   libucrt:output.obj
 0001:00054440       __stdio_common_vfprintf_s  0000000180055440 f   libucrt:output.obj
 0001:00054564       __stdio_common_vfwprintf   0000000180055564 f   libucrt:output.obj
 0001:00054688       __stdio_common_vfwprintf_p 0000000180055688 f   libucrt:output.obj
 0001:000547ac       __stdio_common_vfwprintf_s 00000001800557ac f   libucrt:output.obj
 0001:000548d0       __stdio_common_vsnprintf_s 00000001800558d0 f   libucrt:output.obj
 0001:00054aa8       __stdio_common_vsnwprintf_s 0000000180055aa8 f   libucrt:output.obj
 0001:00054c84       __stdio_common_vsprintf    0000000180055c84 f   libucrt:output.obj
 0001:00054ed8       __stdio_common_vsprintf_p  0000000180055ed8 f   libucrt:output.obj
 0001:00054f90       __stdio_common_vsprintf_s  0000000180055f90 f   libucrt:output.obj
 0001:000550a4       __stdio_common_vswprintf   00000001800560a4 f   libucrt:output.obj
 0001:00055300       __stdio_common_vswprintf_p 0000000180056300 f   libucrt:output.obj
 0001:000553b8       __stdio_common_vswprintf_s 00000001800563b8 f   libucrt:output.obj
 0001:000554cc       _ctype_fast_check_internal 00000001800564cc f i libucrt:output.obj
 0001:000554e0       _isdigit_fast_internal     00000001800564e0 f i libucrt:output.obj
 0001:000554f4       _tolower_fast_internal     00000001800564f4 f i libucrt:output.obj
 0001:00055508       _set_abort_behavior        0000000180056508 f   libucrt:abort.obj
 0001:00055530       abort                      0000000180056530 f   libucrt:abort.obj
 0001:00055588       calloc                     0000000180056588 f   libucrt:calloc.obj
 0001:00055590       ??$is_overflow_condition@_K@__crt_strtox@@YA_NI_K@Z 0000000180056590 f i libucrt:atox.obj
 0001:000555c8       ??$make_c_string_character_source@D$$T@__crt_strtox@@YA?AV?$c_string_character_source@D@0@QEBD$$T@Z 00000001800565c8 f i libucrt:atox.obj
 0001:000555dc       ??$make_c_string_character_source@_W$$T@__crt_strtox@@YA?AV?$c_string_character_source@_W@0@QEB_W$$T@Z 00000001800565dc f i libucrt:atox.obj
 0001:000555f0       ??$parse_integer@KV?$c_string_character_source@D@__crt_strtox@@$00@__crt_strtox@@YAKAEAV__crt_cached_ptd_host@@V?$c_string_character_source@D@0@H_N@Z 00000001800565f0 f i libucrt:atox.obj
 0001:000558e0       ??$parse_integer@KV?$c_string_character_source@_W@__crt_strtox@@$00@__crt_strtox@@YAKAEAV__crt_cached_ptd_host@@V?$c_string_character_source@_W@0@H_N@Z 00000001800568e0 f i libucrt:atox.obj
 0001:0005607c       ??$parse_integer@_KV?$c_string_character_source@D@__crt_strtox@@$00@__crt_strtox@@YA_KAEAV__crt_cached_ptd_host@@V?$c_string_character_source@D@0@H_N@Z 000000018005707c f i libucrt:atox.obj
 0001:00056358       ??$parse_integer@_KV?$c_string_character_source@_W@__crt_strtox@@$00@__crt_strtox@@YA_KAEAV__crt_cached_ptd_host@@V?$c_string_character_source@_W@0@H_N@Z 0000000180057358 f i libucrt:atox.obj
 0001:00056adc       ??$parse_integer_from_string@JD$$T@__crt_strtox@@YAJQEBD$$THQEAU__crt_locale_pointers@@@Z 0000000180057adc f i libucrt:atox.obj
 0001:00056b98       ??$parse_integer_from_string@J_W$$T@__crt_strtox@@YAJQEB_W$$THQEAU__crt_locale_pointers@@@Z 0000000180057b98 f i libucrt:atox.obj
 0001:00056c54       ??$parse_integer_from_string@_JD$$T@__crt_strtox@@YA_JQEBD$$THQEAU__crt_locale_pointers@@@Z 0000000180057c54 f i libucrt:atox.obj
 0001:00056d14       ??$parse_integer_from_string@_J_W$$T@__crt_strtox@@YA_JQEB_W$$THQEAU__crt_locale_pointers@@@Z 0000000180057d14 f i libucrt:atox.obj
 0001:00056dd4       ?is_space@__crt_strtox@@YA_NDQEAU__crt_locale_pointers@@@Z 0000000180057dd4 f i libucrt:atox.obj
 0001:00056df4       ?is_space@__crt_strtox@@YA_N_WPEAU__crt_locale_pointers@@@Z 0000000180057df4 f i libucrt:atox.obj
 0001:00056e0c       ?maximum_signed_value@__crt_strtox@@YA_J_K@Z 0000000180057e0c f i libucrt:atox.obj
 0001:00056e18       ?minimum_signed_value@__crt_strtox@@YA_J_K@Z 0000000180057e18 f i libucrt:atox.obj
 0001:00056e24       __acrt_get_locale_data_prefix 0000000180057e24 f i libucrt:atox.obj
 0001:00056e28       _atoi64                    0000000180057e28 f   libucrt:atox.obj
 0001:00056edc       _atoi64_l                  0000000180057edc f   libucrt:atox.obj
 0001:00056f98       _atoi_l                    0000000180057f98 f   libucrt:atox.obj
 0001:00057054       _atol_l                    0000000180058054 f   libucrt:atox.obj
 0001:00057110       _atoll_l                   0000000180058110 f   libucrt:atox.obj
 0001:000571cc       _chvalidchk_l              00000001800581cc f i libucrt:atox.obj
 0001:00057230       _ischartype_l              0000000180058230 f i libucrt:atox.obj
 0001:000572a8       _wtoi                      00000001800582a8 f   libucrt:atox.obj
 0001:00057358       _wtoi64                    0000000180058358 f   libucrt:atox.obj
 0001:0005740c       _wtoi64_l                  000000018005840c f   libucrt:atox.obj
 0001:000574c8       _wtoi_l                    00000001800584c8 f   libucrt:atox.obj
 0001:00057584       _wtol                      0000000180058584 f   libucrt:atox.obj
 0001:00057634       _wtol_l                    0000000180058634 f   libucrt:atox.obj
 0001:000576f0       _wtoll                     00000001800586f0 f   libucrt:atox.obj
 0001:000577a4       _wtoll_l                   00000001800587a4 f   libucrt:atox.obj
 0001:00057860       atoi                       0000000180058860 f   libucrt:atox.obj
 0001:00057910       atol                       0000000180058910 f   libucrt:atox.obj
 0001:000579c0       atoll                      00000001800589c0 f   libucrt:atox.obj
 0001:00057a90       strncmp                    0000000180058a90 f   libucrt:strncmp.obj
 0001:00057b10       ??$?RU__acrt_ptd@@@__crt_internal_free_policy@@QEBAXQEBU__acrt_ptd@@@Z 0000000180058b10 f i libucrt:per_thread_data.obj
 0001:00057d44       ??0?$__crt_unique_heap_ptr@U__acrt_ptd@@U__crt_internal_free_policy@@@@QEAA@QEAU__acrt_ptd@@@Z 0000000180058d44 f i libucrt:per_thread_data.obj
 0001:00057d4c       ??1?$__crt_unique_heap_ptr@U__acrt_ptd@@U__crt_internal_free_policy@@@@QEAA@XZ 0000000180058d4c f i libucrt:per_thread_data.obj
 0001:00057d68       ??B?$__crt_unique_heap_ptr@U__acrt_ptd@@U__crt_internal_free_policy@@@@QEBA_NXZ 0000000180058d68 f i libucrt:per_thread_data.obj
 0001:00057fbc       ?dangerous_get_state_array@?$dual_state_global@PEAU__crt_locale_data@@@__crt_state_management@@QEAAPEAPEAU__crt_locale_data@@XZ 0000000180058fbc f i libucrt:per_thread_data.obj
 0001:000581d0       ?detach@?$__crt_unique_heap_ptr@U__acrt_ptd@@U__crt_internal_free_policy@@@@QEAAPEAU__acrt_ptd@@XZ 00000001800591d0 f i libucrt:per_thread_data.obj
 0001:000581d8       ?get@?$__crt_unique_heap_ptr@U__acrt_ptd@@U__crt_internal_free_policy@@@@QEBAPEAU__acrt_ptd@@XZ 00000001800591d8 f i libucrt:per_thread_data.obj
 0001:000583f8       ?is_valid@?$__crt_unique_heap_ptr@U__acrt_ptd@@U__crt_internal_free_policy@@@@QEBA_NXZ 00000001800593f8 f i libucrt:per_thread_data.obj
 0001:00058400       ?release@?$__crt_unique_heap_ptr@U__acrt_ptd@@U__crt_internal_free_policy@@@@QEAAXXZ 0000000180059400 f i libucrt:per_thread_data.obj
 0001:00058498       ?value@?$dual_state_global@PEAU__crt_locale_data@@@__crt_state_management@@QEAAAEAPEAU__crt_locale_data@@XZ 0000000180059498 f i libucrt:per_thread_data.obj
 0001:0005849c       __acrt_freeptd             000000018005949c f   libucrt:per_thread_data.obj
 0001:000584e0       __acrt_getptd              00000001800594e0 f   libucrt:per_thread_data.obj
 0001:000585b4       __acrt_getptd_head         00000001800595b4 f   libucrt:per_thread_data.obj
 0001:00058658       __acrt_getptd_noexit       0000000180059658 f   libucrt:per_thread_data.obj
 0001:00058720       __acrt_getptd_noexit_explicit 0000000180059720 f   libucrt:per_thread_data.obj
 0001:000587e0       __acrt_initialize_ptd      00000001800597e0 f   libucrt:per_thread_data.obj
 0001:00058820       __acrt_uninitialize_ptd    0000000180059820 f   libucrt:per_thread_data.obj
 0001:00058844       __threadhandle             0000000180059844 f   libucrt:per_thread_data.obj
 0001:0005884c       __threadid                 000000018005984c f   libucrt:per_thread_data.obj
 0001:00058864       ??$?RU__crt_locale_data@@@__crt_internal_free_policy@@QEBAXQEBU__crt_locale_data@@@Z 0000000180059864 f i libucrt:wsetlocale.obj
 0001:0005886c       ??$?RU__crt_locale_pointers@@@__crt_internal_free_policy@@QEBAXQEBU__crt_locale_pointers@@@Z 000000018005986c f i libucrt:wsetlocale.obj
 0001:00058874       ??$?RU__crt_multibyte_data@@@__crt_internal_free_policy@@QEBAXQEBU__crt_multibyte_data@@@Z 0000000180059874 f i libucrt:wsetlocale.obj
 0001:00058c78       ??0?$__crt_unique_heap_ptr@U__crt_locale_data@@U__crt_internal_free_policy@@@@QEAA@QEAU__crt_locale_data@@@Z 0000000180059c78 f i libucrt:wsetlocale.obj
 0001:00058c80       ??0?$__crt_unique_heap_ptr@U__crt_locale_pointers@@U__crt_internal_free_policy@@@@QEAA@QEAU__crt_locale_pointers@@@Z 0000000180059c80 f i libucrt:wsetlocale.obj
 0001:00058c88       ??0?$__crt_unique_heap_ptr@U__crt_multibyte_data@@U__crt_internal_free_policy@@@@QEAA@QEAU__crt_multibyte_data@@@Z 0000000180059c88 f i libucrt:wsetlocale.obj
 0001:00058c90       ??0_expandlocale_locale_name_cache@@QEAA@QEA_W_KQEAU__crt_qualified_locale_data@@@Z 0000000180059c90 f i libucrt:wsetlocale.obj
 0001:00058cec       ??1?$__crt_unique_heap_ptr@U__crt_locale_data@@U__crt_internal_free_policy@@@@QEAA@XZ 0000000180059cec f i libucrt:wsetlocale.obj
 0001:00058d08       ??1?$__crt_unique_heap_ptr@U__crt_locale_pointers@@U__crt_internal_free_policy@@@@QEAA@XZ 0000000180059d08 f i libucrt:wsetlocale.obj
 0001:00058d24       ??1?$__crt_unique_heap_ptr@U__crt_multibyte_data@@U__crt_internal_free_policy@@@@QEAA@XZ 0000000180059d24 f i libucrt:wsetlocale.obj
 0001:00058d40       ??1_expandlocale_locale_name_cache@@QEAA@XZ 0000000180059d40 f i libucrt:wsetlocale.obj
 0001:00058d88       ??B?$__crt_unique_heap_ptr@U__crt_locale_data@@U__crt_internal_free_policy@@@@QEBA_NXZ 0000000180059d88 f i libucrt:wsetlocale.obj
 0001:00058d90       ??B?$__crt_unique_heap_ptr@U__crt_locale_pointers@@U__crt_internal_free_policy@@@@QEBA_NXZ 0000000180059d90 f i libucrt:wsetlocale.obj
 0001:00058d98       ??B?$__crt_unique_heap_ptr@U__crt_multibyte_data@@U__crt_internal_free_policy@@@@QEBA_NXZ 0000000180059d98 f i libucrt:wsetlocale.obj
 0001:00059018       ?commit_locale_name@_expandlocale_locale_name_cache@@QEAAXQEB_W_K@Z 000000018005a018 f i libucrt:wsetlocale.obj
 0001:00059090       ?commit_locale_name_cache_already_updated@_expandlocale_locale_name_cache@@QEAAXQEB_W_K@Z 000000018005a090 f i libucrt:wsetlocale.obj
 0001:000590d0       ?detach@?$__crt_unique_heap_ptr@U__crt_locale_data@@U__crt_internal_free_policy@@@@QEAAPEAU__crt_locale_data@@XZ 000000018005a0d0 f i libucrt:wsetlocale.obj
 0001:000590d8       ?detach@?$__crt_unique_heap_ptr@U__crt_locale_pointers@@U__crt_internal_free_policy@@@@QEAAPEAU__crt_locale_pointers@@XZ 000000018005a0d8 f i libucrt:wsetlocale.obj
 0001:000590e0       ?detach@?$__crt_unique_heap_ptr@U__crt_multibyte_data@@U__crt_internal_free_policy@@@@QEAAPEAU__crt_multibyte_data@@XZ 000000018005a0e0 f i libucrt:wsetlocale.obj
 0001:000590e8       ?get@?$__crt_unique_heap_ptr@U__crt_locale_data@@U__crt_internal_free_policy@@@@QEBAPEAU__crt_locale_data@@XZ 000000018005a0e8 f i libucrt:wsetlocale.obj
 0001:000590ec       ?get@?$__crt_unique_heap_ptr@U__crt_locale_pointers@@U__crt_internal_free_policy@@@@QEBAPEAU__crt_locale_pointers@@XZ 000000018005a0ec f i libucrt:wsetlocale.obj
 0001:000590f0       ?get@?$__crt_unique_heap_ptr@U__crt_multibyte_data@@U__crt_internal_free_policy@@@@QEBAPEAU__crt_multibyte_data@@XZ 000000018005a0f0 f i libucrt:wsetlocale.obj
 0001:000590f4       ?is_valid@?$__crt_unique_heap_ptr@U__crt_locale_data@@U__crt_internal_free_policy@@@@QEBA_NXZ 000000018005a0f4 f i libucrt:wsetlocale.obj
 0001:000590fc       ?is_valid@?$__crt_unique_heap_ptr@U__crt_locale_pointers@@U__crt_internal_free_policy@@@@QEBA_NXZ 000000018005a0fc f i libucrt:wsetlocale.obj
 0001:00059104       ?is_valid@?$__crt_unique_heap_ptr@U__crt_multibyte_data@@U__crt_internal_free_policy@@@@QEBA_NXZ 000000018005a104 f i libucrt:wsetlocale.obj
 0001:0005910c       ?release@?$__crt_unique_heap_ptr@U__crt_locale_data@@U__crt_internal_free_policy@@@@QEAAXXZ 000000018005a10c f i libucrt:wsetlocale.obj
 0001:00059128       ?release@?$__crt_unique_heap_ptr@U__crt_locale_pointers@@U__crt_internal_free_policy@@@@QEAAXXZ 000000018005a128 f i libucrt:wsetlocale.obj
 0001:00059144       ?release@?$__crt_unique_heap_ptr@U__crt_multibyte_data@@U__crt_internal_free_policy@@@@QEAAXXZ 000000018005a144 f i libucrt:wsetlocale.obj
 0001:00059160       __acrt_copy_locale_name    000000018005a160 f   libucrt:wsetlocale.obj
 0001:000591e4       __acrt_set_locale_changed  000000018005a1e4 f   libucrt:wsetlocale.obj
 0001:000591f0       __acrt_uninitialize_locale 000000018005a1f0 f   libucrt:wsetlocale.obj
 0001:00059220       __ascii_tolower            000000018005a220 f i libucrt:wsetlocale.obj
 0001:00059230       __ascii_towlower           000000018005a230 f i libucrt:wsetlocale.obj
 0001:00059240       __lc_lctowcs               000000018005a240 f   libucrt:wsetlocale.obj
 0001:000592e4       __lc_wcstolc               000000018005a2e4 f   libucrt:wsetlocale.obj
 0001:0005944c       _configthreadlocale        000000018005a44c f   libucrt:wsetlocale.obj
 0001:00059578       _create_locale             000000018005a578 f   libucrt:wsetlocale.obj
 0001:00059a70       _free_locale               000000018005aa70 f   libucrt:wsetlocale.obj
 0001:00059b14       _get_current_locale        000000018005ab14 f   libucrt:wsetlocale.obj
 0001:00059bd0       _wcreate_locale            000000018005abd0 f   libucrt:wsetlocale.obj
 0001:00059d18       _wcscats                   000000018005ad18 f   libucrt:wsetlocale.obj
 0001:00059d80       _wsetlocale                000000018005ad80 f   libucrt:wsetlocale.obj
 0001:0005ab9c       __p___mb_cur_max           000000018005bb9c f   libucrt:nlsdata.obj
 0001:0005abd4       _free_base                 000000018005bbd4 f   libucrt:free_base.obj
 0001:0005ac10       _malloc_base               000000018005bc10 f   libucrt:malloc_base.obj
 0001:0005ac70       _msize                     000000018005bc70 f   libucrt:msize.obj
 0001:0005ac78       _msize_base                000000018005bc78 f   libucrt:msize.obj
 0001:0005acb4       _realloc_base              000000018005bcb4 f   libucrt:realloc_base.obj
 0001:0005ad30       __remainder_piby2d2f_forAsm 000000018005bd30 f   libucrt:remainder_piby2f_forasm.obj
 0001:0005ae80       __remainder_piby2_fma3     000000018005be80 f   libucrt:remainder_piby2_forfma3.obj
 0001:0005b070       __remainder_piby2_fma3_bdl 000000018005c070 f   libucrt:remainder_piby2_forfma3.obj
 0001:0005b0e8       _cos_special               000000018005c0e8 f   libucrt:sincos_special.obj
 0001:0005b100       _cosf_special              000000018005c100 f   libucrt:sincos_special.obj
 0001:0005b114       _sin_special               000000018005c114 f   libucrt:sincos_special.obj
 0001:0005b260       _sinf_special              000000018005c260 f   libucrt:sincos_special.obj
 0001:0005b274       _tan_special               000000018005c274 f   libucrt:sincos_special.obj
 0001:0005b288       _tanf_special              000000018005c288 f   libucrt:sincos_special.obj
 0001:0005b29c       _clrfp                     000000018005c29c f   libucrt:fpctrl.obj
 0001:0005b2bc       _ctrlfp                    000000018005c2bc f   libucrt:fpctrl.obj
 0001:0005b338       _set_statfp                000000018005c338 f   libucrt:fpctrl.obj
 0001:0005b358       _statfp                    000000018005c358 f   libucrt:fpctrl.obj
 0001:0005b370       __acrt_initialize_fma3     000000018005c370 f   libucrt:fma3_available.obj
 0001:0005b3e0       _get_FMA3_enable           000000018005c3e0 f   libucrt:fma3_available.obj
 0001:0005b3e8       _set_FMA3_enable           000000018005c3e8 f   libucrt:fma3_available.obj
 0001:0005b400       _pow_special               000000018005c400 f   libucrt:pow_special.obj
 0001:0005b540       _powf_special              000000018005c540 f   libucrt:pow_special.obj
 0001:0005b6b0       __remainder_piby2d2f_forC  000000018005c6b0 f   libucrt:remainder_piby2f_forc.obj
 0001:0005b960       _handle_error              000000018005c960 f   libucrt:libm_error.obj
 0001:0005ba88       _handle_errorf             000000018005ca88 f   libucrt:libm_error.obj
 0001:0005bbbc       _handle_nan                000000018005cbbc f   libucrt:libm_error.obj
 0001:0005bbd8       _handle_nanf               000000018005cbd8 f   libucrt:libm_error.obj
 0001:0005bbf0       __acrt_initialize_locks    000000018005cbf0 f   libucrt:locks.obj
 0001:0005bc38       __acrt_lock                000000018005cc38 f   libucrt:locks.obj
 0001:0005bc60       __acrt_uninitialize_locks  000000018005cc60 f   libucrt:locks.obj
 0001:0005bc98       __acrt_unlock              000000018005cc98 f   libucrt:locks.obj
 0001:0005bcb4       _lock_locales              000000018005ccb4 f   libucrt:locks.obj
 0001:0005bcd0       _unlock_locales            000000018005ccd0 f   libucrt:locks.obj
 0001:0005bce0       __acrt_app_verifier_enabled 000000018005cce0 f   libucrt:peb_access.obj
 0001:0005bcfc       __acrt_is_secure_process   000000018005ccfc f   libucrt:peb_access.obj
 0001:0005bea0       __acrt_get_begin_thread_init_policy 000000018005cea0 f   libucrt:win_policies.obj
 0001:0005bee0       __acrt_get_developer_information_policy 000000018005cee0 f   libucrt:win_policies.obj
 0001:0005bf24       __acrt_get_process_end_policy 000000018005cf24 f   libucrt:win_policies.obj
 0001:0005bf54       __acrt_get_windowing_model_policy 000000018005cf54 f   libucrt:win_policies.obj
 0001:0005bfbc       _calloc_base               000000018005cfbc f   libucrt:calloc_base.obj
 0001:0005c074       ??$__acrt_convert_wcs_mbs_cp@D_WV<lambda_7c9dea7b4ca7285d2cdb541a38da6275>@@U__crt_win32_buffer_internal_dynamic_resizing@@@@YAHQEBDAEAV?$__crt_win32_buffer@_WU__crt_win32_buffer_internal_dynamic_resizing@@@@AEBV<lambda_7c9dea7b4ca7285d2cdb541a38da6275>@@I@Z 000000018005d074 f i libucrt:argv_wildcards.obj
 0001:0005c1f0       ??$__acrt_convert_wcs_mbs_cp@_WDV<lambda_d8593a27d1aa8c02be35c86a17d324c4>@@U__crt_win32_buffer_internal_dynamic_resizing@@@@YAHQEB_WAEAV?$__crt_win32_buffer@DU__crt_win32_buffer_internal_dynamic_resizing@@@@AEBV<lambda_d8593a27d1aa8c02be35c86a17d324c4>@@I@Z 000000018005d1f0 f i libucrt:argv_wildcards.obj
 0001:0005c37c       ??$__acrt_mbs_to_wcs_cp@U__crt_win32_buffer_internal_dynamic_resizing@@@@YAHQEBDAEAV?$__crt_win32_buffer@_WU__crt_win32_buffer_internal_dynamic_resizing@@@@I@Z 000000018005d37c f i libucrt:argv_wildcards.obj
 0001:0005c38c       ??$__acrt_wcs_to_mbs_cp@U__crt_win32_buffer_internal_dynamic_resizing@@@@YAHQEB_WAEAV?$__crt_win32_buffer@DU__crt_win32_buffer_internal_dynamic_resizing@@@@I@Z 000000018005d38c f i libucrt:argv_wildcards.obj
 0001:0005d1bc       ??$tcslen@AEBQEBD@?$__crt_char_traits@D@@SA_KAEBQEBD@Z 000000018005e1bc f i libucrt:argv_wildcards.obj
 0001:0005d1d0       ??$tcslen@AEBQEB_W@?$__crt_char_traits@_W@@SA_KAEBQEB_W@Z 000000018005e1d0 f i libucrt:argv_wildcards.obj
 0001:0005d1e4       ??$tcsncpy_s@AEAPEAD_KAEAPEADAEB_K@?$__crt_char_traits@D@@SAHAEAPEAD$$QEA_K0AEB_K@Z 000000018005e1e4 f i libucrt:argv_wildcards.obj
 0001:0005d1f8       ??$tcsncpy_s@AEAPEA_W_KAEAPEA_WAEB_K@?$__crt_char_traits@_W@@SAHAEAPEA_W$$QEA_K0AEB_K@Z 000000018005e1f8 f i libucrt:argv_wildcards.obj
 0001:0005d20c       ??$tcsncpy_s@PEADAEB_KAEBQEBDAEB_K@?$__crt_char_traits@D@@SAH$$QEAPEADAEB_KAEBQEBD1@Z 000000018005e20c f i libucrt:argv_wildcards.obj
 0001:0005d220       ??$tcsncpy_s@PEAD_KAEBQEBDAEB_K@?$__crt_char_traits@D@@SAH$$QEAPEAD$$QEA_KAEBQEBDAEB_K@Z 000000018005e220 f i libucrt:argv_wildcards.obj
 0001:0005d234       ??$tcsncpy_s@PEA_WAEB_KAEBQEB_WAEB_K@?$__crt_char_traits@_W@@SAH$$QEAPEA_WAEB_KAEBQEB_W1@Z 000000018005e234 f i libucrt:argv_wildcards.obj
 0001:0005d248       ??$tcsncpy_s@PEA_W_KAEBQEB_WAEB_K@?$__crt_char_traits@_W@@SAH$$QEAPEA_W$$QEA_KAEBQEB_WAEB_K@Z 000000018005e248 f i libucrt:argv_wildcards.obj
 0001:0005d25c       ??$tcspbrk@AEAPEADAEAY02$$CBD@?$__crt_char_traits@D@@SAPEADAEAPEADAEAY02$$CBD@Z 000000018005e25c f i libucrt:argv_wildcards.obj
 0001:0005d264       ??$tcspbrk@AEAPEA_WAEAY02$$CB_W@?$__crt_char_traits@_W@@SAPEA_WAEAPEA_WAEAY02$$CB_W@Z 000000018005e264 f i libucrt:argv_wildcards.obj
 0001:0005d26c       ??0?$__crt_unique_handle_t@U__crt_findfile_traits@@@@QEAA@QEAX@Z 000000018005e26c f i libucrt:argv_wildcards.obj
 0001:0005d274       ??0?$__crt_win32_buffer@DU__crt_win32_buffer_internal_dynamic_resizing@@@@QEAA@XZ 000000018005e274 f i libucrt:argv_wildcards.obj
 0001:0005d290       ??0?$__crt_win32_buffer@_WU__crt_win32_buffer_internal_dynamic_resizing@@@@QEAA@XZ 000000018005e290 f i libucrt:argv_wildcards.obj
 0001:0005d2d4       ??0_LocaleUpdate@@QEAA@QEAU__crt_locale_pointers@@@Z 000000018005e2d4 f i libucrt:argv_wildcards.obj
 0001:0005d370       ??1?$__crt_unique_handle_t@U__crt_findfile_traits@@@@QEAA@XZ 000000018005e370 f i libucrt:argv_wildcards.obj
 0001:0005d394       ??1?$__crt_win32_buffer@DU__crt_win32_buffer_internal_dynamic_resizing@@@@QEAA@XZ 000000018005e394 f i libucrt:argv_wildcards.obj
 0001:0005d3b8       ??1?$__crt_win32_buffer@_WU__crt_win32_buffer_internal_dynamic_resizing@@@@QEAA@XZ 000000018005e3b8 f i libucrt:argv_wildcards.obj
 0001:0005d454       ??1_LocaleUpdate@@QEAA@XZ  000000018005e454 f i libucrt:argv_wildcards.obj
 0001:0005d478       ??R<lambda_7c9dea7b4ca7285d2cdb541a38da6275>@@QEBA@IQEBDQEA_W_K@Z 000000018005e478 f i libucrt:argv_wildcards.obj
 0001:0005d508       ??R<lambda_d8593a27d1aa8c02be35c86a17d324c4>@@QEBA@IQEB_WQEAD_K@Z 000000018005e508 f i libucrt:argv_wildcards.obj
 0001:0005d538       ?GetLocaleT@_LocaleUpdate@@QEAAPEAU__crt_locale_pointers@@XZ 000000018005e538 f i libucrt:argv_wildcards.obj
 0001:0005d540       ?__acrt_get_utf8_acp_compatibility_codepage@@YAIXZ 000000018005e540 f i libucrt:argv_wildcards.obj
 0001:0005d58c       ?_deallocate@?$__crt_win32_buffer@DU__crt_win32_buffer_internal_dynamic_resizing@@@@AEAAXXZ 000000018005e58c f i libucrt:argv_wildcards.obj
 0001:0005d5b0       ?_deallocate@?$__crt_win32_buffer@_WU__crt_win32_buffer_internal_dynamic_resizing@@@@AEAAXXZ 000000018005e5b0 f i libucrt:argv_wildcards.obj
 0001:0005d5d4       ?allocate@?$__crt_win32_buffer@DU__crt_win32_buffer_internal_dynamic_resizing@@@@QEAAH_K@Z 000000018005e5d4 f i libucrt:argv_wildcards.obj
 0001:0005d638       ?allocate@?$__crt_win32_buffer@_WU__crt_win32_buffer_internal_dynamic_resizing@@@@QEAAH_K@Z 000000018005e638 f i libucrt:argv_wildcards.obj
 0001:0005d69c       ?allocate@__crt_win32_buffer_internal_dynamic_resizing@@SAHQEAPEAX_KAEBV__crt_win32_buffer_empty_debug_info@@@Z 000000018005e69c f i libucrt:argv_wildcards.obj
 0001:0005d888       ?capacity@?$__crt_win32_buffer@DU__crt_win32_buffer_internal_dynamic_resizing@@@@QEBA_KXZ 000000018005e888 f i libucrt:argv_wildcards.obj
 0001:0005d890       ?capacity@?$__crt_win32_buffer@_WU__crt_win32_buffer_internal_dynamic_resizing@@@@QEBA_KXZ 000000018005e890 f i libucrt:argv_wildcards.obj
 0001:0005d898       ?close@?$__crt_unique_handle_t@U__crt_findfile_traits@@@@QEAAXXZ 000000018005e898 f i libucrt:argv_wildcards.obj
 0001:0005d8bc       ?close@__crt_findfile_traits@@SA_NPEAX@Z 000000018005e8bc f i libucrt:argv_wildcards.obj
 0001:0005d8d0       ?data@?$__crt_win32_buffer@DU__crt_win32_buffer_internal_dynamic_resizing@@@@QEAAPEADXZ 000000018005e8d0 f i libucrt:argv_wildcards.obj
 0001:0005d8d8       ?data@?$__crt_win32_buffer@_WU__crt_win32_buffer_internal_dynamic_resizing@@@@QEAAPEA_WXZ 000000018005e8d8 f i libucrt:argv_wildcards.obj
 0001:0005d8e0       ?deallocate@__crt_win32_buffer_internal_dynamic_resizing@@SAXQEAXAEBV__crt_win32_buffer_empty_debug_info@@@Z 000000018005e8e0 f i libucrt:argv_wildcards.obj
 0001:0005d8e8       ?debug_info@?$__crt_win32_buffer@DU__crt_win32_buffer_internal_dynamic_resizing@@@@QEBAAEBV__crt_win32_buffer_empty_debug_info@@XZ 000000018005e8e8 f i libucrt:argv_wildcards.obj
 0001:0005d8ec       ?debug_info@?$__crt_win32_buffer@_WU__crt_win32_buffer_internal_dynamic_resizing@@@@QEBAAEBV__crt_win32_buffer_empty_debug_info@@XZ 000000018005e8ec f i libucrt:argv_wildcards.obj
 0001:0005da90       ?get@?$__crt_unique_handle_t@U__crt_findfile_traits@@@@QEBAPEAXXZ 000000018005ea90 f i libucrt:argv_wildcards.obj
 0001:0005db3c       ?get_invalid_value@__crt_findfile_traits@@SAPEAXXZ 000000018005eb3c f i libucrt:argv_wildcards.obj
 0001:0005dbfc       ?set_to_nullptr@?$__crt_win32_buffer@DU__crt_win32_buffer_internal_dynamic_resizing@@@@QEAAXXZ 000000018005ebfc f i libucrt:argv_wildcards.obj
 0001:0005dc38       ?set_to_nullptr@?$__crt_win32_buffer@_WU__crt_win32_buffer_internal_dynamic_resizing@@@@QEAAXXZ 000000018005ec38 f i libucrt:argv_wildcards.obj
 0001:0005dc74       ?size@?$__crt_win32_buffer@DU__crt_win32_buffer_internal_dynamic_resizing@@@@QEAAX_K@Z 000000018005ec74 f i libucrt:argv_wildcards.obj
 0001:0005dc7c       ?size@?$__crt_win32_buffer@_WU__crt_win32_buffer_internal_dynamic_resizing@@@@QEAAX_K@Z 000000018005ec7c f i libucrt:argv_wildcards.obj
 0001:0005dc9c       ?strpbrk@@YAPEADQEADQEBD@Z 000000018005ec9c f i libucrt:argv_wildcards.obj
 0001:0005dca4       ?wcspbrk@@YAPEA_WPEA_WPEB_W@Z 000000018005eca4 f i libucrt:argv_wildcards.obj
 0001:0005dcac       __acrt_expand_narrow_argv_wildcards 000000018005ecac f   libucrt:argv_wildcards.obj
 0001:0005dcb4       __acrt_expand_wide_argv_wildcards 000000018005ecb4 f   libucrt:argv_wildcards.obj
 0001:0005dcbc       ??$__acrt_convert_wcs_mbs_cp@_WDV<lambda_f788ae46380686e8b737efdd8c720d07>@@U__crt_win32_buffer_no_resizing@@@@YAHQEB_WAEAV?$__crt_win32_buffer@DU__crt_win32_buffer_no_resizing@@@@AEBV<lambda_f788ae46380686e8b737efdd8c720d07>@@I@Z 000000018005ecbc f i libucrt:getmodulefilenamea.obj
 0001:0005ddd8       ??$__acrt_wcs_to_mbs_cp@U__crt_win32_buffer_no_resizing@@@@YAHQEB_WAEAV?$__crt_win32_buffer@DU__crt_win32_buffer_no_resizing@@@@I@Z 000000018005edd8 f i libucrt:getmodulefilenamea.obj
 0001:0005dde8       ??0?$__crt_win32_buffer@DU__crt_win32_buffer_no_resizing@@@@QEAA@QEAD_K@Z 000000018005ede8 f i libucrt:getmodulefilenamea.obj
 0001:0005de04       ??1?$__crt_win32_buffer@DU__crt_win32_buffer_no_resizing@@@@QEAA@XZ 000000018005ee04 f i libucrt:getmodulefilenamea.obj
 0001:0005de10       ??R<lambda_f788ae46380686e8b737efdd8c720d07>@@QEBA@IQEB_WQEAD_K@Z 000000018005ee10 f i libucrt:getmodulefilenamea.obj
 0001:0005de40       ?_deallocate@?$__crt_win32_buffer@DU__crt_win32_buffer_no_resizing@@@@AEAAXXZ 000000018005ee40 f i libucrt:getmodulefilenamea.obj
 0001:0005de4c       ?allocate@?$__crt_win32_buffer@DU__crt_win32_buffer_no_resizing@@@@QEAAH_K@Z 000000018005ee4c f i libucrt:getmodulefilenamea.obj
 0001:0005de7c       ?allocate@__crt_win32_buffer_no_resizing@@SAHQEAPEAX_KAEBV__crt_win32_buffer_empty_debug_info@@@Z 000000018005ee7c f i libucrt:getmodulefilenamea.obj
 0001:0005de94       ?capacity@?$__crt_win32_buffer@DU__crt_win32_buffer_no_resizing@@@@QEBA_KXZ 000000018005ee94 f i libucrt:getmodulefilenamea.obj
 0001:0005de9c       ?data@?$__crt_win32_buffer@DU__crt_win32_buffer_no_resizing@@@@QEAAPEADXZ 000000018005ee9c f i libucrt:getmodulefilenamea.obj
 0001:0005dea4       ?deallocate@__crt_win32_buffer_no_resizing@@SAXQEAXAEBV__crt_win32_buffer_empty_debug_info@@@Z 000000018005eea4 f i libucrt:getmodulefilenamea.obj
 0001:0005dea8       ?debug_info@?$__crt_win32_buffer@DU__crt_win32_buffer_no_resizing@@@@QEBAAEBV__crt_win32_buffer_empty_debug_info@@XZ 000000018005eea8 f i libucrt:getmodulefilenamea.obj
 0001:0005deac       ?set_to_nullptr@?$__crt_win32_buffer@DU__crt_win32_buffer_no_resizing@@@@QEAAXXZ 000000018005eeac f i libucrt:getmodulefilenamea.obj
 0001:0005dec4       ?size@?$__crt_win32_buffer@DU__crt_win32_buffer_no_resizing@@@@QEAAX_K@Z 000000018005eec4 f i libucrt:getmodulefilenamea.obj
 0001:0005decc       ?size@?$__crt_win32_buffer@DU__crt_win32_buffer_no_resizing@@@@QEBA_KXZ 000000018005eecc f i libucrt:getmodulefilenamea.obj
 0001:0005ded4       __acrt_GetModuleFileNameA  000000018005eed4 f   libucrt:getmodulefilenamea.obj
 0001:0005e1f0       ??$initialize_from_array@$$BY10BAA@E@?$dual_state_global@PEAE@__crt_state_management@@QEAAXAEAY10BAA@E@Z 000000018005f1f0 f i libucrt:mbctype.obj
 0001:0005e1f4       ??$initialize_from_array@$$BY10BAB@E@?$dual_state_global@PEAE@__crt_state_management@@QEAAXAEAY10BAB@E@Z 000000018005f1f4 f i libucrt:mbctype.obj
 0001:0005e400       ?dangerous_get_state_array@?$dual_state_global@PEAE@__crt_state_management@@QEAAPEAPEAEXZ 000000018005f400 f i libucrt:mbctype.obj
 0001:0005e404       ?dangerous_get_state_array@?$dual_state_global@PEAU__crt_multibyte_data@@@__crt_state_management@@QEAAPEAPEAU__crt_multibyte_data@@XZ 000000018005f404 f i libucrt:mbctype.obj
 0001:0005e488       ?initialize@?$dual_state_global@PEAU__crt_multibyte_data@@@__crt_state_management@@QEAAXQEAU__crt_multibyte_data@@@Z 000000018005f488 f i libucrt:mbctype.obj
 0001:0005ea40       ?value@?$dual_state_global@PEAE@__crt_state_management@@QEAAAEAPEAEXZ 000000018005fa40 f i libucrt:mbctype.obj
 0001:0005ea44       ?value@?$dual_state_global@PEAU__crt_multibyte_data@@@__crt_state_management@@QEAAAEAPEAU__crt_multibyte_data@@XZ 000000018005fa44 f i libucrt:mbctype.obj
 0001:0005ea50       __acrt_initialize_multibyte 000000018005fa50 f   libucrt:mbctype.obj
 0001:0005eab0       __acrt_should_sync_with_global_locale 000000018005fab0 f i libucrt:mbctype.obj
 0001:0005eac0       __acrt_update_thread_multibyte_data 000000018005fac0 f   libucrt:mbctype.obj
 0001:0005eadc       __p__mbcasemap             000000018005fadc f   libucrt:mbctype.obj
 0001:0005eae4       __p__mbctype               000000018005fae4 f   libucrt:mbctype.obj
 0001:0005eaec       _getmbcp                   000000018005faec f   libucrt:mbctype.obj
 0001:0005eb28       _setmbcp                   000000018005fb28 f   libucrt:mbctype.obj
 0001:0005eb50       _setmbcp_nolock            000000018005fb50 f   libucrt:mbctype.obj
 0001:0005ef0c       _ismbbalnum                000000018005ff0c f   libucrt:ismbbyte.obj
 0001:0005ef24       _ismbbalnum_l              000000018005ff24 f   libucrt:ismbbyte.obj
 0001:0005ef40       _ismbbalpha                000000018005ff40 f   libucrt:ismbbyte.obj
 0001:0005ef58       _ismbbalpha_l              000000018005ff58 f   libucrt:ismbbyte.obj
 0001:0005ef74       _ismbbblank                000000018005ff74 f   libucrt:ismbbyte.obj
 0001:0005ef90       _ismbbblank_l              000000018005ff90 f   libucrt:ismbbyte.obj
 0001:0005efb0       _ismbbgraph                000000018005ffb0 f   libucrt:ismbbyte.obj
 0001:0005efc8       _ismbbgraph_l              000000018005ffc8 f   libucrt:ismbbyte.obj
 0001:0005efe4       _ismbbkalnum               000000018005ffe4 f   libucrt:ismbbyte.obj
 0001:0005eff8       _ismbbkalnum_l             000000018005fff8 f   libucrt:ismbbyte.obj
 0001:0005f010       _ismbbkana                 0000000180060010 f   libucrt:ismbbyte.obj
 0001:0005f018       _ismbbkana_l               0000000180060018 f   libucrt:ismbbyte.obj
 0001:0005f080       _ismbbkprint               0000000180060080 f   libucrt:ismbbyte.obj
 0001:0005f094       _ismbbkprint_l             0000000180060094 f   libucrt:ismbbyte.obj
 0001:0005f0ac       _ismbbkpunct               00000001800600ac f   libucrt:ismbbyte.obj
 0001:0005f0c0       _ismbbkpunct_l             00000001800600c0 f   libucrt:ismbbyte.obj
 0001:0005f0d8       _ismbblead                 00000001800600d8 f   libucrt:ismbbyte.obj
 0001:0005f0ec       _ismbblead_l               00000001800600ec f   libucrt:ismbbyte.obj
 0001:0005f104       _ismbbprint                0000000180060104 f   libucrt:ismbbyte.obj
 0001:0005f11c       _ismbbprint_l              000000018006011c f   libucrt:ismbbyte.obj
 0001:0005f138       _ismbbpunct                0000000180060138 f   libucrt:ismbbyte.obj
 0001:0005f14c       _ismbbpunct_l              000000018006014c f   libucrt:ismbbyte.obj
 0001:0005f164       _ismbbtrail                0000000180060164 f   libucrt:ismbbyte.obj
 0001:0005f178       _ismbbtrail_l              0000000180060178 f   libucrt:ismbbyte.obj
 0001:0005f190       __acrt_initialize_command_line 0000000180060190 f   libucrt:argv_data.obj
 0001:0005f1c0       __acrt_uninitialize_command_line 00000001800601c0 f   libucrt:argv_data.obj
 0001:0005f1c4       __p___argc                 00000001800601c4 f   libucrt:argv_data.obj
 0001:0005f1cc       __p___argv                 00000001800601cc f   libucrt:argv_data.obj
 0001:0005f1d4       __p___wargv                00000001800601d4 f   libucrt:argv_data.obj
 0001:0005f1dc       __p__acmdln                00000001800601dc f   libucrt:argv_data.obj
 0001:0005f1e4       __p__pgmptr                00000001800601e4 f   libucrt:argv_data.obj
 0001:0005f1ec       __p__wcmdln                00000001800601ec f   libucrt:argv_data.obj
 0001:0005f1f4       __p__wpgmptr               00000001800601f4 f   libucrt:argv_data.obj
 0001:0005f1fc       _get_pgmptr                00000001800601fc f   libucrt:argv_data.obj
 0001:0005f234       _get_wpgmptr               0000000180060234 f   libucrt:argv_data.obj
 0001:0005f2f8       __acrt_MultiByteToWideChar 00000001800602f8 f   libucrt:multibytetowidechar.obj
 0001:0005f410       __acrt_WideCharToMultiByte 0000000180060410 f   libucrt:widechartomultibyte.obj
 0001:0005f590       __dcrt_get_narrow_environment_from_os 0000000180060590 f   libucrt:get_environment_from_os.obj
 0001:0005f6a0       __dcrt_get_wide_environment_from_os 00000001800606a0 f   libucrt:get_environment_from_os.obj
 0001:00060138       ??$get_or_create_environment_nolock@$$V@?$__crt_char_traits@D@@SAPEAPEADXZ 0000000180061138 f i libucrt:setenv.obj
 0001:00060140       ??$get_or_create_environment_nolock@$$V@?$__crt_char_traits@_W@@SAPEAPEA_WXZ 0000000180061140 f i libucrt:setenv.obj
 0001:00060148       ??$set_environment_variable@AEBQEADQEAD@?$__crt_char_traits@D@@SAHAEBQEAD$$QEBQEAD@Z 0000000180061148 f i libucrt:setenv.obj
 0001:00060154       ??$set_environment_variable@AEBQEA_WQEA_W@?$__crt_char_traits@_W@@SAHAEBQEA_W$$QEBQEA_W@Z 0000000180061154 f i libucrt:setenv.obj
 0001:00060164       ??$tcschr@AEBQEADD@?$__crt_char_traits@D@@SAPEADAEBQEAD$$QEAD@Z 0000000180061164 f i libucrt:setenv.obj
 0001:00060170       ??$tcschr@AEBQEA_WD@?$__crt_char_traits@_W@@SAPEA_WAEBQEA_W$$QEAD@Z 0000000180061170 f i libucrt:setenv.obj
 0001:0006017c       ??$tcscpy_s@AEAPEADAEB_KAEAPEAD@?$__crt_char_traits@D@@SAHAEAPEADAEB_K0@Z 000000018006117c f i libucrt:setenv.obj
 0001:0006018c       ??$tcscpy_s@AEAPEA_WAEB_KAEAPEA_W@?$__crt_char_traits@_W@@SAHAEAPEA_WAEB_K0@Z 000000018006118c f i libucrt:setenv.obj
 0001:0006019c       ??$tcscpy_s@AEBQEADAEB_KAEBQEAD@?$__crt_char_traits@D@@SAHAEBQEADAEB_K0@Z 000000018006119c f i libucrt:setenv.obj
 0001:000601ac       ??$tcscpy_s@AEBQEA_WAEB_KAEBQEA_W@?$__crt_char_traits@_W@@SAHAEBQEA_WAEB_K0@Z 00000001800611ac f i libucrt:setenv.obj
 0001:000601bc       ??$tcslen@AEBQEAD@?$__crt_char_traits@D@@SA_KAEBQEAD@Z 00000001800611bc f i libucrt:setenv.obj
 0001:000601d0       ??$tcslen@AEBQEA_W@?$__crt_char_traits@_W@@SA_KAEBQEA_W@Z 00000001800611d0 f i libucrt:setenv.obj
 0001:000601e4       ??$tcsnicoll@AEBQEBDAEAPEADAEB_K@?$__crt_char_traits@D@@SAHAEBQEBDAEAPEADAEB_K@Z 00000001800611e4 f i libucrt:setenv.obj
 0001:000601f4       ??$tcsnicoll@AEBQEB_WAEAPEA_WAEB_K@?$__crt_char_traits@_W@@SAHAEBQEB_WAEAPEA_WAEB_K@Z 00000001800611f4 f i libucrt:setenv.obj
 0001:00060234       ?strchr@@YAPEADQEADH@Z     0000000180061234 f i libucrt:setenv.obj
 0001:0006023c       ?wcschr@@YAPEA_WPEA_W_W@Z  000000018006123c f i libucrt:setenv.obj
 0001:00060244       __dcrt_set_variable_in_narrow_environment_nolock 0000000180061244 f   libucrt:setenv.obj
 0001:0006024c       __dcrt_set_variable_in_wide_environment_nolock 000000018006124c f   libucrt:setenv.obj
 0001:00060298       ??$?B$$A6AHPEA_WK_J@Z@__crt_fast_encoded_nullptr_t@@QEBAP6AHPEA_WK_J@ZXZ 0000000180061298 f i libucrt:winapi_thunks.obj
 0001:00060344       ??$__crt_fast_decode_pointer@P6AHPEA_WK_J@Z@@YAP6AHPEA_WK_J@ZQ6AH0K1@Z@Z 0000000180061344 f i libucrt:winapi_thunks.obj
 0001:0006035c       ??$__crt_fast_decode_pointer@PEAX@@YAPEAXQEAX@Z 000000018006135c f i libucrt:winapi_thunks.obj
 0001:00060374       ??$__crt_fast_encode_pointer@P6AHPEA_WK_J@Z@@YAP6AHPEA_WK_J@ZQ6AH0K1@Z@Z 0000000180061374 f i libucrt:winapi_thunks.obj
 0001:00060394       ??$__crt_interlocked_exchange_pointer@UHINSTANCE__@@PEAU1@@@YAPEAUHINSTANCE__@@PEDSEAU0@QEAU0@@Z 0000000180061394 f i libucrt:winapi_thunks.obj
 0001:0006039c       ??$__crt_interlocked_exchange_pointer@UHINSTANCE__@@PEAX@@YAPEAUHINSTANCE__@@PEDSEAU0@QEAX@Z 000000018006139c f i libucrt:winapi_thunks.obj
 0001:000603a4       ??$__crt_interlocked_exchange_pointer@XPEAX@@YAPEAXPEDSEAXQEAX@Z 00000001800613a4 f i libucrt:winapi_thunks.obj
 0001:000603ac       ??$__crt_interlocked_read_pointer@UHINSTANCE__@@@@YAPEAUHINSTANCE__@@PEDSEAU0@@Z 00000001800613ac f i libucrt:winapi_thunks.obj
 0001:000603b4       ??$__crt_interlocked_read_pointer@X@@YAPEAXPEDSEAX@Z 00000001800613b4 f i libucrt:winapi_thunks.obj
 0001:00060e18       GetCurrentThreadEffectiveToken 0000000180061e18 f i libucrt:winapi_thunks.obj
 0001:00060e20       __acrt_AppPolicyGetProcessTerminationMethodInternal 0000000180061e20 f   libucrt:winapi_thunks.obj
 0001:00060e78       __acrt_AppPolicyGetShowDeveloperDiagnosticInternal 0000000180061e78 f   libucrt:winapi_thunks.obj
 0001:00060ed0       __acrt_AppPolicyGetThreadInitializationTypeInternal 0000000180061ed0 f   libucrt:winapi_thunks.obj
 0001:00060f28       __acrt_AppPolicyGetWindowingModelInternal 0000000180061f28 f   libucrt:winapi_thunks.obj
 0001:00060f80       __acrt_AreFileApisANSI     0000000180061f80 f   libucrt:winapi_thunks.obj
 0001:00060fc4       __acrt_CompareStringEx     0000000180061fc4 f   libucrt:winapi_thunks.obj
 0001:000610b0       __acrt_EnumSystemLocalesEx 00000001800620b0 f   libucrt:winapi_thunks.obj
 0001:00061150       __acrt_FlsAlloc            0000000180062150 f   libucrt:winapi_thunks.obj
 0001:00061158       __acrt_FlsFree             0000000180062158 f   libucrt:winapi_thunks.obj
 0001:00061160       __acrt_FlsGetValue         0000000180062160 f   libucrt:winapi_thunks.obj
 0001:00061168       __acrt_FlsSetValue         0000000180062168 f   libucrt:winapi_thunks.obj
 0001:00061170       __acrt_GetDateFormatEx     0000000180062170 f   libucrt:winapi_thunks.obj
 0001:00061230       __acrt_GetEnabledXStateFeatures 0000000180062230 f   libucrt:winapi_thunks.obj
 0001:00061274       __acrt_GetLocaleInfoEx     0000000180062274 f   libucrt:winapi_thunks.obj
 0001:00061304       __acrt_GetSystemTimePreciseAsFileTime 0000000180062304 f   libucrt:winapi_thunks.obj
 0001:0006135c       __acrt_GetTempPath2W       000000018006235c f   libucrt:winapi_thunks.obj
 0001:000613bc       __acrt_GetTimeFormatEx     00000001800623bc f   libucrt:winapi_thunks.obj
 0001:00061470       __acrt_GetUserDefaultLocaleName 0000000180062470 f   libucrt:winapi_thunks.obj
 0001:000614dc       __acrt_GetXStateFeaturesMask 00000001800624dc f   libucrt:winapi_thunks.obj
 0001:00061538       __acrt_InitializeCriticalSectionEx 0000000180062538 f   libucrt:winapi_thunks.obj
 0001:000615a8       __acrt_IsValidLocaleName   00000001800625a8 f   libucrt:winapi_thunks.obj
 0001:0006160c       __acrt_LCIDToLocaleName    000000018006260c f   libucrt:winapi_thunks.obj
 0001:00061690       __acrt_LCMapStringEx       0000000180062690 f   libucrt:winapi_thunks.obj
 0001:0006177c       __acrt_LocaleNameToLCID    000000018006277c f   libucrt:winapi_thunks.obj
 0001:000617dc       __acrt_LocateXStateFeature 00000001800627dc f   libucrt:winapi_thunks.obj
 0001:00061848       __acrt_MessageBoxA         0000000180062848 f   libucrt:winapi_thunks.obj
 0001:000618c4       __acrt_MessageBoxW         00000001800628c4 f   libucrt:winapi_thunks.obj
 0001:00061940       __acrt_RoInitialize        0000000180062940 f   libucrt:winapi_thunks.obj
 0001:0006198c       __acrt_RoUninitialize      000000018006298c f   libucrt:winapi_thunks.obj
 0001:000619cc       __acrt_RtlGenRandom        00000001800629cc f   libucrt:winapi_thunks.obj
 0001:00061a28       __acrt_SetThreadStackGuarantee 0000000180062a28 f   libucrt:winapi_thunks.obj
 0001:00061a74       __acrt_can_show_message_box 0000000180062a74 f   libucrt:winapi_thunks.obj
 0001:00061ae4       __acrt_can_use_vista_locale_apis 0000000180062ae4 f   libucrt:winapi_thunks.obj
 0001:00061b14       __acrt_can_use_xstate_apis 0000000180062b14 f   libucrt:winapi_thunks.obj
 0001:00061b44       __acrt_eagerly_load_locale_apis 0000000180062b44 f   libucrt:winapi_thunks.obj
 0001:00061ca0       __acrt_get_parent_window   0000000180062ca0 f   libucrt:winapi_thunks.obj
 0001:00061d30       __acrt_initialize_winapi_thunks 0000000180062d30 f   libucrt:winapi_thunks.obj
 0001:00061d54       __acrt_is_interactive      0000000180062d54 f   libucrt:winapi_thunks.obj
 0001:00061e40       __acrt_uninitialize_winapi_thunks 0000000180062e40 f   libucrt:winapi_thunks.obj
 0001:00061e84       __acrt_getheap             0000000180062e84 f   libucrt:heap_handle.obj
 0001:00061e90       __acrt_initialize_heap     0000000180062e90 f   libucrt:heap_handle.obj
 0001:00061eb0       __acrt_uninitialize_heap   0000000180062eb0 f   libucrt:heap_handle.obj
 0001:00061ebc       _get_heap_handle           0000000180062ebc f   libucrt:heap_handle.obj
 0001:000620e0       __acrt_initialize_lowio    00000001800630e0 f   libucrt:ioinit.obj
 0001:00062120       __acrt_uninitialize_lowio  0000000180063120 f   libucrt:ioinit.obj
 0001:00062160       __acrt_execute_initializers 0000000180063160 f   libucrt:shared_initialization.obj
 0001:000621f4       __acrt_execute_uninitializers 00000001800631f4 f   libucrt:shared_initialization.obj
 0001:0006223c       ??$?B$$A6AXH@Z@__crt_fast_encoded_nullptr_t@@QEBAP6AXH@ZXZ 000000018006323c f i libucrt:signal.obj
 0001:000622b4       ??$__crt_fast_decode_pointer@P6AXH@Z@@YAP6AXH@ZQ6AXH@Z@Z 00000001800632b4 f i libucrt:signal.obj
 0001:000622cc       ??$__crt_fast_encode_pointer@P6AXH@Z@@YAP6AXH@ZQ6AXH@Z@Z 00000001800632cc f i libucrt:signal.obj
 0001:00062408       ?initialize@?$dual_state_global@P6AXH@Z@__crt_state_management@@QEAAXQ6AXH@Z@Z 0000000180063408 f i libucrt:signal.obj
 0001:00062498       ?value@?$dual_state_global@P6AXH@Z@__crt_state_management@@QEAAAEAP6AXH@ZXZ 0000000180063498 f i libucrt:signal.obj
 0001:0006249c       __acrt_get_sigabrt_handler 000000018006349c f   libucrt:signal.obj
 0001:000624cc       __acrt_initialize_signal_handlers 00000001800634cc f   libucrt:signal.obj
 0001:000624ec       __fpecode                  00000001800634ec f   libucrt:signal.obj
 0001:00062500       __pxcptinfoptrs            0000000180063500 f   libucrt:signal.obj
 0001:00062514       raise                      0000000180063514 f   libucrt:signal.obj
 0001:00062790       signal                     0000000180063790 f   libucrt:signal.obj
 0001:00062954       ??$__crt_fast_decode_pointer@P6AHPEAU_exception@@@Z@@YAP6AHPEAU_exception@@@ZQ6AH0@Z@Z 0000000180063954 f i libucrt:matherr.obj
 0001:0006296c       ??$__crt_fast_encode_pointer@P6AHPEAU_exception@@@Z@@YAP6AHPEAU_exception@@@ZQ6AH0@Z@Z 000000018006396c f i libucrt:matherr.obj
 0001:0006298c       ?initialize@?$dual_state_global@P6AHPEAU_exception@@@Z@__crt_state_management@@QEAAXQ6AHPEAU_exception@@@Z@Z 000000018006398c f i libucrt:matherr.obj
 0001:0006299c       ?value@?$dual_state_global@P6AHPEAU_exception@@@Z@__crt_state_management@@QEAAAEAP6AHPEAU_exception@@@ZXZ 000000018006399c f i libucrt:matherr.obj
 0001:000629a0       __acrt_has_user_matherr    00000001800639a0 f   libucrt:matherr.obj
 0001:000629c0       __acrt_initialize_user_matherr 00000001800639c0 f   libucrt:matherr.obj
 0001:000629c8       __acrt_invoke_user_matherr 00000001800639c8 f   libucrt:matherr.obj
 0001:00062a04       __setusermatherr           0000000180063a04 f   libucrt:matherr.obj
 0001:00062cd4       ??0__crt_stdio_stream@@QEAA@QEAU__crt_stdio_stream_data@@@Z 0000000180063cd4 f i libucrt:fflush.obj
 0001:00062e44       ?__acrt_stdio_reset_buffer@@YAXV__crt_stdio_stream@@@Z 0000000180063e44 f i libucrt:fflush.obj
 0001:00062f34       ?has_all_of@__crt_stdio_stream@@QEBA_NJ@Z 0000000180063f34 f i libucrt:fflush.obj
 0001:00062f80       ?set_flags@__crt_stdio_stream@@QEBA_NJ@Z 0000000180063f80 f i libucrt:fflush.obj
 0001:00062fa0       ?unset_flags@__crt_stdio_stream@@QEBA_NJ@Z 0000000180063fa0 f i libucrt:fflush.obj
 0001:00062fc8       __acrt_stdio_flush_nolock  0000000180063fc8 f   libucrt:fflush.obj
 0001:00063054       _fflush_nolock             0000000180064054 f   libucrt:fflush.obj
 0001:00063128       _flushall                  0000000180064128 f   libucrt:fflush.obj
 0001:00063130       fflush                     0000000180064130 f   libucrt:fflush.obj
 0001:00063198       ??$?RPEAU__crt_stdio_stream_data@@@__crt_internal_free_policy@@QEBAXQEBQEAU__crt_stdio_stream_data@@@Z 0000000180064198 f i libucrt:_file.obj
 0001:000631a0       ??0?$__crt_unique_heap_ptr@PEAU__crt_stdio_stream_data@@U__crt_internal_free_policy@@@@QEAA@QEAPEAU__crt_stdio_stream_data@@@Z 00000001800641a0 f i libucrt:_file.obj
 0001:000631a8       ??1?$__crt_unique_heap_ptr@PEAU__crt_stdio_stream_data@@U__crt_internal_free_policy@@@@QEAA@XZ 00000001800641a8 f i libucrt:_file.obj
 0001:000631c4       ?detach@?$__crt_unique_heap_ptr@PEAU__crt_stdio_stream_data@@U__crt_internal_free_policy@@@@QEAAPEAPEAU__crt_stdio_stream_data@@XZ 00000001800641c4 f i libucrt:_file.obj
 0001:000631cc       ?release@?$__crt_unique_heap_ptr@PEAU__crt_stdio_stream_data@@U__crt_internal_free_policy@@@@QEAAXXZ 00000001800641cc f i libucrt:_file.obj
 0001:000631f0       __acrt_initialize_stdio    00000001800641f0 f   libucrt:_file.obj
 0001:00063310       __acrt_iob_func            0000000180064310 f   libucrt:_file.obj
 0001:00063330       __acrt_uninitialize_stdio  0000000180064330 f   libucrt:_file.obj
 0001:0006338c       _get_stream_buffer_pointers 000000018006438c f   libucrt:_file.obj
 0001:000633d4       _lock_file                 00000001800643d4 f   libucrt:_file.obj
 0001:000633e0       _unlock_file               00000001800643e0 f   libucrt:_file.obj
 0001:000633ec       ?has_any_buffer@__crt_stdio_stream@@QEBA_NXZ 00000001800643ec f i libucrt:_sftbuf.obj
 0001:00063400       ?has_any_of@__crt_stdio_stream@@QEBA_NJ@Z 0000000180064400 f i libucrt:_sftbuf.obj
 0001:00063410       ?has_temporary_buffer@__crt_stdio_stream@@QEBA_NXZ 0000000180064410 f i libucrt:_sftbuf.obj
 0001:00063420       __acrt_should_use_temporary_buffer 0000000180064420 f   libucrt:_sftbuf.obj
 0001:0006346c       __acrt_stdio_begin_temporary_buffering_nolock 000000018006446c f   libucrt:_sftbuf.obj
 0001:00063534       __acrt_stdio_end_temporary_buffering_nolock 0000000180064534 f   libucrt:_sftbuf.obj
 0001:00063574       ?value_explicit@?$dual_state_global@PEAU__crt_locale_data@@@__crt_state_management@@QEAAAEAPEAU__crt_locale_data@@_K@Z 0000000180064574 f i libucrt:locale_update.obj
 0001:0006357c       ?value_explicit@?$dual_state_global@PEAU__crt_multibyte_data@@@__crt_state_management@@QEAAAEAPEAU__crt_multibyte_data@@_K@Z 000000018006457c f i libucrt:locale_update.obj
 0001:00063584       __acrt_update_locale_info  0000000180064584 f   libucrt:locale_update.obj
 0001:000635b8       __acrt_update_locale_info_explicit 00000001800645b8 f   libucrt:locale_update.obj
 0001:000635f0       __acrt_update_multibyte_info 00000001800645f0 f   libucrt:locale_update.obj
 0001:00063624       __acrt_update_multibyte_info_explicit 0000000180064624 f   libucrt:locale_update.obj
 0001:0006365c       ?__acrt_fp_classify@@YA?AW4__acrt_fp_class@@AEBN@Z 000000018006465c f i libucrt:cvt.obj
 0001:000636b8       ?__acrt_fp_is_negative@@YA_NAEBN@Z 00000001800646b8 f i libucrt:cvt.obj
 0001:00064324       ?strrchr@@YAPEADQEADH@Z    0000000180065324 f i libucrt:cvt.obj
 0001:0006432c       __acrt_fp_format           000000018006532c f   libucrt:cvt.obj
 0001:00064614       ?value_or@?$cached@H@__crt_cached_ptd_host@@QEBAHH@Z 0000000180065614 f i libucrt:wctomb.obj
 0001:00064620       _wctomb_internal           0000000180065620 f   libucrt:wctomb.obj
 0001:000647d0       _wctomb_l                  00000001800657d0 f   libucrt:wctomb.obj
 0001:000648bc       _wctomb_s_l                00000001800658bc f   libucrt:wctomb.obj
 0001:0006496c       wctomb                     000000018006596c f   libucrt:wctomb.obj
 0001:00064a34       wctomb_s                   0000000180065a34 f   libucrt:wctomb.obj
 0001:00064ad4       _isleadbyte_fast_internal  0000000180065ad4 f i libucrt:mbtowc.obj
 0001:00064aec       _mbtowc_internal           0000000180065aec f   libucrt:mbtowc.obj
 0001:00064c64       _mbtowc_l                  0000000180065c64 f   libucrt:mbtowc.obj
 0001:00064d08       mbtowc                     0000000180065d08 f   libucrt:mbtowc.obj
 0001:00064da0       ?lowio_handle@__crt_stdio_stream@@QEBAHXZ 0000000180065da0 f i libucrt:fileno.obj
 0001:00064da8       _fileno                    0000000180065da8 f   libucrt:fileno.obj
 0001:00064dd0       _get_printf_count_output   0000000180065dd0 f   libucrt:printf_count_output.obj
 0001:00064de8       _set_printf_count_output   0000000180065de8 f   libucrt:printf_count_output.obj
 0001:00064eac       _fputwc_nolock             0000000180065eac f   libucrt:fputwc.obj
 0001:00064f48       _fputwc_nolock_internal    0000000180065f48 f   libucrt:fputwc.obj
 0001:000650d4       _fputwchar                 00000001800660d4 f   libucrt:fputwc.obj
 0001:000650f8       _putwc_nolock              00000001800660f8 f   libucrt:fputwc.obj
 0001:00065100       fputwc                     0000000180066100 f   libucrt:fputwc.obj
 0001:0006519c       putwc                      000000018006619c f   libucrt:fputwc.obj
 0001:000651a4       putwchar                   00000001800661a4 f   libucrt:fputwc.obj
 0001:00065314       _fputc_nolock              0000000180066314 f   libucrt:fputc.obj
 0001:000653c0       _fputc_nolock_internal     00000001800663c0 f   libucrt:fputc.obj
 0001:000653d8       _fputchar                  00000001800663d8 f   libucrt:fputc.obj
 0001:000653fc       _putc_nolock               00000001800663fc f   libucrt:fputc.obj
 0001:00065404       fputc                      0000000180066404 f   libucrt:fputc.obj
 0001:0006549c       putc                       000000018006649c f   libucrt:fputc.obj
 0001:000654a4       putchar                    00000001800664a4 f   libucrt:fputc.obj
 0001:000654ac       __pctype_func              00000001800664ac f   libucrt:ctype.obj
 0001:000654dc       __pwctype_func             00000001800664dc f   libucrt:ctype.obj
 0001:000654e4       _iswctype_l                00000001800664e4 f   libucrt:iswctype.obj
 0001:000654ec       iswctype                   00000001800664ec f   libucrt:iswctype.obj
 0001:00065558       _isctype                   0000000180066558 f   libucrt:isctype.obj
 0001:00065588       _isctype_l                 0000000180066588 f   libucrt:isctype.obj
 0001:00065690       __acrt_add_locale_ref      0000000180066690 f   libucrt:locale_refcounting.obj
 0001:0006571c       __acrt_free_locale         000000018006671c f   libucrt:locale_refcounting.obj
 0001:00065894       __acrt_locale_add_lc_time_reference 0000000180066894 f   libucrt:locale_refcounting.obj
 0001:000658bc       __acrt_locale_free_lc_time_if_unreferenced 00000001800668bc f   libucrt:locale_refcounting.obj
 0001:000658f4       __acrt_locale_release_lc_time_reference 00000001800668f4 f   libucrt:locale_refcounting.obj
 0001:0006591c       __acrt_release_locale_ref  000000018006691c f   libucrt:locale_refcounting.obj
 0001:000659c4       __acrt_update_thread_locale_data 00000001800669c4 f   libucrt:locale_refcounting.obj
 0001:00065a34       _updatetlocinfoEx_nolock   0000000180066a34 f   libucrt:locale_refcounting.obj
 0001:00065a9c       ??$?RG@__crt_internal_free_policy@@QEBAXQEBG@Z 0000000180066a9c f i libucrt:initctype.obj
 0001:00065aa4       ??$?RJ@__crt_internal_free_policy@@QEBAXQEBJ@Z 0000000180066aa4 f i libucrt:initctype.obj
 0001:00065aac       ??0?$__crt_unique_heap_ptr@GU__crt_internal_free_policy@@@@QEAA@QEAG@Z 0000000180066aac f i libucrt:initctype.obj
 0001:00065ab4       ??0?$__crt_unique_heap_ptr@JU__crt_internal_free_policy@@@@QEAA@QEAJ@Z 0000000180066ab4 f i libucrt:initctype.obj
 0001:00065abc       ??1?$__crt_unique_heap_ptr@GU__crt_internal_free_policy@@@@QEAA@XZ 0000000180066abc f i libucrt:initctype.obj
 0001:00065ad8       ??1?$__crt_unique_heap_ptr@JU__crt_internal_free_policy@@@@QEAA@XZ 0000000180066ad8 f i libucrt:initctype.obj
 0001:00065af4       ?detach@?$__crt_unique_heap_ptr@GU__crt_internal_free_policy@@@@QEAAPEAGXZ 0000000180066af4 f i libucrt:initctype.obj
 0001:00065afc       ?detach@?$__crt_unique_heap_ptr@JU__crt_internal_free_policy@@@@QEAAPEAJXZ 0000000180066afc f i libucrt:initctype.obj
 0001:00065b04       ?release@?$__crt_unique_heap_ptr@GU__crt_internal_free_policy@@@@QEAAXXZ 0000000180066b04 f i libucrt:initctype.obj
 0001:00065b20       ?release@?$__crt_unique_heap_ptr@JU__crt_internal_free_policy@@@@QEAAXXZ 0000000180066b20 f i libucrt:initctype.obj
 0001:00065b3c       ___lc_codepage_func        0000000180066b3c f   libucrt:initctype.obj
 0001:00065b6c       ___lc_collate_cp_func      0000000180066b6c f   libucrt:initctype.obj
 0001:00065b9c       ___lc_locale_name_func     0000000180066b9c f   libucrt:initctype.obj
 0001:00065bd0       ___mb_cur_max_func         0000000180066bd0 f   libucrt:initctype.obj
 0001:00065c00       ___mb_cur_max_l_func       0000000180066c00 f   libucrt:initctype.obj
 0001:00065c10       __acrt_locale_initialize_ctype 0000000180066c10 f   libucrt:initctype.obj
 0001:00066274       ??$?RUlconv@@@__crt_internal_free_policy@@QEBAXQEBUlconv@@@Z 0000000180067274 f i libucrt:initmon.obj
 0001:0006627c       ??0?$__crt_unique_heap_ptr@Ulconv@@U__crt_internal_free_policy@@@@QEAA@QEAUlconv@@@Z 000000018006727c f i libucrt:initmon.obj
 0001:00066284       ??1?$__crt_unique_heap_ptr@Ulconv@@U__crt_internal_free_policy@@@@QEAA@XZ 0000000180067284 f i libucrt:initmon.obj
 0001:000662a0       ?detach@?$__crt_unique_heap_ptr@Ulconv@@U__crt_internal_free_policy@@@@QEAAPEAUlconv@@XZ 00000001800672a0 f i libucrt:initmon.obj
 0001:000662a8       ?release@?$__crt_unique_heap_ptr@Ulconv@@U__crt_internal_free_policy@@@@QEAAXXZ 00000001800672a8 f i libucrt:initmon.obj
 0001:000662c4       __acrt_locale_free_monetary 00000001800672c4 f   libucrt:initmon.obj
 0001:000663d0       __acrt_locale_initialize_monetary 00000001800673d0 f   libucrt:initmon.obj
 0001:00066920       __acrt_locale_free_numeric 0000000180067920 f   libucrt:initnum.obj
 0001:00066990       __acrt_locale_initialize_numeric 0000000180067990 f   libucrt:initnum.obj
 0001:00066cac       ??$?RU__crt_lc_time_data@@@__crt_internal_free_policy@@QEBAXQEBU__crt_lc_time_data@@@Z 0000000180067cac f i libucrt:inittime.obj
 0001:00066cfc       ??0?$__crt_unique_heap_ptr@U__crt_lc_time_data@@U__crt_internal_free_policy@@@@QEAA@QEAU__crt_lc_time_data@@@Z 0000000180067cfc f i libucrt:inittime.obj
 0001:00066d04       ??1?$__crt_unique_heap_ptr@U__crt_lc_time_data@@U__crt_internal_free_policy@@@@QEAA@XZ 0000000180067d04 f i libucrt:inittime.obj
 0001:00066d20       ??B?$__crt_unique_heap_ptr@U__crt_lc_time_data@@U__crt_internal_free_policy@@@@QEBA_NXZ 0000000180067d20 f i libucrt:inittime.obj
 0001:00066d28       ?detach@?$__crt_unique_heap_ptr@U__crt_lc_time_data@@U__crt_internal_free_policy@@@@QEAAPEAU__crt_lc_time_data@@XZ 0000000180067d28 f i libucrt:inittime.obj
 0001:00066d64       ?get@?$__crt_unique_heap_ptr@U__crt_lc_time_data@@U__crt_internal_free_policy@@@@QEBAPEAU__crt_lc_time_data@@XZ 0000000180067d64 f i libucrt:inittime.obj
 0001:00067128       ?is_valid@?$__crt_unique_heap_ptr@U__crt_lc_time_data@@U__crt_internal_free_policy@@@@QEBA_NXZ 0000000180068128 f i libucrt:inittime.obj
 0001:00067130       ?release@?$__crt_unique_heap_ptr@U__crt_lc_time_data@@U__crt_internal_free_policy@@@@QEAAXXZ 0000000180068130 f i libucrt:inittime.obj
 0001:0006714c       __acrt_locale_free_time    000000018006814c f   libucrt:inittime.obj
 0001:00067260       __acrt_locale_initialize_time 0000000180068260 f   libucrt:inittime.obj
 0001:000673f4       wcsncat_s                  00000001800683f4 f   libucrt:wcsncat_s.obj
 0001:000674ec       wcscspn                    00000001800684ec f   libucrt:wcscspn.obj
 0001:0006752c       wcsncmp                    000000018006852c f   libucrt:wcsncmp.obj
 0001:00067558       wcspbrk                    0000000180068558 f   libucrt:wcspbrk.obj
 0001:0006758c       ??0?$__crt_scoped_stack_ptr@_W@@QEAA@U?$__crt_scoped_stack_ptr_tag@_W@@@Z 000000018006858c f i libucrt:getstringtypea.obj
 0001:00067594       ??0?$__crt_scoped_stack_ptr_tag@_W@@QEAA@QEA_W@Z 0000000180068594 f i libucrt:getstringtypea.obj
 0001:0006759c       ??1?$__crt_scoped_stack_ptr@_W@@QEAA@XZ 000000018006859c f i libucrt:getstringtypea.obj
 0001:000675c0       ?get@?$__crt_scoped_stack_ptr@_W@@QEBAPEA_WXZ 00000001800685c0 f i libucrt:getstringtypea.obj
 0001:000675c4       _MallocaComputeSize        00000001800685c4 f i libucrt:getstringtypea.obj
 0001:000675d4       _MarkAllocaS               00000001800685d4 f i libucrt:getstringtypea.obj
 0001:000675e4       __acrt_GetStringTypeA      00000001800685e4 f   libucrt:getstringtypea.obj
 0001:00067774       _freea_crt                 0000000180068774 f i libucrt:getstringtypea.obj
 0001:00067fec       __acrt_get_qualified_locale 0000000180068fec f   libucrt:get_qualified_locale.obj
 0001:00068b10       __acrt_get_qualified_locale_downlevel 0000000180069b10 f   libucrt:getqloc_downlevel.obj
 0001:00068d90       localeconv                 0000000180069d90 f   libucrt:localeconv.obj
 0001:00068dc4       ?value@?$dual_state_global@J@__crt_state_management@@QEAAAEAJXZ 0000000180069dc4 f i libucrt:new_mode.obj
 0001:00068dc8       _query_new_mode            0000000180069dc8 f   libucrt:new_mode.obj
 0001:00068dd0       _set_new_mode              0000000180069dd0 f   libucrt:new_mode.obj
 0001:00068e10       _get_fpsr                  0000000180069e10 f   libucrt:fpsr.obj
 0001:00068e20       _set_fpsr                  0000000180069e20 f   libucrt:fpsr.obj
 0001:00068e2a       _fclrf                     0000000180069e2a f   libucrt:fpsr.obj
 0001:00068e3e       _frnd                      0000000180069e3e f   libucrt:fpsr.obj
 0001:00068e60       ?should_round_up@__crt_strtox@@YA_N_N000@Z 0000000180069e60 f i libucrt:fpexcept.obj
 0001:00068ee8       _errcode                   0000000180069ee8 f   libucrt:fpexcept.obj
 0001:00068f2c       _except1                   0000000180069f2c f   libucrt:fpexcept.obj
 0001:00069020       _except2                   000000018006a020 f   libucrt:fpexcept.obj
 0001:0006915c       _handle_exc                000000018006a15c f   libucrt:fpexcept.obj
 0001:00069450       _handle_qnan2              000000018006a450 f   libucrt:fpexcept.obj
 0001:00069458       _raise_exc                 000000018006a458 f   libucrt:fpexcept.obj
 0001:00069480       _raise_exc_ex              000000018006a480 f   libucrt:fpexcept.obj
 0001:00069788       _raise_excf                000000018006a788 f   libucrt:fpexcept.obj
 0001:000697b4       _set_errno_from_matherr    000000018006a7b4 f   libucrt:fpexcept.obj
 0001:000697e4       _umatherr                  000000018006a7e4 f   libucrt:fpexcept.obj
 0001:000699c0       qsort                      000000018006a9c0 f   libucrt:qsort.obj
 0001:00069eb0       strncpy_s                  000000018006aeb0 f   libucrt:strncpy_s.obj
 0001:0006a040       strpbrk                    000000018006b040 f   libucrt:strpbrk.obj
 0001:0006a408       _mbsdec                    000000018006b408 f   libucrt:mbsdec.obj
 0001:0006a410       _mbsdec_l                  000000018006b410 f   libucrt:mbsdec.obj
 0001:0006a4a4       ??B?$__crt_scoped_stack_ptr@_W@@QEBA_NXZ 000000018006b4a4 f i libucrt:lcmapstringa.obj
 0001:0006a7e0       __acrt_LCMapStringA        000000018006b7e0 f   libucrt:lcmapstringa.obj
 0001:0006a898       _wcsnicoll                 000000018006b898 f   libucrt:wcsnicol.obj
 0001:0006a8e8       _wcsnicoll_l               000000018006b8e8 f   libucrt:wcsnicol.obj
 0001:0006a9d8       _strnicoll                 000000018006b9d8 f   libucrt:strnicol.obj
 0001:0006a9f0       _strnicoll_l               000000018006b9f0 f   libucrt:strnicol.obj
 0001:0006aaf0       __acrt_SetEnvironmentVariableA 000000018006baf0 f   libucrt:setenvironmentvariablea.obj
 0001:0006ad60       __acrt_DownlevelLCIDToLocaleName 000000018006bd60 f   libucrt:lcidtoname_downlevel.obj
 0001:0006ae48       __acrt_DownlevelLocaleNameToLCID 000000018006be48 f   libucrt:lcidtoname_downlevel.obj
 0001:0006aeec       ??$?RU__crt_lowio_handle_data@@@__crt_internal_free_policy@@QEBAXQEBU__crt_lowio_handle_data@@@Z 000000018006beec f i libucrt:osfinfo.obj
 0001:0006aef4       ??0?$__crt_unique_heap_ptr@U__crt_lowio_handle_data@@U__crt_internal_free_policy@@@@QEAA@QEAU__crt_lowio_handle_data@@@Z 000000018006bef4 f i libucrt:osfinfo.obj
 0001:0006aefc       ??1?$__crt_unique_heap_ptr@U__crt_lowio_handle_data@@U__crt_internal_free_policy@@@@QEAA@XZ 000000018006befc f i libucrt:osfinfo.obj
 0001:0006af18       ??B?$__crt_unique_heap_ptr@U__crt_lowio_handle_data@@U__crt_internal_free_policy@@@@QEBA_NXZ 000000018006bf18 f i libucrt:osfinfo.obj
 0001:0006af20       ?detach@?$__crt_unique_heap_ptr@U__crt_lowio_handle_data@@U__crt_internal_free_policy@@@@QEAAPEAU__crt_lowio_handle_data@@XZ 000000018006bf20 f i libucrt:osfinfo.obj
 0001:0006af28       ?get@?$__crt_unique_heap_ptr@U__crt_lowio_handle_data@@U__crt_internal_free_policy@@@@QEBAPEAU__crt_lowio_handle_data@@XZ 000000018006bf28 f i libucrt:osfinfo.obj
 0001:0006af2c       ?is_valid@?$__crt_unique_heap_ptr@U__crt_lowio_handle_data@@U__crt_internal_free_policy@@@@QEBA_NXZ 000000018006bf2c f i libucrt:osfinfo.obj
 0001:0006af34       ?release@?$__crt_unique_heap_ptr@U__crt_lowio_handle_data@@U__crt_internal_free_policy@@@@QEAAXXZ 000000018006bf34 f i libucrt:osfinfo.obj
 0001:0006af50       __acrt_lowio_create_handle_array 000000018006bf50 f   libucrt:osfinfo.obj
 0001:0006aff8       __acrt_lowio_destroy_handle_array 000000018006bff8 f   libucrt:osfinfo.obj
 0001:0006b048       __acrt_lowio_ensure_fh_exists 000000018006c048 f   libucrt:osfinfo.obj
 0001:0006b0f0       __acrt_lowio_lock_fh       000000018006c0f0 f   libucrt:osfinfo.obj
 0001:0006b118       __acrt_lowio_set_os_handle 000000018006c118 f   libucrt:osfinfo.obj
 0001:0006b1d8       __acrt_lowio_unlock_fh     000000018006c1d8 f   libucrt:osfinfo.obj
 0001:0006b200       _alloc_osfhnd              000000018006c200 f   libucrt:osfinfo.obj
 0001:0006b340       _free_osfhnd               000000018006c340 f   libucrt:osfinfo.obj
 0001:0006b3fc       _get_osfhandle             000000018006c3fc f   libucrt:osfinfo.obj
 0001:0006b474       _open_osfhandle            000000018006c474 f   libucrt:osfinfo.obj
 0001:0006b6b8       _commit                    000000018006c6b8 f   libucrt:commit.obj
 0001:0006c0f8       _utf8_no_of_trailbytes     000000018006d0f8 f i libucrt:write.obj
 0001:0006c108       _write                     000000018006d108 f   libucrt:write.obj
 0001:0006c1a0       _write_internal            000000018006d1a0 f   libucrt:write.obj
 0001:0006c2c0       _write_nolock              000000018006d2c0 f   libucrt:write.obj
 0001:0006c5c8       ?is_in_use@__crt_stdio_stream@@QEBA_NXZ 000000018006d5c8 f i libucrt:closeall.obj
 0001:0006c5d8       _fcloseall                 000000018006d5d8 f   libucrt:closeall.obj
 0001:0006c68c       ?has_crt_buffer@__crt_stdio_stream@@QEBA_NXZ 000000018006d68c f i libucrt:_freebuf.obj
 0001:0006c69c       __acrt_stdio_free_buffer_nolock 000000018006d69c f   libucrt:_freebuf.obj
 0001:0006c6e0       _isatty                    000000018006d6e0 f   libucrt:isatty.obj
 0001:0006c828       __acrt_fp_strflt_to_string 000000018006d828 f   libucrt:_fptostr.obj
 0001:0006da80       ??0big_integer@__crt_strtox@@QEAA@AEBU01@@Z 000000018006ea80 f i libucrt:cfout.obj
 0001:0006dab0       ??0big_integer@__crt_strtox@@QEAA@XZ 000000018006eab0 f i libucrt:cfout.obj
 0001:0006db60       ??4big_integer@__crt_strtox@@QEAAAEAU01@AEBU01@@Z 000000018006eb60 f i libucrt:cfout.obj
 0001:0006db90       ??8__crt_strtox@@YA_NAEBUbig_integer@0@0@Z 000000018006eb90 f i libucrt:cfout.obj
 0001:0006dbc0       ??9__crt_strtox@@YA_NAEBUbig_integer@0@0@Z 000000018006ebc0 f i libucrt:cfout.obj
 0001:0006dc00       ?add_carry@__crt_strtox@@YAIAEAIII@Z 000000018006ec00 f i libucrt:cfout.obj
 0001:0006dc20       ?add_multiply_carry@__crt_strtox@@YAIAEAIIII@Z 000000018006ec20 f i libucrt:cfout.obj
 0001:0006dc40       ?bit_scan_reverse@__crt_strtox@@YAII@Z 000000018006ec40 f i libucrt:cfout.obj
 0001:0006dc60       ?count_sequential_high_zeroes@__crt_strtox@@YAII@Z 000000018006ec60 f i libucrt:cfout.obj
 0001:0006dc80       ?divide@__crt_strtox@@YA_KAEAUbig_integer@1@AEBU21@@Z 000000018006ec80 f i libucrt:cfout.obj
 0001:0006e120       ?is_zero@__crt_strtox@@YA_NAEBUbig_integer@1@@Z 000000018006f120 f i libucrt:cfout.obj
 0001:0006e130       ?make_big_integer@__crt_strtox@@YA?AUbig_integer@1@_K@Z 000000018006f130 f i libucrt:cfout.obj
 0001:0006e150       ?make_big_integer_power_of_two@__crt_strtox@@YA?AUbig_integer@1@I@Z 000000018006f150 f i libucrt:cfout.obj
 0001:0006e1c0       ?multiply@__crt_strtox@@YA_NAEAUbig_integer@1@AEBU21@@Z 000000018006f1c0 f i libucrt:cfout.obj
 0001:0006e560       ?multiply@__crt_strtox@@YA_NAEAUbig_integer@1@I@Z 000000018006f560 f i libucrt:cfout.obj
 0001:0006e650       ?multiply_64_32@__crt_strtox@@YA_K_KI@Z 000000018006f650 f i libucrt:cfout.obj
 0001:0006e660       ?multiply_by_power_of_ten@__crt_strtox@@YA_NAEAUbig_integer@1@I@Z 000000018006f660 f i libucrt:cfout.obj
 0001:0006ebd0       ?multiply_core@__crt_strtox@@YAIQEAIII@Z 000000018006fbd0 f i libucrt:cfout.obj
 0001:0006ec20       ?shift_left@__crt_strtox@@YA_NAEAUbig_integer@1@I@Z 000000018006fc20 f i libucrt:cfout.obj
 0001:0006ed9c       __acrt_fltout              000000018006fd9c f   libucrt:cfout.obj
 0001:000700b4       __fpe_flt_rounds           00000001800710b4 f   libucrt:fegetround.obj
 0001:000700fc       fegetround                 00000001800710fc f   libucrt:fegetround.obj
 0001:00070110       ?__c32rtomb_utf8@__crt_mbstring@@YA_KPEAD_UPEAU_Mbstatet@@AEAV__crt_cached_ptd_host@@@Z 0000000180071110 f   libucrt:c32rtomb.obj
 0001:000701b4       c32rtomb                   00000001800711b4 f   libucrt:c32rtomb.obj
 0001:00070278       ?__mbrtowc_utf8@__crt_mbstring@@YA_KPEA_WPEBD_KPEAU_Mbstatet@@AEAV__crt_cached_ptd_host@@@Z 0000000180071278 f   libucrt:mbrtowc.obj
 0001:000702bc       ?__mbsrtowcs_utf8@__crt_mbstring@@YA_KPEA_WPEAPEBD_KPEAU_Mbstatet@@AEAV__crt_cached_ptd_host@@@Z 00000001800712bc f   libucrt:mbrtowc.obj
 0001:000708ec       btowc                      00000001800718ec f   libucrt:mbrtowc.obj
 0001:000709c4       mbrlen                     00000001800719c4 f   libucrt:mbrtowc.obj
 0001:00070a8c       mbrtowc                    0000000180071a8c f   libucrt:mbrtowc.obj
 0001:00070b74       mbsrtowcs                  0000000180071b74 f   libucrt:mbrtowc.obj
 0001:00070c18       mbsrtowcs_s                0000000180071c18 f   libucrt:mbrtowc.obj
 0001:00071104       ?has_big_buffer@__crt_stdio_stream@@QEBA_NXZ 0000000180072104 f i libucrt:_flsbuf.obj
 0001:00071190       __acrt_stdio_flush_and_write_narrow_nolock 0000000180072190 f   libucrt:_flsbuf.obj
 0001:0007125c       __acrt_stdio_flush_and_write_wide_nolock 000000018007225c f   libucrt:_flsbuf.obj
 0001:00071328       __acrt_GetStringTypeW      0000000180072328 f   libucrt:getstringtypew.obj
 0001:000714ac       __acrt_GetLocaleInfoA      00000001800724ac f   libucrt:getlocaleinfoa.obj
 0001:00071b9c       _i64toa                    0000000180072b9c f   libucrt:xtoa.obj
 0001:00071bd0       _i64toa_s                  0000000180072bd0 f   libucrt:xtoa.obj
 0001:00071bf4       _i64tow                    0000000180072bf4 f   libucrt:xtoa.obj
 0001:00071c28       _i64tow_s                  0000000180072c28 f   libucrt:xtoa.obj
 0001:00071c4c       _itoa                      0000000180072c4c f   libucrt:xtoa.obj
 0001:00071c7c       _itoa_s                    0000000180072c7c f   libucrt:xtoa.obj
 0001:00071c9c       _itow                      0000000180072c9c f   libucrt:xtoa.obj
 0001:00071ccc       _itow_s                    0000000180072ccc f   libucrt:xtoa.obj
 0001:00071cec       _ltoa                      0000000180072cec f   libucrt:xtoa.obj
 0001:00071d1c       _ltoa_s                    0000000180072d1c f   libucrt:xtoa.obj
 0001:00071d3c       _ltow                      0000000180072d3c f   libucrt:xtoa.obj
 0001:00071d6c       _ltow_s                    0000000180072d6c f   libucrt:xtoa.obj
 0001:00071d8c       _ui64toa                   0000000180072d8c f   libucrt:xtoa.obj
 0001:00071db0       _ui64toa_s                 0000000180072db0 f   libucrt:xtoa.obj
 0001:00071dc4       _ui64tow                   0000000180072dc4 f   libucrt:xtoa.obj
 0001:00071de8       _ui64tow_s                 0000000180072de8 f   libucrt:xtoa.obj
 0001:00071dfc       _ultoa                     0000000180072dfc f   libucrt:xtoa.obj
 0001:00071e20       _ultoa_s                   0000000180072e20 f   libucrt:xtoa.obj
 0001:00071e34       _ultow                     0000000180072e34 f   libucrt:xtoa.obj
 0001:00071e58       _ultow_s                   0000000180072e58 f   libucrt:xtoa.obj
 0001:00071e6c       __ascii_wcsicmp            0000000180072e6c f   libucrt:wcsicmp.obj
 0001:00071eac       _towlower_fast_internal    0000000180072eac f i libucrt:wcsicmp.obj
 0001:00071ed4       _towlower_internal         0000000180072ed4 f i libucrt:wcsicmp.obj
 0001:00071f08       _wcsicmp                   0000000180072f08 f   libucrt:wcsicmp.obj
 0001:00071f50       _wcsicmp_l                 0000000180072f50 f   libucrt:wcsicmp.obj
 0001:00072084       __ascii_wcsnicmp           0000000180073084 f   libucrt:wcsnicmp.obj
 0001:000720d0       _wcsnicmp                  00000001800730d0 f   libucrt:wcsnicmp.obj
 0001:00072118       _wcsnicmp_l                0000000180073118 f   libucrt:wcsnicmp.obj
 0001:0007226c       wcscmp                     000000018007326c f   libucrt:wcscmp.obj
 0001:000722a4       _add_exp                   00000001800732a4 f   libucrt:util.obj
 0001:000722f4       _decomp                    00000001800732f4 f   libucrt:util.obj
 0001:00072424       _get_exp                   0000000180073424 f   libucrt:util.obj
 0001:00072444       _set_bexp                  0000000180073444 f   libucrt:util.obj
 0001:00072474       _set_exp                   0000000180073474 f   libucrt:util.obj
 0001:000724ac       _sptype                    00000001800734ac f   libucrt:util.obj
 0001:00072524       __strncnt                  0000000180073524 f   libucrt:strncnt.obj
 0001:0007253c       __acrt_CompareStringW      000000018007353c f   libucrt:comparestringw.obj
 0001:000725fc       __ascii_strnicmp           00000001800735fc f   libucrt:strnicmp.obj
 0001:00072648       _strnicmp                  0000000180073648 f   libucrt:strnicmp.obj
 0001:00072698       _strnicmp_l                0000000180073698 f   libucrt:strnicmp.obj
 0001:00072acc       __acrt_CompareStringA      0000000180073acc f   libucrt:comparestringa.obj
 0001:00072c34       __acrt_report_runtime_error 0000000180073c34 f   libucrt:report_runtime_error.obj
 0001:00072d94       _query_app_type            0000000180073d94 f   libucrt:report_runtime_error.obj
 0001:00072d9c       _set_app_type              0000000180073d9c f   libucrt:report_runtime_error.obj
 0001:00073274       _lseek                     0000000180074274 f   libucrt:lseek.obj
 0001:0007330c       _lseek_internal            000000018007430c f   libucrt:lseek.obj
 0001:00073314       _lseek_nolock              0000000180074314 f   libucrt:lseek.obj
 0001:000733ac       _lseek_nolock_internal     00000001800743ac f   libucrt:lseek.obj
 0001:000733b4       _lseeki64                  00000001800743b4 f   libucrt:lseek.obj
 0001:00073450       _lseeki64_internal         0000000180074450 f   libucrt:lseek.obj
 0001:00073458       _lseeki64_nolock           0000000180074458 f   libucrt:lseek.obj
 0001:000734f4       _lseeki64_nolock_internal  00000001800744f4 f   libucrt:lseek.obj
 0001:00073598       _putwch                    0000000180074598 f   libucrt:putwch.obj
 0001:000735d4       _putwch_nolock             00000001800745d4 f   libucrt:putwch.obj
 0001:00073610       _putwch_nolock_internal    0000000180074610 f   libucrt:putwch.obj
 0001:00073d20       _read                      0000000180074d20 f   libucrt:read.obj
 0001:00073e40       _read_nolock               0000000180074e40 f   libucrt:read.obj
 0001:000743b4       _fclose_nolock             00000001800753b4 f   libucrt:fclose.obj
 0001:0007444c       fclose                     000000018007544c f   libucrt:fclose.obj
 0001:000744e4       _controlfp_s               00000001800754e4 f   libucrt:contrlfp.obj
 0001:00074548       fegetenv                   0000000180075548 f   libucrt:fegetenv.obj
 0001:00074568       fesetenv                   0000000180075568 f   libucrt:fesetenv.obj
 0001:000745c0       feholdexcept               00000001800755c0 f   libucrt:feholdexcept.obj
 0001:00074610       ceil                       0000000180075610 f   libucrt:ceil.obj
 0001:000746e0       log10                      00000001800756e0 f   libucrt:log10.obj
 0001:00074c8c       ??$__acrt_fenv_shift_bits@W4__acrt_fenv_abstract_control@@@@YA?AW4__acrt_fenv_abstract_control@@W40@0I@Z 0000000180075c8c f i libucrt:_fenvutils.obj
 0001:00074c98       ??$__acrt_fenv_shift_bits@W4__acrt_fenv_abstract_status@@@@YA?AW4__acrt_fenv_abstract_status@@W40@0I@Z 0000000180075c98 f i libucrt:_fenvutils.obj
 0001:00074ca4       ??$__acrt_fenv_translate_bit@W4__acrt_fenv_abstract_control@@W4__acrt_fenv_machine_sse_control@@@@YA?AW4__acrt_fenv_abstract_control@@W4__acrt_fenv_machine_sse_control@@0W40@1@Z 0000000180075ca4 f i libucrt:_fenvutils.obj
 0001:00074cb0       ??$__acrt_fenv_translate_bit@W4__acrt_fenv_abstract_status@@W4__acrt_fenv_machine_sse_status@@@@YA?AW4__acrt_fenv_abstract_status@@W4__acrt_fenv_machine_sse_status@@0W40@1@Z 0000000180075cb0 f i libucrt:_fenvutils.obj
 0001:00074cbc       ??$__acrt_fenv_translate_bit@W4__acrt_fenv_machine_sse_control@@W4__acrt_fenv_abstract_control@@@@YA?AW4__acrt_fenv_machine_sse_control@@W4__acrt_fenv_abstract_control@@0W40@1@Z 0000000180075cbc f i libucrt:_fenvutils.obj
 0001:00074cc8       ??$__acrt_fenv_translate_bit@W4__acrt_fenv_machine_sse_status@@W4__acrt_fenv_abstract_status@@@@YA?AW4__acrt_fenv_machine_sse_status@@W4__acrt_fenv_abstract_status@@0W40@1@Z 0000000180075cc8 f i libucrt:_fenvutils.obj
 0001:00074cd4       ??$__acrt_fenv_unshift_bits@W4__acrt_fenv_abstract_control@@@@YA?AW4__acrt_fenv_abstract_control@@W40@0I@Z 0000000180075cd4 f i libucrt:_fenvutils.obj
 0001:00074ce0       ??$__acrt_fenv_unshift_bits@W4__acrt_fenv_abstract_status@@@@YA?AW4__acrt_fenv_abstract_status@@W40@0I@Z 0000000180075ce0 f i libucrt:_fenvutils.obj
 0001:00074ea4       ??I@YA?AW4__acrt_fenv_abstract_control@@W40@0@Z 0000000180075ea4 f i libucrt:_fenvutils.obj
 0001:00074eac       ??I@YA?AW4__acrt_fenv_abstract_status@@W40@0@Z 0000000180075eac f i libucrt:_fenvutils.obj
 0001:00074eb4       ??I@YA?AW4__acrt_fenv_machine_sse_control@@W40@0@Z 0000000180075eb4 f i libucrt:_fenvutils.obj
 0001:00074ebc       ??I@YA?AW4__acrt_fenv_machine_sse_status@@W40@0@Z 0000000180075ebc f i libucrt:_fenvutils.obj
 0001:00074ec4       ??U@YA?AW4__acrt_fenv_abstract_control@@W40@0@Z 0000000180075ec4 f i libucrt:_fenvutils.obj
 0001:00074ecc       ??U@YA?AW4__acrt_fenv_abstract_status@@W40@0@Z 0000000180075ecc f i libucrt:_fenvutils.obj
 0001:00074ed4       ??U@YA?AW4__acrt_fenv_machine_sse_control@@W40@0@Z 0000000180075ed4 f i libucrt:_fenvutils.obj
 0001:00074edc       ??_5@YAAEAW4__acrt_fenv_abstract_control@@AEAW40@W40@@Z 0000000180075edc f i libucrt:_fenvutils.obj
 0001:00074ee4       ??_5@YAAEAW4__acrt_fenv_abstract_status@@AEAW40@W40@@Z 0000000180075ee4 f i libucrt:_fenvutils.obj
 0001:00074eec       ??_5@YAAEAW4__acrt_fenv_machine_sse_control@@AEAW40@W40@@Z 0000000180075eec f i libucrt:_fenvutils.obj
 0001:00074ef4       ??_5@YAAEAW4__acrt_fenv_machine_sse_status@@AEAW40@W40@@Z 0000000180075ef4 f i libucrt:_fenvutils.obj
 0001:00074efc       ?__acrt_fenv_shift_abstract_sse_control@@YA?AW4__acrt_fenv_abstract_control@@W41@@Z 0000000180075efc f i libucrt:_fenvutils.obj
 0001:00074f10       ?__acrt_fenv_shift_abstract_sse_status@@YA?AW4__acrt_fenv_abstract_status@@W41@@Z 0000000180075f10 f i libucrt:_fenvutils.obj
 0001:00074f1c       ?__acrt_fenv_unshift_abstract_sse_control@@YA?AW4__acrt_fenv_abstract_control@@W41@@Z 0000000180075f1c f i libucrt:_fenvutils.obj
